Archive member included because of file (symbol)

/Applications/Simplicity Studio.app/Contents/Eclipse/developer/sdks/gecko_sdk_suite/v1.0//protocol/bluetooth_2.3/lib/EFR32BG1P/GCC/bgapi.a(gecko_bgapi_hardware.c.obj)
                              ./main.o (gecko_bgapi_class_hardware_init)
/Applications/Simplicity Studio.app/Contents/Eclipse/developer/sdks/gecko_sdk_suite/v1.0//protocol/bluetooth_2.3/lib/EFR32BG1P/GCC/bgapi.a(gecko_bgapi_test.c.obj)
                              ./main.o (gecko_bgapi_class_test_init)
/Applications/Simplicity Studio.app/Contents/Eclipse/developer/sdks/gecko_sdk_suite/v1.0//protocol/bluetooth_2.3/lib/EFR32BG1P/GCC/bgapi.a(gecko_bgapi_util.c.obj)
                              ./main.o (gecko_bgapi_class_util_init)
/Applications/Simplicity Studio.app/Contents/Eclipse/developer/sdks/gecko_sdk_suite/v1.0//protocol/bluetooth_2.3/lib/EFR32BG1P/GCC/bgapi.a(gecko_bgapi_dfu.c.obj)
                              ./main.o (gecko_bgapi_class_dfu_init)
/Applications/Simplicity Studio.app/Contents/Eclipse/developer/sdks/gecko_sdk_suite/v1.0//protocol/bluetooth_2.3/lib/EFR32BG1P/GCC/bgapi.a(gecko_bgapi_gap.c.obj)
                              ./main.o (gecko_bgapi_class_le_gap_init)
/Applications/Simplicity Studio.app/Contents/Eclipse/developer/sdks/gecko_sdk_suite/v1.0//protocol/bluetooth_2.3/lib/EFR32BG1P/GCC/bgapi.a(gecko_bgapi_gatt.c.obj)
                              ./main.o (gecko_bgapi_class_gatt_init)
/Applications/Simplicity Studio.app/Contents/Eclipse/developer/sdks/gecko_sdk_suite/v1.0//protocol/bluetooth_2.3/lib/EFR32BG1P/GCC/bgapi.a(gecko_bgapi_gatt_server.c.obj)
                              ./main.o (gecko_bgapi_class_gatt_server_init)
/Applications/Simplicity Studio.app/Contents/Eclipse/developer/sdks/gecko_sdk_suite/v1.0//protocol/bluetooth_2.3/lib/EFR32BG1P/GCC/bgapi.a(gecko_bgapi_flash.c.obj)
                              ./main.o (gecko_bgapi_class_flash_init)
/Applications/Simplicity Studio.app/Contents/Eclipse/developer/sdks/gecko_sdk_suite/v1.0//protocol/bluetooth_2.3/lib/EFR32BG1P/GCC/bgapi.a(gecko_bgapi_sm.c.obj)
                              ./main.o (gecko_bgapi_class_sm_init)
/Applications/Simplicity Studio.app/Contents/Eclipse/developer/sdks/gecko_sdk_suite/v1.0//protocol/bluetooth_2.3/lib/EFR32BG1P/GCC/bgapi.a(gecko_bgapi_system.c.obj)
                              ./main.o (gecko_bgapi_class_system_init)
/Applications/Simplicity Studio.app/Contents/Eclipse/developer/sdks/gecko_sdk_suite/v1.0//protocol/bluetooth_2.3/lib/EFR32BG1P/GCC/bgapi.a(gecko_bgapi_endpoint.c.obj)
                              ./main.o (gecko_bgapi_class_endpoint_init)
/Applications/Simplicity Studio.app/Contents/Eclipse/developer/sdks/gecko_sdk_suite/v1.0//protocol/bluetooth_2.3/lib/EFR32BG1P/GCC/bgapi.a(gecko_bgapi_le_connection.c.obj)
                              ./main.o (gecko_bgapi_class_le_connection_init)
/Applications/Simplicity Studio.app/Contents/Eclipse/developer/sdks/gecko_sdk_suite/v1.0//protocol/bluetooth_2.3/lib/EFR32BG1P/GCC/bgapi.a(bgapi_hardware_lib.c.obj)
                              /Applications/Simplicity Studio.app/Contents/Eclipse/developer/sdks/gecko_sdk_suite/v1.0//protocol/bluetooth_2.3/lib/EFR32BG1P/GCC/bgapi.a(gecko_bgapi_hardware.c.obj) (gecko_cmd_hardware_read_i2c)
/Applications/Simplicity Studio.app/Contents/Eclipse/developer/sdks/gecko_sdk_suite/v1.0//protocol/bluetooth_2.3/lib/EFR32BG1P/GCC/bgapi.a(bgapi_hardware.c.obj)
                              /Applications/Simplicity Studio.app/Contents/Eclipse/developer/sdks/gecko_sdk_suite/v1.0//protocol/bluetooth_2.3/lib/EFR32BG1P/GCC/bgapi.a(gecko_bgapi_hardware.c.obj) (lib_hardware_handler_init)
/Applications/Simplicity Studio.app/Contents/Eclipse/developer/sdks/gecko_sdk_suite/v1.0//protocol/bluetooth_2.3/lib/EFR32BG1P/GCC/bgapi.a(bgapi_test_lib.c.obj)
                              /Applications/Simplicity Studio.app/Contents/Eclipse/developer/sdks/gecko_sdk_suite/v1.0//protocol/bluetooth_2.3/lib/EFR32BG1P/GCC/bgapi.a(gecko_bgapi_test.c.obj) (lib_test_handler_init)
/Applications/Simplicity Studio.app/Contents/Eclipse/developer/sdks/gecko_sdk_suite/v1.0//protocol/bluetooth_2.3/lib/EFR32BG1P/GCC/bgapi.a(bgapi_util.c.obj)
                              /Applications/Simplicity Studio.app/Contents/Eclipse/developer/sdks/gecko_sdk_suite/v1.0//protocol/bluetooth_2.3/lib/EFR32BG1P/GCC/bgapi.a(gecko_bgapi_util.c.obj) (lib_util_handler_init)
/Applications/Simplicity Studio.app/Contents/Eclipse/developer/sdks/gecko_sdk_suite/v1.0//protocol/bluetooth_2.3/lib/EFR32BG1P/GCC/bgapi.a(bgapi_dfu.c.obj)
                              /Applications/Simplicity Studio.app/Contents/Eclipse/developer/sdks/gecko_sdk_suite/v1.0//protocol/bluetooth_2.3/lib/EFR32BG1P/GCC/bgapi.a(gecko_bgapi_dfu.c.obj) (lib_dfu_handler_init)
/Applications/Simplicity Studio.app/Contents/Eclipse/developer/sdks/gecko_sdk_suite/v1.0//protocol/bluetooth_2.3/lib/EFR32BG1P/GCC/bgapi.a(bgapi_gap.c.obj)
                              /Applications/Simplicity Studio.app/Contents/Eclipse/developer/sdks/gecko_sdk_suite/v1.0//protocol/bluetooth_2.3/lib/EFR32BG1P/GCC/bgapi.a(gecko_bgapi_gap.c.obj) (lib_le_gap_handler_init)
/Applications/Simplicity Studio.app/Contents/Eclipse/developer/sdks/gecko_sdk_suite/v1.0//protocol/bluetooth_2.3/lib/EFR32BG1P/GCC/bgapi.a(bgapi_gatt_lib.c.obj)
                              /Applications/Simplicity Studio.app/Contents/Eclipse/developer/sdks/gecko_sdk_suite/v1.0//protocol/bluetooth_2.3/lib/EFR32BG1P/GCC/bgapi.a(gecko_bgapi_gatt.c.obj) (lib_gatt_handler_init)
/Applications/Simplicity Studio.app/Contents/Eclipse/developer/sdks/gecko_sdk_suite/v1.0//protocol/bluetooth_2.3/lib/EFR32BG1P/GCC/bgapi.a(bgapi_ps.c.obj)
                              /Applications/Simplicity Studio.app/Contents/Eclipse/developer/sdks/gecko_sdk_suite/v1.0//protocol/bluetooth_2.3/lib/EFR32BG1P/GCC/bgapi.a(gecko_bgapi_flash.c.obj) (lib_flash_handler_init)
/Applications/Simplicity Studio.app/Contents/Eclipse/developer/sdks/gecko_sdk_suite/v1.0//protocol/bluetooth_2.3/lib/EFR32BG1P/GCC/bgapi.a(bgapi_sm.c.obj)
                              /Applications/Simplicity Studio.app/Contents/Eclipse/developer/sdks/gecko_sdk_suite/v1.0//protocol/bluetooth_2.3/lib/EFR32BG1P/GCC/bgapi.a(gecko_bgapi_sm.c.obj) (lib_sm_handler_init)
/Applications/Simplicity Studio.app/Contents/Eclipse/developer/sdks/gecko_sdk_suite/v1.0//protocol/bluetooth_2.3/lib/EFR32BG1P/GCC/bgapi.a(bgapi_system.c.obj)
                              /Applications/Simplicity Studio.app/Contents/Eclipse/developer/sdks/gecko_sdk_suite/v1.0//protocol/bluetooth_2.3/lib/EFR32BG1P/GCC/bgapi.a(gecko_bgapi_system.c.obj) (lib_system_handler_init)
/Applications/Simplicity Studio.app/Contents/Eclipse/developer/sdks/gecko_sdk_suite/v1.0//protocol/bluetooth_2.3/lib/EFR32BG1P/GCC/bgapi.a(bgapi_endpoint.c.obj)
                              /Applications/Simplicity Studio.app/Contents/Eclipse/developer/sdks/gecko_sdk_suite/v1.0//protocol/bluetooth_2.3/lib/EFR32BG1P/GCC/bgapi.a(gecko_bgapi_endpoint.c.obj) (lib_endpoint_handler_init)
/Applications/Simplicity Studio.app/Contents/Eclipse/developer/sdks/gecko_sdk_suite/v1.0//protocol/bluetooth_2.3/lib/EFR32BG1P/GCC/bgapi.a(bgapi_le_connection.c.obj)
                              /Applications/Simplicity Studio.app/Contents/Eclipse/developer/sdks/gecko_sdk_suite/v1.0//protocol/bluetooth_2.3/lib/EFR32BG1P/GCC/bgapi.a(gecko_bgapi_le_connection.c.obj) (lib_le_connection_handler_init)
/Applications/Simplicity Studio.app/Contents/Eclipse/developer/sdks/gecko_sdk_suite/v1.0//protocol/bluetooth_2.3/lib/EFR32BG1P/GCC/bgapi.a(uart_endpoint.c.obj)
                              /Applications/Simplicity Studio.app/Contents/Eclipse/developer/sdks/gecko_sdk_suite/v1.0//protocol/bluetooth_2.3/lib/EFR32BG1P/GCC/bgapi.a(bgapi_hardware_lib.c.obj) (init_uart_endpoints)
/Applications/Simplicity Studio.app/Contents/Eclipse/developer/sdks/gecko_sdk_suite/v1.0//protocol/bluetooth_2.3/lib/EFR32BG1P/GCC/bgapi.a(bgapi_endpoint.c.obj)
                              /Applications/Simplicity Studio.app/Contents/Eclipse/developer/sdks/gecko_sdk_suite/v1.0//protocol/bluetooth_2.3/lib/EFR32BG1P/GCC/bgapi.a(bgapi_hardware_lib.c.obj) (init_bgapi_endpoints)
/Applications/Simplicity Studio.app/Contents/Eclipse/developer/sdks/gecko_sdk_suite/v1.0//protocol/bluetooth_2.3/lib/EFR32BG1P/GCC/bgapi.a(adc.c.obj)
                              /Applications/Simplicity Studio.app/Contents/Eclipse/developer/sdks/gecko_sdk_suite/v1.0//protocol/bluetooth_2.3/lib/EFR32BG1P/GCC/bgapi.a(bgapi_hardware_lib.c.obj) (adc_read_channel)
/Applications/Simplicity Studio.app/Contents/Eclipse/developer/sdks/gecko_sdk_suite/v1.0//protocol/bluetooth_2.3/lib/EFR32BG1P/GCC/bgapi.a(gpio.c.obj)
                              /Applications/Simplicity Studio.app/Contents/Eclipse/developer/sdks/gecko_sdk_suite/v1.0//protocol/bluetooth_2.3/lib/EFR32BG1P/GCC/bgapi.a(bgapi_hardware_lib.c.obj) (gpios_init)
/Applications/Simplicity Studio.app/Contents/Eclipse/developer/sdks/gecko_sdk_suite/v1.0//protocol/bluetooth_2.3/lib/EFR32BG1P/GCC/bgapi.a(i2c.c.obj)
                              /Applications/Simplicity Studio.app/Contents/Eclipse/developer/sdks/gecko_sdk_suite/v1.0//protocol/bluetooth_2.3/lib/EFR32BG1P/GCC/bgapi.a(bgapi_hardware_lib.c.obj) (i2c_init)
/Applications/Simplicity Studio.app/Contents/Eclipse/developer/sdks/gecko_sdk_suite/v1.0//protocol/bluetooth_2.3/lib/EFR32BG1P/GCC/bgapi.a(sleep_signal.c.obj)
                              /Applications/Simplicity Studio.app/Contents/Eclipse/developer/sdks/gecko_sdk_suite/v1.0//protocol/bluetooth_2.3/lib/EFR32BG1P/GCC/bgapi.a(bgapi_hardware_lib.c.obj) (sleep_signal_init)
/Applications/Simplicity Studio.app/Contents/Eclipse/developer/sdks/gecko_sdk_suite/v1.0//protocol/bluetooth_2.3/lib/EFR32BG1P/GCC/bgapi.a(uart.c.obj)
                              /Applications/Simplicity Studio.app/Contents/Eclipse/developer/sdks/gecko_sdk_suite/v1.0//protocol/bluetooth_2.3/lib/EFR32BG1P/GCC/bgapi.a(uart_endpoint.c.obj) (uart_update)
/Applications/Simplicity Studio.app/Contents/Eclipse/developer/toolchains/gnu_arm/4.9_2015q3/bin/../lib/gcc/arm-none-eabi/4.9.3/armv7e-m/softfp/libgcc.a(_aeabi_uldivmod.o)
                              ./emlib/em_usart.o (__aeabi_uldivmod)
/Applications/Simplicity Studio.app/Contents/Eclipse/developer/toolchains/gnu_arm/4.9_2015q3/bin/../lib/gcc/arm-none-eabi/4.9.3/armv7e-m/softfp/libgcc.a(bpabi.o)
                              /Applications/Simplicity Studio.app/Contents/Eclipse/developer/toolchains/gnu_arm/4.9_2015q3/bin/../lib/gcc/arm-none-eabi/4.9.3/armv7e-m/softfp/libgcc.a(_aeabi_uldivmod.o) (__gnu_uldivmod_helper)
/Applications/Simplicity Studio.app/Contents/Eclipse/developer/toolchains/gnu_arm/4.9_2015q3/bin/../lib/gcc/arm-none-eabi/4.9.3/armv7e-m/softfp/libgcc.a(_dvmd_tls.o)
                              /Applications/Simplicity Studio.app/Contents/Eclipse/developer/toolchains/gnu_arm/4.9_2015q3/bin/../lib/gcc/arm-none-eabi/4.9.3/armv7e-m/softfp/libgcc.a(_aeabi_uldivmod.o) (__aeabi_ldiv0)
/Applications/Simplicity Studio.app/Contents/Eclipse/developer/toolchains/gnu_arm/4.9_2015q3/bin/../lib/gcc/arm-none-eabi/4.9.3/armv7e-m/softfp/libgcc.a(_divdi3.o)
                              /Applications/Simplicity Studio.app/Contents/Eclipse/developer/toolchains/gnu_arm/4.9_2015q3/bin/../lib/gcc/arm-none-eabi/4.9.3/armv7e-m/softfp/libgcc.a(bpabi.o) (__divdi3)
/Applications/Simplicity Studio.app/Contents/Eclipse/developer/toolchains/gnu_arm/4.9_2015q3/bin/../lib/gcc/arm-none-eabi/4.9.3/armv7e-m/softfp/libgcc.a(_udivdi3.o)
                              /Applications/Simplicity Studio.app/Contents/Eclipse/developer/toolchains/gnu_arm/4.9_2015q3/bin/../lib/gcc/arm-none-eabi/4.9.3/armv7e-m/softfp/libgcc.a(bpabi.o) (__udivdi3)
/Applications/Simplicity Studio.app/Contents/Eclipse/developer/toolchains/gnu_arm/4.9_2015q3/bin/../lib/gcc/arm-none-eabi/4.9.3/../../../../arm-none-eabi/lib/armv7e-m/softfp/libc.a(lib_a-exit.o)
                              /Applications/Simplicity Studio.app/Contents/Eclipse/developer/toolchains/gnu_arm/4.9_2015q3/bin/../lib/gcc/arm-none-eabi/4.9.3/../../../../arm-none-eabi/lib/armv7e-m/softfp/crt0.o (exit)
/Applications/Simplicity Studio.app/Contents/Eclipse/developer/toolchains/gnu_arm/4.9_2015q3/bin/../lib/gcc/arm-none-eabi/4.9.3/../../../../arm-none-eabi/lib/armv7e-m/softfp/libc.a(lib_a-impure.o)
                              /Applications/Simplicity Studio.app/Contents/Eclipse/developer/toolchains/gnu_arm/4.9_2015q3/bin/../lib/gcc/arm-none-eabi/4.9.3/../../../../arm-none-eabi/lib/armv7e-m/softfp/libc.a(lib_a-exit.o) (_global_impure_ptr)
/Applications/Simplicity Studio.app/Contents/Eclipse/developer/toolchains/gnu_arm/4.9_2015q3/bin/../lib/gcc/arm-none-eabi/4.9.3/../../../../arm-none-eabi/lib/armv7e-m/softfp/libc.a(lib_a-init.o)
                              /Applications/Simplicity Studio.app/Contents/Eclipse/developer/toolchains/gnu_arm/4.9_2015q3/bin/../lib/gcc/arm-none-eabi/4.9.3/../../../../arm-none-eabi/lib/armv7e-m/softfp/crt0.o (__libc_init_array)
/Applications/Simplicity Studio.app/Contents/Eclipse/developer/toolchains/gnu_arm/4.9_2015q3/bin/../lib/gcc/arm-none-eabi/4.9.3/../../../../arm-none-eabi/lib/armv7e-m/softfp/libc.a(lib_a-memcpy.o)
                              ./app.o (memcpy)
/Applications/Simplicity Studio.app/Contents/Eclipse/developer/toolchains/gnu_arm/4.9_2015q3/bin/../lib/gcc/arm-none-eabi/4.9.3/../../../../arm-none-eabi/lib/armv7e-m/softfp/libc.a(lib_a-memset.o)
                              /Applications/Simplicity Studio.app/Contents/Eclipse/developer/toolchains/gnu_arm/4.9_2015q3/bin/../lib/gcc/arm-none-eabi/4.9.3/../../../../arm-none-eabi/lib/armv7e-m/softfp/crt0.o (memset)
/Applications/Simplicity Studio.app/Contents/Eclipse/developer/toolchains/gnu_arm/4.9_2015q3/bin/../lib/gcc/arm-none-eabi/4.9.3/../../../../arm-none-eabi/lib/armv7e-m/softfp/libc.a(lib_a-snprintf.o)
                              ./app.o (snprintf)
/Applications/Simplicity Studio.app/Contents/Eclipse/developer/toolchains/gnu_arm/4.9_2015q3/bin/../lib/gcc/arm-none-eabi/4.9.3/../../../../arm-none-eabi/lib/armv7e-m/softfp/libc.a(lib_a-strlen.o)
                              ./app.o (strlen)
/Applications/Simplicity Studio.app/Contents/Eclipse/developer/toolchains/gnu_arm/4.9_2015q3/bin/../lib/gcc/arm-none-eabi/4.9.3/../../../../arm-none-eabi/lib/armv7e-m/softfp/libc.a(lib_a-svfprintf.o)
                              /Applications/Simplicity Studio.app/Contents/Eclipse/developer/toolchains/gnu_arm/4.9_2015q3/bin/../lib/gcc/arm-none-eabi/4.9.3/../../../../arm-none-eabi/lib/armv7e-m/softfp/libc.a(lib_a-snprintf.o) (_svfprintf_r)
/Applications/Simplicity Studio.app/Contents/Eclipse/developer/toolchains/gnu_arm/4.9_2015q3/bin/../lib/gcc/arm-none-eabi/4.9.3/../../../../arm-none-eabi/lib/armv7e-m/softfp/libc.a(lib_a-__call_atexit.o)
                              /Applications/Simplicity Studio.app/Contents/Eclipse/developer/toolchains/gnu_arm/4.9_2015q3/bin/../lib/gcc/arm-none-eabi/4.9.3/../../../../arm-none-eabi/lib/armv7e-m/softfp/libc.a(lib_a-exit.o) (__call_exitprocs)
/Applications/Simplicity Studio.app/Contents/Eclipse/developer/toolchains/gnu_arm/4.9_2015q3/bin/../lib/gcc/arm-none-eabi/4.9.3/../../../../arm-none-eabi/lib/armv7e-m/softfp/libc.a(lib_a-atexit.o)
                              /Applications/Simplicity Studio.app/Contents/Eclipse/developer/toolchains/gnu_arm/4.9_2015q3/bin/../lib/gcc/arm-none-eabi/4.9.3/../../../../arm-none-eabi/lib/armv7e-m/softfp/libc.a(lib_a-__call_atexit.o) (atexit)
/Applications/Simplicity Studio.app/Contents/Eclipse/developer/toolchains/gnu_arm/4.9_2015q3/bin/../lib/gcc/arm-none-eabi/4.9.3/../../../../arm-none-eabi/lib/armv7e-m/softfp/libc.a(lib_a-dtoa.o)
                              /Applications/Simplicity Studio.app/Contents/Eclipse/developer/toolchains/gnu_arm/4.9_2015q3/bin/../lib/gcc/arm-none-eabi/4.9.3/../../../../arm-none-eabi/lib/armv7e-m/softfp/libc.a(lib_a-svfprintf.o) (_dtoa_r)
/Applications/Simplicity Studio.app/Contents/Eclipse/developer/toolchains/gnu_arm/4.9_2015q3/bin/../lib/gcc/arm-none-eabi/4.9.3/../../../../arm-none-eabi/lib/armv7e-m/softfp/libc.a(lib_a-fini.o)
                              /Applications/Simplicity Studio.app/Contents/Eclipse/developer/toolchains/gnu_arm/4.9_2015q3/bin/../lib/gcc/arm-none-eabi/4.9.3/../../../../arm-none-eabi/lib/armv7e-m/softfp/libc.a(lib_a-__call_atexit.o) (__libc_fini_array)
/Applications/Simplicity Studio.app/Contents/Eclipse/developer/toolchains/gnu_arm/4.9_2015q3/bin/../lib/gcc/arm-none-eabi/4.9.3/../../../../arm-none-eabi/lib/armv7e-m/softfp/libc.a(lib_a-locale.o)
                              /Applications/Simplicity Studio.app/Contents/Eclipse/developer/toolchains/gnu_arm/4.9_2015q3/bin/../lib/gcc/arm-none-eabi/4.9.3/../../../../arm-none-eabi/lib/armv7e-m/softfp/libc.a(lib_a-svfprintf.o) (_localeconv_r)
/Applications/Simplicity Studio.app/Contents/Eclipse/developer/toolchains/gnu_arm/4.9_2015q3/bin/../lib/gcc/arm-none-eabi/4.9.3/../../../../arm-none-eabi/lib/armv7e-m/softfp/libc.a(lib_a-mallocr.o)
                              /Applications/Simplicity Studio.app/Contents/Eclipse/developer/toolchains/gnu_arm/4.9_2015q3/bin/../lib/gcc/arm-none-eabi/4.9.3/../../../../arm-none-eabi/lib/armv7e-m/softfp/libc.a(lib_a-svfprintf.o) (_malloc_r)
/Applications/Simplicity Studio.app/Contents/Eclipse/developer/toolchains/gnu_arm/4.9_2015q3/bin/../lib/gcc/arm-none-eabi/4.9.3/../../../../arm-none-eabi/lib/armv7e-m/softfp/libc.a(lib_a-memchr.o)
                              /Applications/Simplicity Studio.app/Contents/Eclipse/developer/toolchains/gnu_arm/4.9_2015q3/bin/../lib/gcc/arm-none-eabi/4.9.3/../../../../arm-none-eabi/lib/armv7e-m/softfp/libc.a(lib_a-svfprintf.o) (memchr)
/Applications/Simplicity Studio.app/Contents/Eclipse/developer/toolchains/gnu_arm/4.9_2015q3/bin/../lib/gcc/arm-none-eabi/4.9.3/../../../../arm-none-eabi/lib/armv7e-m/softfp/libc.a(lib_a-mlock.o)
                              /Applications/Simplicity Studio.app/Contents/Eclipse/developer/toolchains/gnu_arm/4.9_2015q3/bin/../lib/gcc/arm-none-eabi/4.9.3/../../../../arm-none-eabi/lib/armv7e-m/softfp/libc.a(lib_a-mallocr.o) (__malloc_lock)
/Applications/Simplicity Studio.app/Contents/Eclipse/developer/toolchains/gnu_arm/4.9_2015q3/bin/../lib/gcc/arm-none-eabi/4.9.3/../../../../arm-none-eabi/lib/armv7e-m/softfp/libc.a(lib_a-mprec.o)
                              /Applications/Simplicity Studio.app/Contents/Eclipse/developer/toolchains/gnu_arm/4.9_2015q3/bin/../lib/gcc/arm-none-eabi/4.9.3/../../../../arm-none-eabi/lib/armv7e-m/softfp/libc.a(lib_a-dtoa.o) (_Balloc)
/Applications/Simplicity Studio.app/Contents/Eclipse/developer/toolchains/gnu_arm/4.9_2015q3/bin/../lib/gcc/arm-none-eabi/4.9.3/../../../../arm-none-eabi/lib/armv7e-m/softfp/libc.a(lib_a-s_fpclassify.o)
                              /Applications/Simplicity Studio.app/Contents/Eclipse/developer/toolchains/gnu_arm/4.9_2015q3/bin/../lib/gcc/arm-none-eabi/4.9.3/../../../../arm-none-eabi/lib/armv7e-m/softfp/libc.a(lib_a-svfprintf.o) (__fpclassifyd)
/Applications/Simplicity Studio.app/Contents/Eclipse/developer/toolchains/gnu_arm/4.9_2015q3/bin/../lib/gcc/arm-none-eabi/4.9.3/../../../../arm-none-eabi/lib/armv7e-m/softfp/libc.a(lib_a-sbrkr.o)
                              /Applications/Simplicity Studio.app/Contents/Eclipse/developer/toolchains/gnu_arm/4.9_2015q3/bin/../lib/gcc/arm-none-eabi/4.9.3/../../../../arm-none-eabi/lib/armv7e-m/softfp/libc.a(lib_a-mallocr.o) (_sbrk_r)
/Applications/Simplicity Studio.app/Contents/Eclipse/developer/toolchains/gnu_arm/4.9_2015q3/bin/../lib/gcc/arm-none-eabi/4.9.3/../../../../arm-none-eabi/lib/armv7e-m/softfp/libc.a(lib_a-strcmp.o)
                              /Applications/Simplicity Studio.app/Contents/Eclipse/developer/toolchains/gnu_arm/4.9_2015q3/bin/../lib/gcc/arm-none-eabi/4.9.3/../../../../arm-none-eabi/lib/armv7e-m/softfp/libc.a(lib_a-locale.o) (strcmp)
/Applications/Simplicity Studio.app/Contents/Eclipse/developer/toolchains/gnu_arm/4.9_2015q3/bin/../lib/gcc/arm-none-eabi/4.9.3/../../../../arm-none-eabi/lib/armv7e-m/softfp/libc.a(lib_a-svfiprintf.o)
                              /Applications/Simplicity Studio.app/Contents/Eclipse/developer/toolchains/gnu_arm/4.9_2015q3/bin/../lib/gcc/arm-none-eabi/4.9.3/../../../../arm-none-eabi/lib/armv7e-m/softfp/libc.a(lib_a-svfprintf.o) (__ssprint_r)
/Applications/Simplicity Studio.app/Contents/Eclipse/developer/toolchains/gnu_arm/4.9_2015q3/bin/../lib/gcc/arm-none-eabi/4.9.3/../../../../arm-none-eabi/lib/armv7e-m/softfp/libc.a(lib_a-__atexit.o)
                              /Applications/Simplicity Studio.app/Contents/Eclipse/developer/toolchains/gnu_arm/4.9_2015q3/bin/../lib/gcc/arm-none-eabi/4.9.3/../../../../arm-none-eabi/lib/armv7e-m/softfp/libc.a(lib_a-atexit.o) (__register_exitproc)
/Applications/Simplicity Studio.app/Contents/Eclipse/developer/toolchains/gnu_arm/4.9_2015q3/bin/../lib/gcc/arm-none-eabi/4.9.3/../../../../arm-none-eabi/lib/armv7e-m/softfp/libc.a(lib_a-callocr.o)
                              /Applications/Simplicity Studio.app/Contents/Eclipse/developer/toolchains/gnu_arm/4.9_2015q3/bin/../lib/gcc/arm-none-eabi/4.9.3/../../../../arm-none-eabi/lib/armv7e-m/softfp/libc.a(lib_a-mprec.o) (_calloc_r)
/Applications/Simplicity Studio.app/Contents/Eclipse/developer/toolchains/gnu_arm/4.9_2015q3/bin/../lib/gcc/arm-none-eabi/4.9.3/../../../../arm-none-eabi/lib/armv7e-m/softfp/libc.a(lib_a-freer.o)
                              /Applications/Simplicity Studio.app/Contents/Eclipse/developer/toolchains/gnu_arm/4.9_2015q3/bin/../lib/gcc/arm-none-eabi/4.9.3/../../../../arm-none-eabi/lib/armv7e-m/softfp/libc.a(lib_a-mallocr.o) (_free_r)
/Applications/Simplicity Studio.app/Contents/Eclipse/developer/toolchains/gnu_arm/4.9_2015q3/bin/../lib/gcc/arm-none-eabi/4.9.3/../../../../arm-none-eabi/lib/armv7e-m/softfp/libc.a(lib_a-memmove.o)
                              /Applications/Simplicity Studio.app/Contents/Eclipse/developer/toolchains/gnu_arm/4.9_2015q3/bin/../lib/gcc/arm-none-eabi/4.9.3/../../../../arm-none-eabi/lib/armv7e-m/softfp/libc.a(lib_a-svfiprintf.o) (memmove)
/Applications/Simplicity Studio.app/Contents/Eclipse/developer/toolchains/gnu_arm/4.9_2015q3/bin/../lib/gcc/arm-none-eabi/4.9.3/../../../../arm-none-eabi/lib/armv7e-m/softfp/libc.a(lib_a-reallocr.o)
                              /Applications/Simplicity Studio.app/Contents/Eclipse/developer/toolchains/gnu_arm/4.9_2015q3/bin/../lib/gcc/arm-none-eabi/4.9.3/../../../../arm-none-eabi/lib/armv7e-m/softfp/libc.a(lib_a-svfiprintf.o) (_realloc_r)
/Applications/Simplicity Studio.app/Contents/Eclipse/developer/toolchains/gnu_arm/4.9_2015q3/bin/../lib/gcc/arm-none-eabi/4.9.3/../../../../arm-none-eabi/lib/armv7e-m/softfp/libc.a(lib_a-reent.o)
                              /Applications/Simplicity Studio.app/Contents/Eclipse/developer/toolchains/gnu_arm/4.9_2015q3/bin/../lib/gcc/arm-none-eabi/4.9.3/../../../../arm-none-eabi/lib/armv7e-m/softfp/libc.a(lib_a-sbrkr.o) (errno)
/Applications/Simplicity Studio.app/Contents/Eclipse/developer/toolchains/gnu_arm/4.9_2015q3/bin/../lib/gcc/arm-none-eabi/4.9.3/../../../../arm-none-eabi/lib/armv7e-m/softfp/libnosys.a(sbrk.o)
                              /Applications/Simplicity Studio.app/Contents/Eclipse/developer/toolchains/gnu_arm/4.9_2015q3/bin/../lib/gcc/arm-none-eabi/4.9.3/../../../../arm-none-eabi/lib/armv7e-m/softfp/libc.a(lib_a-sbrkr.o) (_sbrk)
/Applications/Simplicity Studio.app/Contents/Eclipse/developer/toolchains/gnu_arm/4.9_2015q3/bin/../lib/gcc/arm-none-eabi/4.9.3/../../../../arm-none-eabi/lib/armv7e-m/softfp/libnosys.a(_exit.o)
                              /Applications/Simplicity Studio.app/Contents/Eclipse/developer/toolchains/gnu_arm/4.9_2015q3/bin/../lib/gcc/arm-none-eabi/4.9.3/../../../../arm-none-eabi/lib/armv7e-m/softfp/libc.a(lib_a-exit.o) (_exit)
/Applications/Simplicity Studio.app/Contents/Eclipse/developer/toolchains/gnu_arm/4.9_2015q3/bin/../lib/gcc/arm-none-eabi/4.9.3/armv7e-m/softfp/libgcc.a(_arm_addsubdf3.o)
                              /Applications/Simplicity Studio.app/Contents/Eclipse/developer/toolchains/gnu_arm/4.9_2015q3/bin/../lib/gcc/arm-none-eabi/4.9.3/../../../../arm-none-eabi/lib/armv7e-m/softfp/libc.a(lib_a-dtoa.o) (__aeabi_dsub)
/Applications/Simplicity Studio.app/Contents/Eclipse/developer/toolchains/gnu_arm/4.9_2015q3/bin/../lib/gcc/arm-none-eabi/4.9.3/armv7e-m/softfp/libgcc.a(_arm_muldivdf3.o)
                              /Applications/Simplicity Studio.app/Contents/Eclipse/developer/toolchains/gnu_arm/4.9_2015q3/bin/../lib/gcc/arm-none-eabi/4.9.3/../../../../arm-none-eabi/lib/armv7e-m/softfp/libc.a(lib_a-dtoa.o) (__aeabi_dmul)
/Applications/Simplicity Studio.app/Contents/Eclipse/developer/toolchains/gnu_arm/4.9_2015q3/bin/../lib/gcc/arm-none-eabi/4.9.3/armv7e-m/softfp/libgcc.a(_arm_cmpdf2.o)
                              /Applications/Simplicity Studio.app/Contents/Eclipse/developer/toolchains/gnu_arm/4.9_2015q3/bin/../lib/gcc/arm-none-eabi/4.9.3/../../../../arm-none-eabi/lib/armv7e-m/softfp/libc.a(lib_a-svfprintf.o) (__aeabi_dcmpeq)
/Applications/Simplicity Studio.app/Contents/Eclipse/developer/toolchains/gnu_arm/4.9_2015q3/bin/../lib/gcc/arm-none-eabi/4.9.3/armv7e-m/softfp/libgcc.a(_arm_fixdfsi.o)
                              /Applications/Simplicity Studio.app/Contents/Eclipse/developer/toolchains/gnu_arm/4.9_2015q3/bin/../lib/gcc/arm-none-eabi/4.9.3/../../../../arm-none-eabi/lib/armv7e-m/softfp/libc.a(lib_a-dtoa.o) (__aeabi_d2iz)

Allocating common symbols
Common symbol       size              file

errno               0x4               /Applications/Simplicity Studio.app/Contents/Eclipse/developer/toolchains/gnu_arm/4.9_2015q3/bin/../lib/gcc/arm-none-eabi/4.9.3/../../../../arm-none-eabi/lib/armv7e-m/softfp/libc.a(lib_a-reent.o)
dirtyRows           0x10              ./glib/BRD4100A/dmd_display.o
bmpHeader           0x36              ./glib/BRD4100A/bmp.o
gpio_events         0x1               /Applications/Simplicity Studio.app/Contents/Eclipse/developer/sdks/gecko_sdk_suite/v1.0//protocol/bluetooth_2.3/lib/EFR32BG1P/GCC/bgapi.a(gpio.c.obj)
bmpPalette          0x8               ./glib/BRD4100A/bmp.o
uarts               0xc               /Applications/Simplicity Studio.app/Contents/Eclipse/developer/sdks/gecko_sdk_suite/v1.0//protocol/bluetooth_2.3/lib/EFR32BG1P/GCC/bgapi.a(uart_endpoint.c.obj)
sensor_data_buffer  0x4               ./app.o
is_leuart_data_available
                    0x1               ./app.o
leuart_rx_data_count
                    0x1               ./app.o
fpReadData          0x4               ./glib/BRD4100A/bmp.o
rleInfo             0xc               ./glib/BRD4100A/bmp.o
htmHumidityMeas     0x2               ./app.o
bluetooth_stack_heap
                    0x18d0            ./main.o

Discarded input sections

 .text          0x0000000000000000        0x0 /Applications/Simplicity Studio.app/Contents/Eclipse/developer/toolchains/gnu_arm/4.9_2015q3/bin/../lib/gcc/arm-none-eabi/4.9.3/armv7e-m/softfp/crti.o
 .data          0x0000000000000000        0x0 /Applications/Simplicity Studio.app/Contents/Eclipse/developer/toolchains/gnu_arm/4.9_2015q3/bin/../lib/gcc/arm-none-eabi/4.9.3/armv7e-m/softfp/crti.o
 .bss           0x0000000000000000        0x0 /Applications/Simplicity Studio.app/Contents/Eclipse/developer/toolchains/gnu_arm/4.9_2015q3/bin/../lib/gcc/arm-none-eabi/4.9.3/armv7e-m/softfp/crti.o
 .data          0x0000000000000000        0x4 /Applications/Simplicity Studio.app/Contents/Eclipse/developer/toolchains/gnu_arm/4.9_2015q3/bin/../lib/gcc/arm-none-eabi/4.9.3/armv7e-m/softfp/crtbegin.o
 .data          0x0000000000000000        0x0 /Applications/Simplicity Studio.app/Contents/Eclipse/developer/toolchains/gnu_arm/4.9_2015q3/bin/../lib/gcc/arm-none-eabi/4.9.3/../../../../arm-none-eabi/lib/armv7e-m/softfp/crt0.o
 .bss           0x0000000000000000        0x0 /Applications/Simplicity Studio.app/Contents/Eclipse/developer/toolchains/gnu_arm/4.9_2015q3/bin/../lib/gcc/arm-none-eabi/4.9.3/../../../../arm-none-eabi/lib/armv7e-m/softfp/crt0.o
 .ARM.extab     0x0000000000000000        0x0 /Applications/Simplicity Studio.app/Contents/Eclipse/developer/toolchains/gnu_arm/4.9_2015q3/bin/../lib/gcc/arm-none-eabi/4.9.3/../../../../arm-none-eabi/lib/armv7e-m/softfp/crt0.o
 .text          0x0000000000000000        0x0 ./advertisement.o
 .data          0x0000000000000000        0x0 ./advertisement.o
 .bss           0x0000000000000000        0x0 ./advertisement.o
 .text          0x0000000000000000        0x0 ./app.o
 .data          0x0000000000000000        0x0 ./app.o
 .bss           0x0000000000000000        0x0 ./app.o
 .text.LEUART_Interrupt_Enable
                0x0000000000000000       0x14 ./app.o
 .text          0x0000000000000000        0x0 ./app_hw.o
 .data          0x0000000000000000        0x0 ./app_hw.o
 .bss           0x0000000000000000        0x0 ./app_hw.o
 .text.appHwReadTm
                0x0000000000000000       0x20 ./app_hw.o
 .text.appHwReadHumidity
                0x0000000000000000       0x20 ./app_hw.o
 .text.appHwInitTempSens
                0x0000000000000000       0x1c ./app_hw.o
 .text          0x0000000000000000        0x0 ./app_ui.o
 .data          0x0000000000000000        0x0 ./app_ui.o
 .bss           0x0000000000000000        0x0 ./app_ui.o
 .text          0x0000000000000000        0x0 ./application_properties.o
 .data          0x0000000000000000        0x0 ./application_properties.o
 .bss           0x0000000000000000        0x0 ./application_properties.o
 .rodata.applicationProperties
                0x0000000000000000       0x38 ./application_properties.o
 .debug_info    0x0000000000000000      0x167 ./application_properties.o
 .debug_abbrev  0x0000000000000000       0x95 ./application_properties.o
 .debug_aranges
                0x0000000000000000       0x18 ./application_properties.o
 .debug_line    0x0000000000000000      0x1dd ./application_properties.o
 .debug_str     0x0000000000000000      0x2c1 ./application_properties.o
 .comment       0x0000000000000000       0x71 ./application_properties.o
 .ARM.attributes
                0x0000000000000000       0x37 ./application_properties.o
 .text          0x0000000000000000        0x0 ./beacon.o
 .data          0x0000000000000000        0x0 ./beacon.o
 .bss           0x0000000000000000        0x0 ./beacon.o
 .text          0x0000000000000000        0x0 ./ble-callback-stubs.o
 .data          0x0000000000000000        0x0 ./ble-callback-stubs.o
 .bss           0x0000000000000000        0x0 ./ble-callback-stubs.o
 .debug_line    0x0000000000000000        0x0 ./ble-callback-stubs.o
 .debug_str     0x0000000000000000      0x162 ./ble-callback-stubs.o
 .comment       0x0000000000000000       0x71 ./ble-callback-stubs.o
 .ARM.attributes
                0x0000000000000000       0x37 ./ble-callback-stubs.o
 .text          0x0000000000000000        0x0 ./ble-callbacks.o
 .data          0x0000000000000000        0x0 ./ble-callbacks.o
 .bss           0x0000000000000000        0x0 ./ble-callbacks.o
 .debug_line    0x0000000000000000        0x0 ./ble-callbacks.o
 .debug_str     0x0000000000000000      0x15d ./ble-callbacks.o
 .comment       0x0000000000000000       0x71 ./ble-callbacks.o
 .ARM.attributes
                0x0000000000000000       0x37 ./ble-callbacks.o
 .text          0x0000000000000000        0x0 ./gatt_db.o
 .data          0x0000000000000000        0x0 ./gatt_db.o
 .bss           0x0000000000000000        0x0 ./gatt_db.o
 .data.bg_gattdb
                0x0000000000000000        0x4 ./gatt_db.o
 .text          0x0000000000000000        0x0 ./graphics.o
 .data          0x0000000000000000        0x0 ./graphics.o
 .bss           0x0000000000000000        0x0 ./graphics.o
 .text          0x0000000000000000        0x0 ./htm.o
 .data          0x0000000000000000        0x0 ./htm.o
 .bss           0x0000000000000000        0x0 ./htm.o
 .text          0x0000000000000000        0x0 ./ia.o
 .data          0x0000000000000000        0x0 ./ia.o
 .bss           0x0000000000000000        0x0 ./ia.o
 .text          0x0000000000000000        0x0 ./main.o
 .data          0x0000000000000000        0x0 ./main.o
 .bss           0x0000000000000000        0x0 ./main.o
 .text          0x0000000000000000        0x0 ./bgapi/dmadrv.o
 .data          0x0000000000000000        0x0 ./bgapi/dmadrv.o
 .bss           0x0000000000000000        0x0 ./bgapi/dmadrv.o
 .text.DMADRV_DeInit
                0x0000000000000000       0x40 ./bgapi/dmadrv.o
 .text.DMADRV_FreeChannel
                0x0000000000000000       0x54 ./bgapi/dmadrv.o
 .text.DMADRV_MemoryPeripheralPingPong
                0x0000000000000000       0x34 ./bgapi/dmadrv.o
 .text.DMADRV_PeripheralMemoryPingPong
                0x0000000000000000       0x34 ./bgapi/dmadrv.o
 .text.DMADRV_PauseTransfer
                0x0000000000000000       0x44 ./bgapi/dmadrv.o
 .text.DMADRV_ResumeTransfer
                0x0000000000000000       0x44 ./bgapi/dmadrv.o
 .text.DMADRV_TransferActive
                0x0000000000000000       0x60 ./bgapi/dmadrv.o
 .text.DMADRV_TransferCompletePending
                0x0000000000000000       0x60 ./bgapi/dmadrv.o
 .text.DMADRV_TransferDone
                0x0000000000000000       0x50 ./bgapi/dmadrv.o
 .rodata.p2m    0x0000000000000000       0x10 ./bgapi/dmadrv.o
 .rodata.m2p    0x0000000000000000       0x10 ./bgapi/dmadrv.o
 .rodata.xferCfg
                0x0000000000000000       0x10 ./bgapi/dmadrv.o
 .text          0x0000000000000000        0x0 ./bgapi/em_adc.o
 .data          0x0000000000000000        0x0 ./bgapi/em_adc.o
 .bss           0x0000000000000000        0x0 ./bgapi/em_adc.o
 .text.ADC_ScanInputClear
                0x0000000000000000       0x14 ./bgapi/em_adc.o
 .text.ADC_ScanSingleEndedInputAdd
                0x0000000000000000       0x3c ./bgapi/em_adc.o
 .text.ADC_ScanDifferentialInputAdd
                0x0000000000000000       0xb4 ./bgapi/em_adc.o
 .text.ADC_InitScan
                0x0000000000000000       0x98 ./bgapi/em_adc.o
 .text.ADC_DataIdScanGet
                0x0000000000000000        0xc ./bgapi/em_adc.o
 .text.ADC_Reset
                0x0000000000000000       0x64 ./bgapi/em_adc.o
 .text.ADC_TimebaseCalc
                0x0000000000000000       0x30 ./bgapi/em_adc.o
 .rodata.CSWTCH.20
                0x0000000000000000       0x14 ./bgapi/em_adc.o
 .rodata.CSWTCH.19
                0x0000000000000000       0x14 ./bgapi/em_adc.o
 .text          0x0000000000000000        0x0 ./bgapi/em_ldma.o
 .data          0x0000000000000000        0x0 ./bgapi/em_ldma.o
 .bss           0x0000000000000000        0x0 ./bgapi/em_ldma.o
 .text.LDMA_DeInit
                0x0000000000000000       0x2c ./bgapi/em_ldma.o
 .text.LDMA_EnableChannelRequest
                0x0000000000000000       0x14 ./bgapi/em_ldma.o
 .text.LDMA_TransferDone
                0x0000000000000000       0x34 ./bgapi/em_ldma.o
 .text          0x0000000000000000        0x0 ./bgapi/em_leuart.o
 .data          0x0000000000000000        0x0 ./bgapi/em_leuart.o
 .bss           0x0000000000000000        0x0 ./bgapi/em_leuart.o
 .text.LEUART_BaudrateCalc
                0x0000000000000000       0x20 ./bgapi/em_leuart.o
 .text.LEUART_BaudrateGet
                0x0000000000000000       0x40 ./bgapi/em_leuart.o
 .text.LEUART_FreezeEnable
                0x0000000000000000       0x14 ./bgapi/em_leuart.o
 .text.LEUART_Reset
                0x0000000000000000       0x30 ./bgapi/em_leuart.o
 .text.LEUART_Rx
                0x0000000000000000        0xc ./bgapi/em_leuart.o
 .text.LEUART_RxExt
                0x0000000000000000        0xc ./bgapi/em_leuart.o
 .text.LEUART_Tx
                0x0000000000000000       0x18 ./bgapi/em_leuart.o
 .text.LEUART_TxExt
                0x0000000000000000       0x18 ./bgapi/em_leuart.o
 .text.LEUART_TxDmaInEM2Enable
                0x0000000000000000       0x28 ./bgapi/em_leuart.o
 .text          0x0000000000000000        0x0 ./device/EFR32_B_1_1_P/gcc/startup_efr32bg1p.o
 .data          0x0000000000000000        0x0 ./device/EFR32_B_1_1_P/gcc/startup_efr32bg1p.o
 .bss           0x0000000000000000        0x0 ./device/EFR32_B_1_1_P/gcc/startup_efr32bg1p.o
 .text          0x0000000000000000        0x0 ./emlib/em_cmu.o
 .data          0x0000000000000000        0x0 ./emlib/em_cmu.o
 .bss           0x0000000000000000        0x0 ./emlib/em_cmu.o
 .text.CMU_AUXHFRCOBandGet
                0x0000000000000000        0xc ./emlib/em_cmu.o
 .text.CMU_AUXHFRCOBandSet
                0x0000000000000000      0x104 ./emlib/em_cmu.o
 .text.CMU_Calibrate
                0x0000000000000000       0x58 ./emlib/em_cmu.o
 .text.CMU_CalibrateConfig
                0x0000000000000000       0x7c ./emlib/em_cmu.o
 .text.CMU_CalibrateCountGet
                0x0000000000000000       0x20 ./emlib/em_cmu.o
 .text.CMU_FreezeEnable
                0x0000000000000000       0x24 ./emlib/em_cmu.o
 .text.CMU_HFRCOBandGet
                0x0000000000000000        0xc ./emlib/em_cmu.o
 .text.CMU_HFRCOBandSet
                0x0000000000000000      0x1a0 ./emlib/em_cmu.o
 .text.CMU_HFXOAutostartEnable
                0x0000000000000000       0x88 ./emlib/em_cmu.o
 .text.CMU_LCDClkFDIVGet
                0x0000000000000000        0x4 ./emlib/em_cmu.o
 .text.CMU_LCDClkFDIVSet
                0x0000000000000000        0x4 ./emlib/em_cmu.o
 .text.CMU_OscillatorTuningGet
                0x0000000000000000       0x40 ./emlib/em_cmu.o
 .text.CMU_OscillatorTuningSet
                0x0000000000000000       0x78 ./emlib/em_cmu.o
 .text.CMU_OscillatorTuningOptimize
                0x0000000000000000       0x24 ./emlib/em_cmu.o
 .text.CMU_PCNTClockExternalGet
                0x0000000000000000       0x18 ./emlib/em_cmu.o
 .text.CMU_PCNTClockExternalSet
                0x0000000000000000       0x10 ./emlib/em_cmu.o
 .text          0x0000000000000000        0x0 ./emlib/em_cryotimer.o
 .data          0x0000000000000000        0x0 ./emlib/em_cryotimer.o
 .bss           0x0000000000000000        0x0 ./emlib/em_cryotimer.o
 .text.CRYOTIMER_Init
                0x0000000000000000       0x34 ./emlib/em_cryotimer.o
 .debug_info    0x0000000000000000      0x3d1 ./emlib/em_cryotimer.o
 .debug_abbrev  0x0000000000000000      0x171 ./emlib/em_cryotimer.o
 .debug_loc     0x0000000000000000       0x64 ./emlib/em_cryotimer.o
 .debug_aranges
                0x0000000000000000       0x20 ./emlib/em_cryotimer.o
 .debug_ranges  0x0000000000000000       0x40 ./emlib/em_cryotimer.o
 .debug_line    0x0000000000000000      0x38d ./emlib/em_cryotimer.o
 .debug_str     0x0000000000000000      0x674 ./emlib/em_cryotimer.o
 .comment       0x0000000000000000       0x71 ./emlib/em_cryotimer.o
 .debug_frame   0x0000000000000000       0x34 ./emlib/em_cryotimer.o
 .ARM.attributes
                0x0000000000000000       0x37 ./emlib/em_cryotimer.o
 .text          0x0000000000000000        0x0 ./emlib/em_gpio.o
 .data          0x0000000000000000        0x0 ./emlib/em_gpio.o
 .bss           0x0000000000000000        0x0 ./emlib/em_gpio.o
 .text.GPIO_DbgLocationSet
                0x0000000000000000        0x4 ./emlib/em_gpio.o
 .text.GPIO_DriveStrengthSet
                0x0000000000000000       0x20 ./emlib/em_gpio.o
 .text.GPIO_ExtIntConfig
                0x0000000000000000       0xb0 ./emlib/em_gpio.o
 .text.GPIO_PinModeGet
                0x0000000000000000       0x30 ./emlib/em_gpio.o
 .text.GPIO_EM4EnablePinWakeup
                0x0000000000000000       0x48 ./emlib/em_gpio.o
 .text          0x0000000000000000        0x0 ./emlib/em_i2c.o
 .data          0x0000000000000000        0x0 ./emlib/em_i2c.o
 .bss           0x0000000000000000        0x0 ./emlib/em_i2c.o
 .text.I2C_BusFreqGet
                0x0000000000000000       0x2c ./emlib/em_i2c.o
 .text.I2C_BusFreqSet
                0x0000000000000000        0x8 ./emlib/em_i2c.o
 .text.I2C_Enable
                0x0000000000000000        0xc ./emlib/em_i2c.o
 .text.I2C_Reset
                0x0000000000000000       0x18 ./emlib/em_i2c.o
 .text          0x0000000000000000        0x0 ./emlib/em_msc.o
 .data          0x0000000000000000        0x0 ./emlib/em_msc.o
 .bss           0x0000000000000000        0x0 ./emlib/em_msc.o
 .ram           0x0000000000000000      0x24c ./emlib/em_msc.o
 .text.MSC_Init
                0x0000000000000000       0x18 ./emlib/em_msc.o
 .text.MSC_Deinit
                0x0000000000000000       0x14 ./emlib/em_msc.o
 .text.MSC_ExecConfigSet
                0x0000000000000000       0x70 ./emlib/em_msc.o
 .debug_info    0x0000000000000000      0x811 ./emlib/em_msc.o
 .debug_abbrev  0x0000000000000000      0x2de ./emlib/em_msc.o
 .debug_loc     0x0000000000000000      0x682 ./emlib/em_msc.o
 .debug_aranges
                0x0000000000000000       0x70 ./emlib/em_msc.o
 .debug_ranges  0x0000000000000000       0x98 ./emlib/em_msc.o
 .debug_line    0x0000000000000000      0x4fb ./emlib/em_msc.o
 .debug_str     0x0000000000000000      0x558 ./emlib/em_msc.o
 .comment       0x0000000000000000       0x71 ./emlib/em_msc.o
 .debug_frame   0x0000000000000000      0x10c ./emlib/em_msc.o
 .ARM.attributes
                0x0000000000000000       0x37 ./emlib/em_msc.o
 .text          0x0000000000000000        0x0 ./emlib/em_rtcc.o
 .data          0x0000000000000000        0x0 ./emlib/em_rtcc.o
 .bss           0x0000000000000000        0x0 ./emlib/em_rtcc.o
 .text.RTCC_ChannelInit
                0x0000000000000000       0x38 ./emlib/em_rtcc.o
 .text.RTCC_Reset
                0x0000000000000000       0x58 ./emlib/em_rtcc.o
 .text.RTCC_StatusClear
                0x0000000000000000       0x14 ./emlib/em_rtcc.o
 .text          0x0000000000000000        0x0 ./emlib/em_system.o
 .data          0x0000000000000000        0x0 ./emlib/em_system.o
 .bss           0x0000000000000000        0x0 ./emlib/em_system.o
 .text.SYSTEM_GetCalibrationValue
                0x0000000000000000       0x2c ./emlib/em_system.o
 .text          0x0000000000000000        0x0 ./emlib/em_usart.o
 .data          0x0000000000000000        0x0 ./emlib/em_usart.o
 .bss           0x0000000000000000        0x0 ./emlib/em_usart.o
 .text.USARTn_InitIrDA
                0x0000000000000000       0x48 ./emlib/em_usart.o
 .text.USART_InitI2s
                0x0000000000000000       0x5c ./emlib/em_usart.o
 .text.USART_InitPrsTrigger
                0x0000000000000000       0x2c ./emlib/em_usart.o
 .text.USART_Rx
                0x0000000000000000        0xc ./emlib/em_usart.o
 .text.USART_RxDouble
                0x0000000000000000        0xc ./emlib/em_usart.o
 .text.USART_RxDoubleExt
                0x0000000000000000        0xc ./emlib/em_usart.o
 .text.USART_RxExt
                0x0000000000000000        0xc ./emlib/em_usart.o
 .text.USART_TxDoubleExt
                0x0000000000000000        0xc ./emlib/em_usart.o
 .text.USART_TxExt
                0x0000000000000000        0xc ./emlib/em_usart.o
 .text          0x0000000000000000        0x0 ./glib/BRD4100A/bmp.o
 .data          0x0000000000000000        0x0 ./glib/BRD4100A/bmp.o
 .bss           0x0000000000000000        0x0 ./glib/BRD4100A/bmp.o
 .text.BMP_readRawData8bit
                0x0000000000000000       0x7c ./glib/BRD4100A/bmp.o
 .text.unlikely.BMP_readPaddingBytes.part.0
                0x0000000000000000       0x28 ./glib/BRD4100A/bmp.o
 .text.unlikely.BMP_readRleData.isra.1
                0x0000000000000000       0x9c ./glib/BRD4100A/bmp.o
 .text.BMP_init
                0x0000000000000000       0x44 ./glib/BRD4100A/bmp.o
 .text.BMP_reset
                0x0000000000000000      0x104 ./glib/BRD4100A/bmp.o
 .text.BMP_readRawData
                0x0000000000000000      0x290 ./glib/BRD4100A/bmp.o
 .text.BMP_readRgbData
                0x0000000000000000      0x384 ./glib/BRD4100A/bmp.o
 .text.BMP_getWidth
                0x0000000000000000       0x28 ./glib/BRD4100A/bmp.o
 .text.BMP_getHeight
                0x0000000000000000       0x28 ./glib/BRD4100A/bmp.o
 .text.BMP_getBitsPerPixel
                0x0000000000000000       0x28 ./glib/BRD4100A/bmp.o
 .text.BMP_getCompressionType
                0x0000000000000000       0x28 ./glib/BRD4100A/bmp.o
 .text.BMP_getImageDataSize
                0x0000000000000000       0x28 ./glib/BRD4100A/bmp.o
 .text.BMP_getDataOffset
                0x0000000000000000       0x28 ./glib/BRD4100A/bmp.o
 .text.BMP_getFileSize
                0x0000000000000000       0x28 ./glib/BRD4100A/bmp.o
 .bss.fileReset
                0x0000000000000000        0x4 ./glib/BRD4100A/bmp.o
 .bss.localCache
                0x0000000000000000       0x80 ./glib/BRD4100A/bmp.o
 .bss.dataIdx   0x0000000000000000        0x4 ./glib/BRD4100A/bmp.o
 .bss.moduleInit
                0x0000000000000000        0x4 ./glib/BRD4100A/bmp.o
 .bss.bytesInImage
                0x0000000000000000        0x4 ./glib/BRD4100A/bmp.o
 .bss.paletteRead
                0x0000000000000000        0x4 ./glib/BRD4100A/bmp.o
 .debug_info    0x0000000000000000      0xcc5 ./glib/BRD4100A/bmp.o
 .debug_abbrev  0x0000000000000000      0x2d6 ./glib/BRD4100A/bmp.o
 .debug_loc     0x0000000000000000      0xf59 ./glib/BRD4100A/bmp.o
 .debug_aranges
                0x0000000000000000       0x88 ./glib/BRD4100A/bmp.o
 .debug_ranges  0x0000000000000000      0x140 ./glib/BRD4100A/bmp.o
 .debug_line    0x0000000000000000      0x5fc ./glib/BRD4100A/bmp.o
 .debug_str     0x0000000000000000      0x5cf ./glib/BRD4100A/bmp.o
 .comment       0x0000000000000000       0x71 ./glib/BRD4100A/bmp.o
 .debug_frame   0x0000000000000000      0x190 ./glib/BRD4100A/bmp.o
 .ARM.attributes
                0x0000000000000000       0x37 ./glib/BRD4100A/bmp.o
 COMMON         0x0000000000000000       0x50 ./glib/BRD4100A/bmp.o
 .text          0x0000000000000000        0x0 ./glib/BRD4100A/dmd_display.o
 .data          0x0000000000000000        0x0 ./glib/BRD4100A/dmd_display.o
 .bss           0x0000000000000000        0x0 ./glib/BRD4100A/dmd_display.o
 .text.DMD_writeData
                0x0000000000000000      0x180 ./glib/BRD4100A/dmd_display.o
 .text.DMD_readData
                0x0000000000000000        0x4 ./glib/BRD4100A/dmd_display.o
 .text.DMD_sleep
                0x0000000000000000        0xc ./glib/BRD4100A/dmd_display.o
 .text.DMD_wakeUp
                0x0000000000000000        0xc ./glib/BRD4100A/dmd_display.o
 .text.DMD_flipDisplay
                0x0000000000000000        0x4 ./glib/BRD4100A/dmd_display.o
 .text.DMD_freeFramebuffer
                0x0000000000000000       0x10 ./glib/BRD4100A/dmd_display.o
 .text.DMD_selectFramebuffer
                0x0000000000000000       0x24 ./glib/BRD4100A/dmd_display.o
 .text.DMD_copyFramebuffer
                0x0000000000000000       0x38 ./glib/BRD4100A/dmd_display.o
 .text          0x0000000000000000        0x0 ./glib/BRD4100A/glib.o
 .data          0x0000000000000000        0x0 ./glib/BRD4100A/glib.o
 .bss           0x0000000000000000        0x0 ./glib/BRD4100A/glib.o
 .text.GLIB_displayWakeUp
                0x0000000000000000        0x4 ./glib/BRD4100A/glib.o
 .text.GLIB_displaySleep
                0x0000000000000000        0x4 ./glib/BRD4100A/glib.o
 .text.GLIB_setClippingRegion
                0x0000000000000000        0xc ./glib/BRD4100A/glib.o
 .text.GLIB_clearRegion
                0x0000000000000000       0x44 ./glib/BRD4100A/glib.o
 .text.GLIB_resetDisplayClippingArea
                0x0000000000000000       0x14 ./glib/BRD4100A/glib.o
 .text.GLIB_resetClippingRegion
                0x0000000000000000       0x20 ./glib/BRD4100A/glib.o
 .text.GLIB_applyClippingRegion
                0x0000000000000000        0xc ./glib/BRD4100A/glib.o
 .text.GLIB_colorTranslate24bpp
                0x0000000000000000       0x10 ./glib/BRD4100A/glib.o
 .text.GLIB_rgbColor
                0x0000000000000000        0xc ./glib/BRD4100A/glib.o
 .text.GLIB_drawPixelRGB
                0x0000000000000000       0x44 ./glib/BRD4100A/glib.o
 .text          0x0000000000000000        0x0 ./glib/BRD4100A/glib_bitmap.o
 .data          0x0000000000000000        0x0 ./glib/BRD4100A/glib_bitmap.o
 .bss           0x0000000000000000        0x0 ./glib/BRD4100A/glib_bitmap.o
 .text.GLIB_drawBitmap
                0x0000000000000000       0x34 ./glib/BRD4100A/glib_bitmap.o
 .debug_info    0x0000000000000000      0x42f ./glib/BRD4100A/glib_bitmap.o
 .debug_abbrev  0x0000000000000000      0x150 ./glib/BRD4100A/glib_bitmap.o
 .debug_loc     0x0000000000000000      0x147 ./glib/BRD4100A/glib_bitmap.o
 .debug_aranges
                0x0000000000000000       0x20 ./glib/BRD4100A/glib_bitmap.o
 .debug_ranges  0x0000000000000000       0x10 ./glib/BRD4100A/glib_bitmap.o
 .debug_line    0x0000000000000000      0x2db ./glib/BRD4100A/glib_bitmap.o
 .debug_str     0x0000000000000000      0x492 ./glib/BRD4100A/glib_bitmap.o
 .comment       0x0000000000000000       0x71 ./glib/BRD4100A/glib_bitmap.o
 .debug_frame   0x0000000000000000       0x38 ./glib/BRD4100A/glib_bitmap.o
 .ARM.attributes
                0x0000000000000000       0x37 ./glib/BRD4100A/glib_bitmap.o
 .text          0x0000000000000000        0x0 ./glib/BRD4100A/glib_circle.o
 .data          0x0000000000000000        0x0 ./glib/BRD4100A/glib_circle.o
 .bss           0x0000000000000000        0x0 ./glib/BRD4100A/glib_circle.o
 .text.GLIB_drawPartialCirclePoints
                0x0000000000000000       0x84 ./glib/BRD4100A/glib_circle.o
 .text.GLIB_drawPartialCircle
                0x0000000000000000       0x90 ./glib/BRD4100A/glib_circle.o
 .text.GLIB_drawCircle
                0x0000000000000000       0x10 ./glib/BRD4100A/glib_circle.o
 .text.GLIB_drawCircleFilled
                0x0000000000000000       0xd8 ./glib/BRD4100A/glib_circle.o
 .debug_info    0x0000000000000000      0x706 ./glib/BRD4100A/glib_circle.o
 .debug_abbrev  0x0000000000000000      0x195 ./glib/BRD4100A/glib_circle.o
 .debug_loc     0x0000000000000000      0x7de ./glib/BRD4100A/glib_circle.o
 .debug_aranges
                0x0000000000000000       0x38 ./glib/BRD4100A/glib_circle.o
 .debug_ranges  0x0000000000000000       0x28 ./glib/BRD4100A/glib_circle.o
 .debug_line    0x0000000000000000      0x3c1 ./glib/BRD4100A/glib_circle.o
 .debug_str     0x0000000000000000      0x4e9 ./glib/BRD4100A/glib_circle.o
 .comment       0x0000000000000000       0x71 ./glib/BRD4100A/glib_circle.o
 .debug_frame   0x0000000000000000       0xe0 ./glib/BRD4100A/glib_circle.o
 .ARM.attributes
                0x0000000000000000       0x37 ./glib/BRD4100A/glib_circle.o
 .text          0x0000000000000000        0x0 ./glib/BRD4100A/glib_font_narrow_6x8.o
 .data          0x0000000000000000        0x0 ./glib/BRD4100A/glib_font_narrow_6x8.o
 .bss           0x0000000000000000        0x0 ./glib/BRD4100A/glib_font_narrow_6x8.o
 .text          0x0000000000000000        0x0 ./glib/BRD4100A/glib_font_normal_8x8.o
 .data          0x0000000000000000        0x0 ./glib/BRD4100A/glib_font_normal_8x8.o
 .bss           0x0000000000000000        0x0 ./glib/BRD4100A/glib_font_normal_8x8.o
 .text          0x0000000000000000        0x0 ./glib/BRD4100A/glib_font_number_16x20.o
 .data          0x0000000000000000        0x0 ./glib/BRD4100A/glib_font_number_16x20.o
 .bss           0x0000000000000000        0x0 ./glib/BRD4100A/glib_font_number_16x20.o
 .rodata.GLIB_FontNumber16x20
                0x0000000000000000       0x10 ./glib/BRD4100A/glib_font_number_16x20.o
 .rodata.GLIB_FontNumber16x20PixMap
                0x0000000000000000      0x1e0 ./glib/BRD4100A/glib_font_number_16x20.o
 .debug_info    0x0000000000000000      0x199 ./glib/BRD4100A/glib_font_number_16x20.o
 .debug_abbrev  0x0000000000000000       0xa7 ./glib/BRD4100A/glib_font_number_16x20.o
 .debug_aranges
                0x0000000000000000       0x18 ./glib/BRD4100A/glib_font_number_16x20.o
 .debug_line    0x0000000000000000      0x1cd ./glib/BRD4100A/glib_font_number_16x20.o
 .debug_str     0x0000000000000000      0x330 ./glib/BRD4100A/glib_font_number_16x20.o
 .comment       0x0000000000000000       0x71 ./glib/BRD4100A/glib_font_number_16x20.o
 .ARM.attributes
                0x0000000000000000       0x37 ./glib/BRD4100A/glib_font_number_16x20.o
 .text          0x0000000000000000        0x0 ./glib/BRD4100A/glib_line.o
 .data          0x0000000000000000        0x0 ./glib/BRD4100A/glib_line.o
 .bss           0x0000000000000000        0x0 ./glib/BRD4100A/glib_line.o
 .text.GLIB_drawLineH
                0x0000000000000000       0x90 ./glib/BRD4100A/glib_line.o
 .text.GLIB_drawLineV
                0x0000000000000000       0x94 ./glib/BRD4100A/glib_line.o
 .text.GLIB_drawLine
                0x0000000000000000      0x294 ./glib/BRD4100A/glib_line.o
 .debug_info    0x0000000000000000      0xa29 ./glib/BRD4100A/glib_line.o
 .debug_abbrev  0x0000000000000000      0x272 ./glib/BRD4100A/glib_line.o
 .debug_loc     0x0000000000000000     0x3e73 ./glib/BRD4100A/glib_line.o
 .debug_aranges
                0x0000000000000000       0x30 ./glib/BRD4100A/glib_line.o
 .debug_ranges  0x0000000000000000      0x100 ./glib/BRD4100A/glib_line.o
 .debug_line    0x0000000000000000      0x48f ./glib/BRD4100A/glib_line.o
 .debug_str     0x0000000000000000      0x54d ./glib/BRD4100A/glib_line.o
 .comment       0x0000000000000000       0x71 ./glib/BRD4100A/glib_line.o
 .debug_frame   0x0000000000000000       0xc0 ./glib/BRD4100A/glib_line.o
 .ARM.attributes
                0x0000000000000000       0x37 ./glib/BRD4100A/glib_line.o
 .text          0x0000000000000000        0x0 ./glib/BRD4100A/glib_polygon.o
 .data          0x0000000000000000        0x0 ./glib/BRD4100A/glib_polygon.o
 .bss           0x0000000000000000        0x0 ./glib/BRD4100A/glib_polygon.o
 .text.GLIB_drawPolygon
                0x0000000000000000       0x88 ./glib/BRD4100A/glib_polygon.o
 .debug_info    0x0000000000000000      0x429 ./glib/BRD4100A/glib_polygon.o
 .debug_abbrev  0x0000000000000000      0x127 ./glib/BRD4100A/glib_polygon.o
 .debug_loc     0x0000000000000000      0x220 ./glib/BRD4100A/glib_polygon.o
 .debug_aranges
                0x0000000000000000       0x20 ./glib/BRD4100A/glib_polygon.o
 .debug_ranges  0x0000000000000000       0x10 ./glib/BRD4100A/glib_polygon.o
 .debug_line    0x0000000000000000      0x328 ./glib/BRD4100A/glib_polygon.o
 .debug_str     0x0000000000000000      0x4a1 ./glib/BRD4100A/glib_polygon.o
 .comment       0x0000000000000000       0x71 ./glib/BRD4100A/glib_polygon.o
 .debug_frame   0x0000000000000000       0x48 ./glib/BRD4100A/glib_polygon.o
 .ARM.attributes
                0x0000000000000000       0x37 ./glib/BRD4100A/glib_polygon.o
 .text          0x0000000000000000        0x0 ./glib/BRD4100A/glib_rectangle.o
 .data          0x0000000000000000        0x0 ./glib/BRD4100A/glib_rectangle.o
 .bss           0x0000000000000000        0x0 ./glib/BRD4100A/glib_rectangle.o
 .text.GLIB_normalizeRect
                0x0000000000000000       0x1c ./glib/BRD4100A/glib_rectangle.o
 .text.GLIB_drawRect
                0x0000000000000000       0x9c ./glib/BRD4100A/glib_rectangle.o
 .text.GLIB_drawRectFilled
                0x0000000000000000       0xa8 ./glib/BRD4100A/glib_rectangle.o
 .text          0x0000000000000000        0x0 ./glib/BRD4100A/glib_string.o
 .data          0x0000000000000000        0x0 ./glib/BRD4100A/glib_string.o
 .bss           0x0000000000000000        0x0 ./glib/BRD4100A/glib_string.o
 .text.GLIB_drawChar
                0x0000000000000000       0x24 ./glib/BRD4100A/glib_string.o
 .text          0x0000000000000000        0x0 ./kit/BRD4100A/bsp_bcc.o
 .data          0x0000000000000000        0x0 ./kit/BRD4100A/bsp_bcc.o
 .bss           0x0000000000000000        0x0 ./kit/BRD4100A/bsp_bcc.o
 .text.BSP_BccPinsEnable.part.0
                0x0000000000000000       0x40 ./kit/BRD4100A/bsp_bcc.o
 .text.BSP_BccInit
                0x0000000000000000       0x68 ./kit/BRD4100A/bsp_bcc.o
 .text.BSP_BccPacketReceive
                0x0000000000000000       0x9c ./kit/BRD4100A/bsp_bcc.o
 .text.BSP_BccPacketSend
                0x0000000000000000       0x80 ./kit/BRD4100A/bsp_bcc.o
 .text.BSP_BccPinsEnable
                0x0000000000000000       0x40 ./kit/BRD4100A/bsp_bcc.o
 .text.BSP_BccDeInit
                0x0000000000000000       0x38 ./kit/BRD4100A/bsp_bcc.o
 .rodata        0x0000000000000000       0x28 ./kit/BRD4100A/bsp_bcc.o
 .bss.rxByteCount
                0x0000000000000000        0x4 ./kit/BRD4100A/bsp_bcc.o
 .bss.txByteCount
                0x0000000000000000        0x4 ./kit/BRD4100A/bsp_bcc.o
 .debug_info    0x0000000000000000      0xc2e ./kit/BRD4100A/bsp_bcc.o
 .debug_abbrev  0x0000000000000000      0x28e ./kit/BRD4100A/bsp_bcc.o
 .debug_loc     0x0000000000000000      0x3c2 ./kit/BRD4100A/bsp_bcc.o
 .debug_aranges
                0x0000000000000000       0x48 ./kit/BRD4100A/bsp_bcc.o
 .debug_ranges  0x0000000000000000      0x110 ./kit/BRD4100A/bsp_bcc.o
 .debug_line    0x0000000000000000      0x53d ./kit/BRD4100A/bsp_bcc.o
 .debug_str     0x0000000000000000      0xb1a ./kit/BRD4100A/bsp_bcc.o
 .comment       0x0000000000000000       0x71 ./kit/BRD4100A/bsp_bcc.o
 .debug_frame   0x0000000000000000       0xc0 ./kit/BRD4100A/bsp_bcc.o
 .ARM.attributes
                0x0000000000000000       0x37 ./kit/BRD4100A/bsp_bcc.o
 .text          0x0000000000000000        0x0 ./kit/BRD4100A/bsp_stk.o
 .data          0x0000000000000000        0x0 ./kit/BRD4100A/bsp_stk.o
 .bss           0x0000000000000000        0x0 ./kit/BRD4100A/bsp_stk.o
 .text.BSP_Disable
                0x0000000000000000        0xc ./kit/BRD4100A/bsp_stk.o
 .text.BSP_EbiInit
                0x0000000000000000        0x8 ./kit/BRD4100A/bsp_stk.o
 .text.BSP_EbiDeInit
                0x0000000000000000        0x8 ./kit/BRD4100A/bsp_stk.o
 .text.BSP_IOExpGetDeviceId
                0x0000000000000000        0x4 ./kit/BRD4100A/bsp_stk.o
 .text.BSP_Init
                0x0000000000000000       0x14 ./kit/BRD4100A/bsp_stk.o
 .text.BSP_PeripheralAccess
                0x0000000000000000        0x8 ./kit/BRD4100A/bsp_stk.o
 .text.BSP_CurrentGet
                0x0000000000000000       0x30 ./kit/BRD4100A/bsp_stk.o
 .text.BSP_VoltageGet
                0x0000000000000000       0x30 ./kit/BRD4100A/bsp_stk.o
 .debug_info    0x0000000000000000      0x37b ./kit/BRD4100A/bsp_stk.o
 .debug_abbrev  0x0000000000000000      0x1da ./kit/BRD4100A/bsp_stk.o
 .debug_loc     0x0000000000000000      0x10d ./kit/BRD4100A/bsp_stk.o
 .debug_aranges
                0x0000000000000000       0x58 ./kit/BRD4100A/bsp_stk.o
 .debug_ranges  0x0000000000000000       0x48 ./kit/BRD4100A/bsp_stk.o
 .debug_line    0x0000000000000000      0x35d ./kit/BRD4100A/bsp_stk.o
 .debug_str     0x0000000000000000      0x3ad ./kit/BRD4100A/bsp_stk.o
 .comment       0x0000000000000000       0x71 ./kit/BRD4100A/bsp_stk.o
 .debug_frame   0x0000000000000000       0xb8 ./kit/BRD4100A/bsp_stk.o
 .ARM.attributes
                0x0000000000000000       0x37 ./kit/BRD4100A/bsp_stk.o
 .text          0x0000000000000000        0x0 ./kit/BRD4100A/bsp_stk_leds.o
 .data          0x0000000000000000        0x0 ./kit/BRD4100A/bsp_stk_leds.o
 .bss           0x0000000000000000        0x0 ./kit/BRD4100A/bsp_stk_leds.o
 .text.BSP_LedsInit
                0x0000000000000000       0x38 ./kit/BRD4100A/bsp_stk_leds.o
 .text.BSP_LedsGet
                0x0000000000000000       0x20 ./kit/BRD4100A/bsp_stk_leds.o
 .text.BSP_LedsSet
                0x0000000000000000       0x2c ./kit/BRD4100A/bsp_stk_leds.o
 .text.BSP_LedGet
                0x0000000000000000       0x30 ./kit/BRD4100A/bsp_stk_leds.o
 .text.BSP_LedToggle
                0x0000000000000000       0x34 ./kit/BRD4100A/bsp_stk_leds.o
 .text          0x0000000000000000        0x0 ./kit/BRD4100A/i2cspm.o
 .data          0x0000000000000000        0x0 ./kit/BRD4100A/i2cspm.o
 .bss           0x0000000000000000        0x0 ./kit/BRD4100A/i2cspm.o
 .text.I2CSPM_Init
                0x0000000000000000       0xa4 ./kit/BRD4100A/i2cspm.o
 .text          0x0000000000000000        0x0 ./kit/BRD4100A/si7013.o
 .data          0x0000000000000000        0x0 ./kit/BRD4100A/si7013.o
 .bss           0x0000000000000000        0x0 ./kit/BRD4100A/si7013.o
 .text.Si7013_Measure
                0x0000000000000000       0x54 ./kit/BRD4100A/si7013.o
 .text.Si7013_WriteUserReg2
                0x0000000000000000       0x38 ./kit/BRD4100A/si7013.o
 .text.Si7013_GetFirmwareRevision
                0x0000000000000000       0x58 ./kit/BRD4100A/si7013.o
 .text.Si7013_StartNoHoldMeasureRHAndTemp
                0x0000000000000000       0x30 ./kit/BRD4100A/si7013.o
 .text.Si7013_ReadNoHoldRHAndTemp
                0x0000000000000000       0x94 ./kit/BRD4100A/si7013.o
 .text.Si7013_MeasureRHAndTemp
                0x0000000000000000       0x58 ./kit/BRD4100A/si7013.o
 .text.Si7013_MeasureV
                0x0000000000000000       0x30 ./kit/BRD4100A/si7013.o
 .text          0x0000000000000000        0x0 ./kit/BRD4100A/tempsens.o
 .data          0x0000000000000000        0x0 ./kit/BRD4100A/tempsens.o
 .bss           0x0000000000000000        0x0 ./kit/BRD4100A/tempsens.o
 .text.TEMPSENS_Celsius2Fahrenheit
                0x0000000000000000       0x48 ./kit/BRD4100A/tempsens.o
 .text.TEMPSENS_RegisterGet
                0x0000000000000000       0x5c ./kit/BRD4100A/tempsens.o
 .text.TEMPSENS_RegisterSet
                0x0000000000000000       0x54 ./kit/BRD4100A/tempsens.o
 .text.TEMPSENS_TemperatureGet
                0x0000000000000000       0x68 ./kit/BRD4100A/tempsens.o
 .debug_info    0x0000000000000000      0x5ba ./kit/BRD4100A/tempsens.o
 .debug_abbrev  0x0000000000000000      0x1d6 ./kit/BRD4100A/tempsens.o
 .debug_loc     0x0000000000000000      0x49e ./kit/BRD4100A/tempsens.o
 .debug_aranges
                0x0000000000000000       0x38 ./kit/BRD4100A/tempsens.o
 .debug_ranges  0x0000000000000000       0x28 ./kit/BRD4100A/tempsens.o
 .debug_line    0x0000000000000000      0x40e ./kit/BRD4100A/tempsens.o
 .debug_str     0x0000000000000000      0x4a4 ./kit/BRD4100A/tempsens.o
 .comment       0x0000000000000000       0x71 ./kit/BRD4100A/tempsens.o
 .debug_frame   0x0000000000000000       0xa8 ./kit/BRD4100A/tempsens.o
 .ARM.attributes
                0x0000000000000000       0x37 ./kit/BRD4100A/tempsens.o
 .text          0x0000000000000000        0x0 ./kit/BRD4100A/udelay.o
 .data          0x0000000000000000        0x0 ./kit/BRD4100A/udelay.o
 .bss           0x0000000000000000        0x0 ./kit/BRD4100A/udelay.o
 .text          0x0000000000000000        0x0 ./kit_flashpwr/BRD4100A/mx25flash_spi.o
 .data          0x0000000000000000        0x0 ./kit_flashpwr/BRD4100A/mx25flash_spi.o
 .bss           0x0000000000000000        0x0 ./kit_flashpwr/BRD4100A/mx25flash_spi.o
 .text.GetByte.part.0
                0x0000000000000000        0xc ./kit_flashpwr/BRD4100A/mx25flash_spi.o
 .text.Wait_Flash_WarmUp
                0x0000000000000000       0x20 ./kit_flashpwr/BRD4100A/mx25flash_spi.o
 .text.Initial_Spi
                0x0000000000000000       0x20 ./kit_flashpwr/BRD4100A/mx25flash_spi.o
 .text.CS_Low   0x0000000000000000        0xc ./kit_flashpwr/BRD4100A/mx25flash_spi.o
 .text.CS_High  0x0000000000000000        0xc ./kit_flashpwr/BRD4100A/mx25flash_spi.o
 .text.InsertDummyCycle
                0x0000000000000000       0x1c ./kit_flashpwr/BRD4100A/mx25flash_spi.o
 .text.SendByte
                0x0000000000000000       0x10 ./kit_flashpwr/BRD4100A/mx25flash_spi.o
 .text.GetByte  0x0000000000000000        0xc ./kit_flashpwr/BRD4100A/mx25flash_spi.o
 .text.WaitRYBYReady
                0x0000000000000000       0x10 ./kit_flashpwr/BRD4100A/mx25flash_spi.o
 .text.SendFlashAddr
                0x0000000000000000       0x40 ./kit_flashpwr/BRD4100A/mx25flash_spi.o
 .text.MX25_RDID
                0x0000000000000000       0x40 ./kit_flashpwr/BRD4100A/mx25flash_spi.o
 .text.MX25_RES
                0x0000000000000000       0x44 ./kit_flashpwr/BRD4100A/mx25flash_spi.o
 .text.MX25_REMS
                0x0000000000000000       0x54 ./kit_flashpwr/BRD4100A/mx25flash_spi.o
 .text.MX25_RDSR
                0x0000000000000000       0x28 ./kit_flashpwr/BRD4100A/mx25flash_spi.o
 .text.IsFlashBusy
                0x0000000000000000       0x1c ./kit_flashpwr/BRD4100A/mx25flash_spi.o
 .text.WaitFlashReady
                0x0000000000000000       0x34 ./kit_flashpwr/BRD4100A/mx25flash_spi.o
 .text.IsFlashQIO
                0x0000000000000000       0x1c ./kit_flashpwr/BRD4100A/mx25flash_spi.o
 .text.MX25_WRSR
                0x0000000000000000       0x60 ./kit_flashpwr/BRD4100A/mx25flash_spi.o
 .text.MX25_RDSCUR
                0x0000000000000000       0x28 ./kit_flashpwr/BRD4100A/mx25flash_spi.o
 .text.IsFlash4Byte
                0x0000000000000000       0x1c ./kit_flashpwr/BRD4100A/mx25flash_spi.o
 .text.MX25_WRSCUR
                0x0000000000000000       0x68 ./kit_flashpwr/BRD4100A/mx25flash_spi.o
 .text.MX25_RDCR
                0x0000000000000000       0x28 ./kit_flashpwr/BRD4100A/mx25flash_spi.o
 .text.GetDummyCycle
                0x0000000000000000       0x14 ./kit_flashpwr/BRD4100A/mx25flash_spi.o
 .text.MX25_READ
                0x0000000000000000       0x68 ./kit_flashpwr/BRD4100A/mx25flash_spi.o
 .text.MX25_2READ
                0x0000000000000000       0x6c ./kit_flashpwr/BRD4100A/mx25flash_spi.o
 .text.MX25_4READ
                0x0000000000000000       0x80 ./kit_flashpwr/BRD4100A/mx25flash_spi.o
 .text.MX25_DREAD
                0x0000000000000000       0x74 ./kit_flashpwr/BRD4100A/mx25flash_spi.o
 .text.MX25_QREAD
                0x0000000000000000       0x88 ./kit_flashpwr/BRD4100A/mx25flash_spi.o
 .text.MX25_FASTREAD
                0x0000000000000000       0x78 ./kit_flashpwr/BRD4100A/mx25flash_spi.o
 .text.MX25_RDSFDP
                0x0000000000000000       0x70 ./kit_flashpwr/BRD4100A/mx25flash_spi.o
 .text.MX25_WREN
                0x0000000000000000       0x20 ./kit_flashpwr/BRD4100A/mx25flash_spi.o
 .text.MX25_WRDI
                0x0000000000000000       0x20 ./kit_flashpwr/BRD4100A/mx25flash_spi.o
 .text.MX25_PP  0x0000000000000000       0xa0 ./kit_flashpwr/BRD4100A/mx25flash_spi.o
 .text.MX25_4PP
                0x0000000000000000       0x9c ./kit_flashpwr/BRD4100A/mx25flash_spi.o
 .text.MX25_SE  0x0000000000000000       0x84 ./kit_flashpwr/BRD4100A/mx25flash_spi.o
 .text.MX25_BE32K
                0x0000000000000000       0x84 ./kit_flashpwr/BRD4100A/mx25flash_spi.o
 .text.MX25_BE  0x0000000000000000       0x84 ./kit_flashpwr/BRD4100A/mx25flash_spi.o
 .text.MX25_CE  0x0000000000000000       0x58 ./kit_flashpwr/BRD4100A/mx25flash_spi.o
 .text.MX25_ENSO
                0x0000000000000000       0x20 ./kit_flashpwr/BRD4100A/mx25flash_spi.o
 .text.MX25_EXSO
                0x0000000000000000       0x20 ./kit_flashpwr/BRD4100A/mx25flash_spi.o
 .text.MX25_SBL
                0x0000000000000000       0x2c ./kit_flashpwr/BRD4100A/mx25flash_spi.o
 .text.MX25_RSTEN
                0x0000000000000000       0x20 ./kit_flashpwr/BRD4100A/mx25flash_spi.o
 .text.MX25_RST
                0x0000000000000000       0x28 ./kit_flashpwr/BRD4100A/mx25flash_spi.o
 .text.MX25_PGM_ERS_S
                0x0000000000000000       0x20 ./kit_flashpwr/BRD4100A/mx25flash_spi.o
 .text.MX25_PGM_ERS_R
                0x0000000000000000       0x20 ./kit_flashpwr/BRD4100A/mx25flash_spi.o
 .text.MX25_NOP
                0x0000000000000000       0x20 ./kit_flashpwr/BRD4100A/mx25flash_spi.o
 .text          0x0000000000000000        0x0 ./kit_lcd/BRD4100A/display.o
 .data          0x0000000000000000        0x0 ./kit_lcd/BRD4100A/display.o
 .bss           0x0000000000000000        0x0 ./kit_lcd/BRD4100A/display.o
 .text.DISPLAY_DriverRefresh
                0x0000000000000000       0x34 ./kit_lcd/BRD4100A/display.o
 .text          0x0000000000000000        0x0 ./kit_lcd/BRD4100A/displayls013b7dh03.o
 .data          0x0000000000000000        0x0 ./kit_lcd/BRD4100A/displayls013b7dh03.o
 .bss           0x0000000000000000        0x0 ./kit_lcd/BRD4100A/displayls013b7dh03.o
 .text          0x0000000000000000        0x0 ./kit_lcd/BRD4100A/displaypalemlib.o
 .data          0x0000000000000000        0x0 ./kit_lcd/BRD4100A/displaypalemlib.o
 .bss           0x0000000000000000        0x0 ./kit_lcd/BRD4100A/displaypalemlib.o
 .text.PAL_SpiShutdown
                0x0000000000000000       0x20 ./kit_lcd/BRD4100A/displaypalemlib.o
 .text.PAL_TimerShutdown
                0x0000000000000000        0x4 ./kit_lcd/BRD4100A/displaypalemlib.o
 .text.PAL_GpioShutdown
                0x0000000000000000       0x14 ./kit_lcd/BRD4100A/displaypalemlib.o
 .text          0x0000000000000000        0x0 ./src/InitDevice.o
 .data          0x0000000000000000        0x0 ./src/InitDevice.o
 .bss           0x0000000000000000        0x0 ./src/InitDevice.o
 .text.LFXO_enter_DefaultMode_from_RESET
                0x0000000000000000        0x4 ./src/InitDevice.o
 .text.ADC0_enter_DefaultMode_from_RESET
                0x0000000000000000        0x4 ./src/InitDevice.o
 .text.ACMP0_enter_DefaultMode_from_RESET
                0x0000000000000000        0x4 ./src/InitDevice.o
 .text.ACMP1_enter_DefaultMode_from_RESET
                0x0000000000000000        0x4 ./src/InitDevice.o
 .text.IDAC0_enter_DefaultMode_from_RESET
                0x0000000000000000        0x4 ./src/InitDevice.o
 .text.USART0_enter_DefaultMode_from_RESET
                0x0000000000000000        0x4 ./src/InitDevice.o
 .text.USART1_enter_DefaultMode_from_RESET
                0x0000000000000000        0x4 ./src/InitDevice.o
 .text.LEUART0_enter_DefaultMode_from_RESET
                0x0000000000000000        0x4 ./src/InitDevice.o
 .text.WDOG0_enter_DefaultMode_from_RESET
                0x0000000000000000        0x4 ./src/InitDevice.o
 .text.GPCRC_enter_DefaultMode_from_RESET
                0x0000000000000000        0x4 ./src/InitDevice.o
 .text.LDMA_enter_DefaultMode_from_RESET
                0x0000000000000000        0x4 ./src/InitDevice.o
 .text.TIMER0_enter_DefaultMode_from_RESET
                0x0000000000000000        0x4 ./src/InitDevice.o
 .text.TIMER1_enter_DefaultMode_from_RESET
                0x0000000000000000        0x4 ./src/InitDevice.o
 .text.LETIMER0_enter_DefaultMode_from_RESET
                0x0000000000000000        0x4 ./src/InitDevice.o
 .text.CRYOTIMER_enter_DefaultMode_from_RESET
                0x0000000000000000        0x4 ./src/InitDevice.o
 .text.PCNT0_enter_DefaultMode_from_RESET
                0x0000000000000000        0x4 ./src/InitDevice.o
 .text.PRS_enter_DefaultMode_from_RESET
                0x0000000000000000       0x10 ./src/InitDevice.o
 .data          0x0000000000000000        0x0 /Applications/Simplicity Studio.app/Contents/Eclipse/developer/sdks/gecko_sdk_suite/v1.0//protocol/bluetooth_2.3/lib/EFR32BG1P/GCC/bgapi.a(gecko_bgapi_hardware.c.obj)
 .bss           0x0000000000000000        0x0 /Applications/Simplicity Studio.app/Contents/Eclipse/developer/sdks/gecko_sdk_suite/v1.0//protocol/bluetooth_2.3/lib/EFR32BG1P/GCC/bgapi.a(gecko_bgapi_hardware.c.obj)
 .data          0x0000000000000000        0x0 /Applications/Simplicity Studio.app/Contents/Eclipse/developer/sdks/gecko_sdk_suite/v1.0//protocol/bluetooth_2.3/lib/EFR32BG1P/GCC/bgapi.a(gecko_bgapi_test.c.obj)
 .bss           0x0000000000000000        0x0 /Applications/Simplicity Studio.app/Contents/Eclipse/developer/sdks/gecko_sdk_suite/v1.0//protocol/bluetooth_2.3/lib/EFR32BG1P/GCC/bgapi.a(gecko_bgapi_test.c.obj)
 .data          0x0000000000000000        0x0 /Applications/Simplicity Studio.app/Contents/Eclipse/developer/sdks/gecko_sdk_suite/v1.0//protocol/bluetooth_2.3/lib/EFR32BG1P/GCC/bgapi.a(gecko_bgapi_util.c.obj)
 .bss           0x0000000000000000        0x0 /Applications/Simplicity Studio.app/Contents/Eclipse/developer/sdks/gecko_sdk_suite/v1.0//protocol/bluetooth_2.3/lib/EFR32BG1P/GCC/bgapi.a(gecko_bgapi_util.c.obj)
 .data          0x0000000000000000        0x0 /Applications/Simplicity Studio.app/Contents/Eclipse/developer/sdks/gecko_sdk_suite/v1.0//protocol/bluetooth_2.3/lib/EFR32BG1P/GCC/bgapi.a(gecko_bgapi_dfu.c.obj)
 .bss           0x0000000000000000        0x0 /Applications/Simplicity Studio.app/Contents/Eclipse/developer/sdks/gecko_sdk_suite/v1.0//protocol/bluetooth_2.3/lib/EFR32BG1P/GCC/bgapi.a(gecko_bgapi_dfu.c.obj)
 .data          0x0000000000000000        0x0 /Applications/Simplicity Studio.app/Contents/Eclipse/developer/sdks/gecko_sdk_suite/v1.0//protocol/bluetooth_2.3/lib/EFR32BG1P/GCC/bgapi.a(gecko_bgapi_gap.c.obj)
 .bss           0x0000000000000000        0x0 /Applications/Simplicity Studio.app/Contents/Eclipse/developer/sdks/gecko_sdk_suite/v1.0//protocol/bluetooth_2.3/lib/EFR32BG1P/GCC/bgapi.a(gecko_bgapi_gap.c.obj)
 .data          0x0000000000000000        0x0 /Applications/Simplicity Studio.app/Contents/Eclipse/developer/sdks/gecko_sdk_suite/v1.0//protocol/bluetooth_2.3/lib/EFR32BG1P/GCC/bgapi.a(gecko_bgapi_gatt.c.obj)
 .bss           0x0000000000000000        0x0 /Applications/Simplicity Studio.app/Contents/Eclipse/developer/sdks/gecko_sdk_suite/v1.0//protocol/bluetooth_2.3/lib/EFR32BG1P/GCC/bgapi.a(gecko_bgapi_gatt.c.obj)
 .data          0x0000000000000000        0x0 /Applications/Simplicity Studio.app/Contents/Eclipse/developer/sdks/gecko_sdk_suite/v1.0//protocol/bluetooth_2.3/lib/EFR32BG1P/GCC/bgapi.a(gecko_bgapi_gatt_server.c.obj)
 .bss           0x0000000000000000        0x0 /Applications/Simplicity Studio.app/Contents/Eclipse/developer/sdks/gecko_sdk_suite/v1.0//protocol/bluetooth_2.3/lib/EFR32BG1P/GCC/bgapi.a(gecko_bgapi_gatt_server.c.obj)
 .data          0x0000000000000000        0x0 /Applications/Simplicity Studio.app/Contents/Eclipse/developer/sdks/gecko_sdk_suite/v1.0//protocol/bluetooth_2.3/lib/EFR32BG1P/GCC/bgapi.a(gecko_bgapi_flash.c.obj)
 .bss           0x0000000000000000        0x0 /Applications/Simplicity Studio.app/Contents/Eclipse/developer/sdks/gecko_sdk_suite/v1.0//protocol/bluetooth_2.3/lib/EFR32BG1P/GCC/bgapi.a(gecko_bgapi_flash.c.obj)
 .data          0x0000000000000000        0x0 /Applications/Simplicity Studio.app/Contents/Eclipse/developer/sdks/gecko_sdk_suite/v1.0//protocol/bluetooth_2.3/lib/EFR32BG1P/GCC/bgapi.a(gecko_bgapi_sm.c.obj)
 .bss           0x0000000000000000        0x0 /Applications/Simplicity Studio.app/Contents/Eclipse/developer/sdks/gecko_sdk_suite/v1.0//protocol/bluetooth_2.3/lib/EFR32BG1P/GCC/bgapi.a(gecko_bgapi_sm.c.obj)
 .data          0x0000000000000000        0x0 /Applications/Simplicity Studio.app/Contents/Eclipse/developer/sdks/gecko_sdk_suite/v1.0//protocol/bluetooth_2.3/lib/EFR32BG1P/GCC/bgapi.a(gecko_bgapi_system.c.obj)
 .bss           0x0000000000000000        0x0 /Applications/Simplicity Studio.app/Contents/Eclipse/developer/sdks/gecko_sdk_suite/v1.0//protocol/bluetooth_2.3/lib/EFR32BG1P/GCC/bgapi.a(gecko_bgapi_system.c.obj)
 .data          0x0000000000000000        0x0 /Applications/Simplicity Studio.app/Contents/Eclipse/developer/sdks/gecko_sdk_suite/v1.0//protocol/bluetooth_2.3/lib/EFR32BG1P/GCC/bgapi.a(gecko_bgapi_endpoint.c.obj)
 .bss           0x0000000000000000        0x0 /Applications/Simplicity Studio.app/Contents/Eclipse/developer/sdks/gecko_sdk_suite/v1.0//protocol/bluetooth_2.3/lib/EFR32BG1P/GCC/bgapi.a(gecko_bgapi_endpoint.c.obj)
 .data          0x0000000000000000        0x0 /Applications/Simplicity Studio.app/Contents/Eclipse/developer/sdks/gecko_sdk_suite/v1.0//protocol/bluetooth_2.3/lib/EFR32BG1P/GCC/bgapi.a(gecko_bgapi_le_connection.c.obj)
 .bss           0x0000000000000000        0x0 /Applications/Simplicity Studio.app/Contents/Eclipse/developer/sdks/gecko_sdk_suite/v1.0//protocol/bluetooth_2.3/lib/EFR32BG1P/GCC/bgapi.a(gecko_bgapi_le_connection.c.obj)
 .data          0x0000000000000000        0x0 /Applications/Simplicity Studio.app/Contents/Eclipse/developer/sdks/gecko_sdk_suite/v1.0//protocol/bluetooth_2.3/lib/EFR32BG1P/GCC/bgapi.a(bgapi_hardware_lib.c.obj)
 .data          0x0000000000000000        0x0 /Applications/Simplicity Studio.app/Contents/Eclipse/developer/sdks/gecko_sdk_suite/v1.0//protocol/bluetooth_2.3/lib/EFR32BG1P/GCC/bgapi.a(bgapi_hardware.c.obj)
 .data          0x0000000000000000        0x0 /Applications/Simplicity Studio.app/Contents/Eclipse/developer/sdks/gecko_sdk_suite/v1.0//protocol/bluetooth_2.3/lib/EFR32BG1P/GCC/bgapi.a(bgapi_test_lib.c.obj)
 .bss           0x0000000000000000        0x0 /Applications/Simplicity Studio.app/Contents/Eclipse/developer/sdks/gecko_sdk_suite/v1.0//protocol/bluetooth_2.3/lib/EFR32BG1P/GCC/bgapi.a(bgapi_test_lib.c.obj)
 .data          0x0000000000000000        0x0 /Applications/Simplicity Studio.app/Contents/Eclipse/developer/sdks/gecko_sdk_suite/v1.0//protocol/bluetooth_2.3/lib/EFR32BG1P/GCC/bgapi.a(bgapi_util.c.obj)
 .data          0x0000000000000000        0x0 /Applications/Simplicity Studio.app/Contents/Eclipse/developer/sdks/gecko_sdk_suite/v1.0//protocol/bluetooth_2.3/lib/EFR32BG1P/GCC/bgapi.a(bgapi_dfu.c.obj)
 .bss           0x0000000000000000        0x0 /Applications/Simplicity Studio.app/Contents/Eclipse/developer/sdks/gecko_sdk_suite/v1.0//protocol/bluetooth_2.3/lib/EFR32BG1P/GCC/bgapi.a(bgapi_dfu.c.obj)
 .data          0x0000000000000000        0x0 /Applications/Simplicity Studio.app/Contents/Eclipse/developer/sdks/gecko_sdk_suite/v1.0//protocol/bluetooth_2.3/lib/EFR32BG1P/GCC/bgapi.a(bgapi_gap.c.obj)
 .data          0x0000000000000000        0x0 /Applications/Simplicity Studio.app/Contents/Eclipse/developer/sdks/gecko_sdk_suite/v1.0//protocol/bluetooth_2.3/lib/EFR32BG1P/GCC/bgapi.a(bgapi_gatt_lib.c.obj)
 .bss           0x0000000000000000        0x0 /Applications/Simplicity Studio.app/Contents/Eclipse/developer/sdks/gecko_sdk_suite/v1.0//protocol/bluetooth_2.3/lib/EFR32BG1P/GCC/bgapi.a(bgapi_gatt_lib.c.obj)
 .data          0x0000000000000000        0x0 /Applications/Simplicity Studio.app/Contents/Eclipse/developer/sdks/gecko_sdk_suite/v1.0//protocol/bluetooth_2.3/lib/EFR32BG1P/GCC/bgapi.a(bgapi_ps.c.obj)
 .bss           0x0000000000000000        0x0 /Applications/Simplicity Studio.app/Contents/Eclipse/developer/sdks/gecko_sdk_suite/v1.0//protocol/bluetooth_2.3/lib/EFR32BG1P/GCC/bgapi.a(bgapi_ps.c.obj)
 .data          0x0000000000000000        0x0 /Applications/Simplicity Studio.app/Contents/Eclipse/developer/sdks/gecko_sdk_suite/v1.0//protocol/bluetooth_2.3/lib/EFR32BG1P/GCC/bgapi.a(bgapi_sm.c.obj)
 .data          0x0000000000000000        0x0 /Applications/Simplicity Studio.app/Contents/Eclipse/developer/sdks/gecko_sdk_suite/v1.0//protocol/bluetooth_2.3/lib/EFR32BG1P/GCC/bgapi.a(bgapi_system.c.obj)
 .bss           0x0000000000000000        0x0 /Applications/Simplicity Studio.app/Contents/Eclipse/developer/sdks/gecko_sdk_suite/v1.0//protocol/bluetooth_2.3/lib/EFR32BG1P/GCC/bgapi.a(bgapi_system.c.obj)
 .data          0x0000000000000000        0x0 /Applications/Simplicity Studio.app/Contents/Eclipse/developer/sdks/gecko_sdk_suite/v1.0//protocol/bluetooth_2.3/lib/EFR32BG1P/GCC/bgapi.a(bgapi_endpoint.c.obj)
 .bss           0x0000000000000000        0x0 /Applications/Simplicity Studio.app/Contents/Eclipse/developer/sdks/gecko_sdk_suite/v1.0//protocol/bluetooth_2.3/lib/EFR32BG1P/GCC/bgapi.a(bgapi_endpoint.c.obj)
 .data          0x0000000000000000        0x0 /Applications/Simplicity Studio.app/Contents/Eclipse/developer/sdks/gecko_sdk_suite/v1.0//protocol/bluetooth_2.3/lib/EFR32BG1P/GCC/bgapi.a(bgapi_le_connection.c.obj)
 .bss           0x0000000000000000        0x0 /Applications/Simplicity Studio.app/Contents/Eclipse/developer/sdks/gecko_sdk_suite/v1.0//protocol/bluetooth_2.3/lib/EFR32BG1P/GCC/bgapi.a(bgapi_le_connection.c.obj)
 .data          0x0000000000000000        0x0 /Applications/Simplicity Studio.app/Contents/Eclipse/developer/sdks/gecko_sdk_suite/v1.0//protocol/bluetooth_2.3/lib/EFR32BG1P/GCC/bgapi.a(uart_endpoint.c.obj)
 .bss           0x0000000000000000        0x0 /Applications/Simplicity Studio.app/Contents/Eclipse/developer/sdks/gecko_sdk_suite/v1.0//protocol/bluetooth_2.3/lib/EFR32BG1P/GCC/bgapi.a(uart_endpoint.c.obj)
 .data          0x0000000000000000        0x0 /Applications/Simplicity Studio.app/Contents/Eclipse/developer/sdks/gecko_sdk_suite/v1.0//protocol/bluetooth_2.3/lib/EFR32BG1P/GCC/bgapi.a(gpio.c.obj)
 .bss           0x0000000000000000        0x0 /Applications/Simplicity Studio.app/Contents/Eclipse/developer/sdks/gecko_sdk_suite/v1.0//protocol/bluetooth_2.3/lib/EFR32BG1P/GCC/bgapi.a(gpio.c.obj)
 .data          0x0000000000000000        0x0 /Applications/Simplicity Studio.app/Contents/Eclipse/developer/sdks/gecko_sdk_suite/v1.0//protocol/bluetooth_2.3/lib/EFR32BG1P/GCC/bgapi.a(i2c.c.obj)
 .data          0x0000000000000000        0x0 /Applications/Simplicity Studio.app/Contents/Eclipse/developer/sdks/gecko_sdk_suite/v1.0//protocol/bluetooth_2.3/lib/EFR32BG1P/GCC/bgapi.a(sleep_signal.c.obj)
 .data          0x0000000000000000        0x0 /Applications/Simplicity Studio.app/Contents/Eclipse/developer/sdks/gecko_sdk_suite/v1.0//protocol/bluetooth_2.3/lib/EFR32BG1P/GCC/bgapi.a(uart.c.obj)
 .comment       0x0000000000000000       0x6d /Applications/Simplicity Studio.app/Contents/Eclipse/developer/sdks/gecko_sdk_suite/v1.0//protocol/bluetooth_2.3/lib/EFR32BG1P/EABI/stack.a
 .text          0x0000000000000000        0x0 /Applications/Simplicity Studio.app/Contents/Eclipse/developer/sdks/gecko_sdk_suite/v1.0//protocol/bluetooth_2.3/lib/EFR32BG1P/EABI/binstack.o
 .data          0x0000000000000000        0x0 /Applications/Simplicity Studio.app/Contents/Eclipse/developer/sdks/gecko_sdk_suite/v1.0//protocol/bluetooth_2.3/lib/EFR32BG1P/EABI/binstack.o
 .bss           0x0000000000000000        0x0 /Applications/Simplicity Studio.app/Contents/Eclipse/developer/sdks/gecko_sdk_suite/v1.0//protocol/bluetooth_2.3/lib/EFR32BG1P/EABI/binstack.o
 .text          0x0000000000000000        0x0 /Applications/Simplicity Studio.app/Contents/Eclipse/developer/sdks/gecko_sdk_suite/v1.0//protocol/bluetooth_2.3/lib/EFR32BG1P/EABI/binbootloader.o
 .data          0x0000000000000000        0x0 /Applications/Simplicity Studio.app/Contents/Eclipse/developer/sdks/gecko_sdk_suite/v1.0//protocol/bluetooth_2.3/lib/EFR32BG1P/EABI/binbootloader.o
 .bss           0x0000000000000000        0x0 /Applications/Simplicity Studio.app/Contents/Eclipse/developer/sdks/gecko_sdk_suite/v1.0//protocol/bluetooth_2.3/lib/EFR32BG1P/EABI/binbootloader.o
 .data          0x0000000000000000        0x0 /Applications/Simplicity Studio.app/Contents/Eclipse/developer/toolchains/gnu_arm/4.9_2015q3/bin/../lib/gcc/arm-none-eabi/4.9.3/armv7e-m/softfp/libgcc.a(_aeabi_uldivmod.o)
 .bss           0x0000000000000000        0x0 /Applications/Simplicity Studio.app/Contents/Eclipse/developer/toolchains/gnu_arm/4.9_2015q3/bin/../lib/gcc/arm-none-eabi/4.9.3/armv7e-m/softfp/libgcc.a(_aeabi_uldivmod.o)
 .data          0x0000000000000000        0x0 /Applications/Simplicity Studio.app/Contents/Eclipse/developer/toolchains/gnu_arm/4.9_2015q3/bin/../lib/gcc/arm-none-eabi/4.9.3/armv7e-m/softfp/libgcc.a(bpabi.o)
 .bss           0x0000000000000000        0x0 /Applications/Simplicity Studio.app/Contents/Eclipse/developer/toolchains/gnu_arm/4.9_2015q3/bin/../lib/gcc/arm-none-eabi/4.9.3/armv7e-m/softfp/libgcc.a(bpabi.o)
 .data          0x0000000000000000        0x0 /Applications/Simplicity Studio.app/Contents/Eclipse/developer/toolchains/gnu_arm/4.9_2015q3/bin/../lib/gcc/arm-none-eabi/4.9.3/armv7e-m/softfp/libgcc.a(_dvmd_tls.o)
 .bss           0x0000000000000000        0x0 /Applications/Simplicity Studio.app/Contents/Eclipse/developer/toolchains/gnu_arm/4.9_2015q3/bin/../lib/gcc/arm-none-eabi/4.9.3/armv7e-m/softfp/libgcc.a(_dvmd_tls.o)
 .data          0x0000000000000000        0x0 /Applications/Simplicity Studio.app/Contents/Eclipse/developer/toolchains/gnu_arm/4.9_2015q3/bin/../lib/gcc/arm-none-eabi/4.9.3/armv7e-m/softfp/libgcc.a(_divdi3.o)
 .bss           0x0000000000000000        0x0 /Applications/Simplicity Studio.app/Contents/Eclipse/developer/toolchains/gnu_arm/4.9_2015q3/bin/../lib/gcc/arm-none-eabi/4.9.3/armv7e-m/softfp/libgcc.a(_divdi3.o)
 .ARM.extab     0x0000000000000000        0x0 /Applications/Simplicity Studio.app/Contents/Eclipse/developer/toolchains/gnu_arm/4.9_2015q3/bin/../lib/gcc/arm-none-eabi/4.9.3/armv7e-m/softfp/libgcc.a(_divdi3.o)
 .data          0x0000000000000000        0x0 /Applications/Simplicity Studio.app/Contents/Eclipse/developer/toolchains/gnu_arm/4.9_2015q3/bin/../lib/gcc/arm-none-eabi/4.9.3/armv7e-m/softfp/libgcc.a(_udivdi3.o)
 .bss           0x0000000000000000        0x0 /Applications/Simplicity Studio.app/Contents/Eclipse/developer/toolchains/gnu_arm/4.9_2015q3/bin/../lib/gcc/arm-none-eabi/4.9.3/armv7e-m/softfp/libgcc.a(_udivdi3.o)
 .ARM.extab     0x0000000000000000        0x0 /Applications/Simplicity Studio.app/Contents/Eclipse/developer/toolchains/gnu_arm/4.9_2015q3/bin/../lib/gcc/arm-none-eabi/4.9.3/armv7e-m/softfp/libgcc.a(_udivdi3.o)
 .text          0x0000000000000000        0x0 /Applications/Simplicity Studio.app/Contents/Eclipse/developer/toolchains/gnu_arm/4.9_2015q3/bin/../lib/gcc/arm-none-eabi/4.9.3/../../../../arm-none-eabi/lib/armv7e-m/softfp/libc.a(lib_a-exit.o)
 .data          0x0000000000000000        0x0 /Applications/Simplicity Studio.app/Contents/Eclipse/developer/toolchains/gnu_arm/4.9_2015q3/bin/../lib/gcc/arm-none-eabi/4.9.3/../../../../arm-none-eabi/lib/armv7e-m/softfp/libc.a(lib_a-exit.o)
 .bss           0x0000000000000000        0x0 /Applications/Simplicity Studio.app/Contents/Eclipse/developer/toolchains/gnu_arm/4.9_2015q3/bin/../lib/gcc/arm-none-eabi/4.9.3/../../../../arm-none-eabi/lib/armv7e-m/softfp/libc.a(lib_a-exit.o)
 .text          0x0000000000000000        0x0 /Applications/Simplicity Studio.app/Contents/Eclipse/developer/toolchains/gnu_arm/4.9_2015q3/bin/../lib/gcc/arm-none-eabi/4.9.3/../../../../arm-none-eabi/lib/armv7e-m/softfp/libc.a(lib_a-impure.o)
 .data          0x0000000000000000        0x0 /Applications/Simplicity Studio.app/Contents/Eclipse/developer/toolchains/gnu_arm/4.9_2015q3/bin/../lib/gcc/arm-none-eabi/4.9.3/../../../../arm-none-eabi/lib/armv7e-m/softfp/libc.a(lib_a-impure.o)
 .bss           0x0000000000000000        0x0 /Applications/Simplicity Studio.app/Contents/Eclipse/developer/toolchains/gnu_arm/4.9_2015q3/bin/../lib/gcc/arm-none-eabi/4.9.3/../../../../arm-none-eabi/lib/armv7e-m/softfp/libc.a(lib_a-impure.o)
 .text          0x0000000000000000        0x0 /Applications/Simplicity Studio.app/Contents/Eclipse/developer/toolchains/gnu_arm/4.9_2015q3/bin/../lib/gcc/arm-none-eabi/4.9.3/../../../../arm-none-eabi/lib/armv7e-m/softfp/libc.a(lib_a-init.o)
 .data          0x0000000000000000        0x0 /Applications/Simplicity Studio.app/Contents/Eclipse/developer/toolchains/gnu_arm/4.9_2015q3/bin/../lib/gcc/arm-none-eabi/4.9.3/../../../../arm-none-eabi/lib/armv7e-m/softfp/libc.a(lib_a-init.o)
 .bss           0x0000000000000000        0x0 /Applications/Simplicity Studio.app/Contents/Eclipse/developer/toolchains/gnu_arm/4.9_2015q3/bin/../lib/gcc/arm-none-eabi/4.9.3/../../../../arm-none-eabi/lib/armv7e-m/softfp/libc.a(lib_a-init.o)
 .data          0x0000000000000000        0x0 /Applications/Simplicity Studio.app/Contents/Eclipse/developer/toolchains/gnu_arm/4.9_2015q3/bin/../lib/gcc/arm-none-eabi/4.9.3/../../../../arm-none-eabi/lib/armv7e-m/softfp/libc.a(lib_a-memcpy.o)
 .bss           0x0000000000000000        0x0 /Applications/Simplicity Studio.app/Contents/Eclipse/developer/toolchains/gnu_arm/4.9_2015q3/bin/../lib/gcc/arm-none-eabi/4.9.3/../../../../arm-none-eabi/lib/armv7e-m/softfp/libc.a(lib_a-memcpy.o)
 .text          0x0000000000000000        0x0 /Applications/Simplicity Studio.app/Contents/Eclipse/developer/toolchains/gnu_arm/4.9_2015q3/bin/../lib/gcc/arm-none-eabi/4.9.3/../../../../arm-none-eabi/lib/armv7e-m/softfp/libc.a(lib_a-memset.o)
 .data          0x0000000000000000        0x0 /Applications/Simplicity Studio.app/Contents/Eclipse/developer/toolchains/gnu_arm/4.9_2015q3/bin/../lib/gcc/arm-none-eabi/4.9.3/../../../../arm-none-eabi/lib/armv7e-m/softfp/libc.a(lib_a-memset.o)
 .bss           0x0000000000000000        0x0 /Applications/Simplicity Studio.app/Contents/Eclipse/developer/toolchains/gnu_arm/4.9_2015q3/bin/../lib/gcc/arm-none-eabi/4.9.3/../../../../arm-none-eabi/lib/armv7e-m/softfp/libc.a(lib_a-memset.o)
 .text          0x0000000000000000        0x0 /Applications/Simplicity Studio.app/Contents/Eclipse/developer/toolchains/gnu_arm/4.9_2015q3/bin/../lib/gcc/arm-none-eabi/4.9.3/../../../../arm-none-eabi/lib/armv7e-m/softfp/libc.a(lib_a-snprintf.o)
 .data          0x0000000000000000        0x0 /Applications/Simplicity Studio.app/Contents/Eclipse/developer/toolchains/gnu_arm/4.9_2015q3/bin/../lib/gcc/arm-none-eabi/4.9.3/../../../../arm-none-eabi/lib/armv7e-m/softfp/libc.a(lib_a-snprintf.o)
 .bss           0x0000000000000000        0x0 /Applications/Simplicity Studio.app/Contents/Eclipse/developer/toolchains/gnu_arm/4.9_2015q3/bin/../lib/gcc/arm-none-eabi/4.9.3/../../../../arm-none-eabi/lib/armv7e-m/softfp/libc.a(lib_a-snprintf.o)
 .text._snprintf_r
                0x0000000000000000       0x90 /Applications/Simplicity Studio.app/Contents/Eclipse/developer/toolchains/gnu_arm/4.9_2015q3/bin/../lib/gcc/arm-none-eabi/4.9.3/../../../../arm-none-eabi/lib/armv7e-m/softfp/libc.a(lib_a-snprintf.o)
 .text          0x0000000000000000        0x0 /Applications/Simplicity Studio.app/Contents/Eclipse/developer/toolchains/gnu_arm/4.9_2015q3/bin/../lib/gcc/arm-none-eabi/4.9.3/../../../../arm-none-eabi/lib/armv7e-m/softfp/libc.a(lib_a-strlen.o)
 .data          0x0000000000000000        0x0 /Applications/Simplicity Studio.app/Contents/Eclipse/developer/toolchains/gnu_arm/4.9_2015q3/bin/../lib/gcc/arm-none-eabi/4.9.3/../../../../arm-none-eabi/lib/armv7e-m/softfp/libc.a(lib_a-strlen.o)
 .bss           0x0000000000000000        0x0 /Applications/Simplicity Studio.app/Contents/Eclipse/developer/toolchains/gnu_arm/4.9_2015q3/bin/../lib/gcc/arm-none-eabi/4.9.3/../../../../arm-none-eabi/lib/armv7e-m/softfp/libc.a(lib_a-strlen.o)
 .text          0x0000000000000000        0x0 /Applications/Simplicity Studio.app/Contents/Eclipse/developer/toolchains/gnu_arm/4.9_2015q3/bin/../lib/gcc/arm-none-eabi/4.9.3/../../../../arm-none-eabi/lib/armv7e-m/softfp/libc.a(lib_a-svfprintf.o)
 .data          0x0000000000000000        0x0 /Applications/Simplicity Studio.app/Contents/Eclipse/developer/toolchains/gnu_arm/4.9_2015q3/bin/../lib/gcc/arm-none-eabi/4.9.3/../../../../arm-none-eabi/lib/armv7e-m/softfp/libc.a(lib_a-svfprintf.o)
 .bss           0x0000000000000000        0x0 /Applications/Simplicity Studio.app/Contents/Eclipse/developer/toolchains/gnu_arm/4.9_2015q3/bin/../lib/gcc/arm-none-eabi/4.9.3/../../../../arm-none-eabi/lib/armv7e-m/softfp/libc.a(lib_a-svfprintf.o)
 .text          0x0000000000000000        0x0 /Applications/Simplicity Studio.app/Contents/Eclipse/developer/toolchains/gnu_arm/4.9_2015q3/bin/../lib/gcc/arm-none-eabi/4.9.3/../../../../arm-none-eabi/lib/armv7e-m/softfp/libc.a(lib_a-__call_atexit.o)
 .data          0x0000000000000000        0x0 /Applications/Simplicity Studio.app/Contents/Eclipse/developer/toolchains/gnu_arm/4.9_2015q3/bin/../lib/gcc/arm-none-eabi/4.9.3/../../../../arm-none-eabi/lib/armv7e-m/softfp/libc.a(lib_a-__call_atexit.o)
 .bss           0x0000000000000000        0x0 /Applications/Simplicity Studio.app/Contents/Eclipse/developer/toolchains/gnu_arm/4.9_2015q3/bin/../lib/gcc/arm-none-eabi/4.9.3/../../../../arm-none-eabi/lib/armv7e-m/softfp/libc.a(lib_a-__call_atexit.o)
 .text          0x0000000000000000        0x0 /Applications/Simplicity Studio.app/Contents/Eclipse/developer/toolchains/gnu_arm/4.9_2015q3/bin/../lib/gcc/arm-none-eabi/4.9.3/../../../../arm-none-eabi/lib/armv7e-m/softfp/libc.a(lib_a-atexit.o)
 .data          0x0000000000000000        0x0 /Applications/Simplicity Studio.app/Contents/Eclipse/developer/toolchains/gnu_arm/4.9_2015q3/bin/../lib/gcc/arm-none-eabi/4.9.3/../../../../arm-none-eabi/lib/armv7e-m/softfp/libc.a(lib_a-atexit.o)
 .bss           0x0000000000000000        0x0 /Applications/Simplicity Studio.app/Contents/Eclipse/developer/toolchains/gnu_arm/4.9_2015q3/bin/../lib/gcc/arm-none-eabi/4.9.3/../../../../arm-none-eabi/lib/armv7e-m/softfp/libc.a(lib_a-atexit.o)
 .text          0x0000000000000000        0x0 /Applications/Simplicity Studio.app/Contents/Eclipse/developer/toolchains/gnu_arm/4.9_2015q3/bin/../lib/gcc/arm-none-eabi/4.9.3/../../../../arm-none-eabi/lib/armv7e-m/softfp/libc.a(lib_a-dtoa.o)
 .data          0x0000000000000000        0x0 /Applications/Simplicity Studio.app/Contents/Eclipse/developer/toolchains/gnu_arm/4.9_2015q3/bin/../lib/gcc/arm-none-eabi/4.9.3/../../../../arm-none-eabi/lib/armv7e-m/softfp/libc.a(lib_a-dtoa.o)
 .bss           0x0000000000000000        0x0 /Applications/Simplicity Studio.app/Contents/Eclipse/developer/toolchains/gnu_arm/4.9_2015q3/bin/../lib/gcc/arm-none-eabi/4.9.3/../../../../arm-none-eabi/lib/armv7e-m/softfp/libc.a(lib_a-dtoa.o)
 .text          0x0000000000000000        0x0 /Applications/Simplicity Studio.app/Contents/Eclipse/developer/toolchains/gnu_arm/4.9_2015q3/bin/../lib/gcc/arm-none-eabi/4.9.3/../../../../arm-none-eabi/lib/armv7e-m/softfp/libc.a(lib_a-fini.o)
 .data          0x0000000000000000        0x0 /Applications/Simplicity Studio.app/Contents/Eclipse/developer/toolchains/gnu_arm/4.9_2015q3/bin/../lib/gcc/arm-none-eabi/4.9.3/../../../../arm-none-eabi/lib/armv7e-m/softfp/libc.a(lib_a-fini.o)
 .bss           0x0000000000000000        0x0 /Applications/Simplicity Studio.app/Contents/Eclipse/developer/toolchains/gnu_arm/4.9_2015q3/bin/../lib/gcc/arm-none-eabi/4.9.3/../../../../arm-none-eabi/lib/armv7e-m/softfp/libc.a(lib_a-fini.o)
 .text          0x0000000000000000        0x0 /Applications/Simplicity Studio.app/Contents/Eclipse/developer/toolchains/gnu_arm/4.9_2015q3/bin/../lib/gcc/arm-none-eabi/4.9.3/../../../../arm-none-eabi/lib/armv7e-m/softfp/libc.a(lib_a-locale.o)
 .data          0x0000000000000000        0x0 /Applications/Simplicity Studio.app/Contents/Eclipse/developer/toolchains/gnu_arm/4.9_2015q3/bin/../lib/gcc/arm-none-eabi/4.9.3/../../../../arm-none-eabi/lib/armv7e-m/softfp/libc.a(lib_a-locale.o)
 .bss           0x0000000000000000        0x0 /Applications/Simplicity Studio.app/Contents/Eclipse/developer/toolchains/gnu_arm/4.9_2015q3/bin/../lib/gcc/arm-none-eabi/4.9.3/../../../../arm-none-eabi/lib/armv7e-m/softfp/libc.a(lib_a-locale.o)
 .text._setlocale_r
                0x0000000000000000       0x44 /Applications/Simplicity Studio.app/Contents/Eclipse/developer/toolchains/gnu_arm/4.9_2015q3/bin/../lib/gcc/arm-none-eabi/4.9.3/../../../../arm-none-eabi/lib/armv7e-m/softfp/libc.a(lib_a-locale.o)
 .text.__locale_charset
                0x0000000000000000        0x8 /Applications/Simplicity Studio.app/Contents/Eclipse/developer/toolchains/gnu_arm/4.9_2015q3/bin/../lib/gcc/arm-none-eabi/4.9.3/../../../../arm-none-eabi/lib/armv7e-m/softfp/libc.a(lib_a-locale.o)
 .text.__locale_mb_cur_max
                0x0000000000000000        0xc /Applications/Simplicity Studio.app/Contents/Eclipse/developer/toolchains/gnu_arm/4.9_2015q3/bin/../lib/gcc/arm-none-eabi/4.9.3/../../../../arm-none-eabi/lib/armv7e-m/softfp/libc.a(lib_a-locale.o)
 .text.__locale_msgcharset
                0x0000000000000000        0x8 /Applications/Simplicity Studio.app/Contents/Eclipse/developer/toolchains/gnu_arm/4.9_2015q3/bin/../lib/gcc/arm-none-eabi/4.9.3/../../../../arm-none-eabi/lib/armv7e-m/softfp/libc.a(lib_a-locale.o)
 .text.__locale_cjk_lang
                0x0000000000000000        0x4 /Applications/Simplicity Studio.app/Contents/Eclipse/developer/toolchains/gnu_arm/4.9_2015q3/bin/../lib/gcc/arm-none-eabi/4.9.3/../../../../arm-none-eabi/lib/armv7e-m/softfp/libc.a(lib_a-locale.o)
 .text.setlocale
                0x0000000000000000       0x10 /Applications/Simplicity Studio.app/Contents/Eclipse/developer/toolchains/gnu_arm/4.9_2015q3/bin/../lib/gcc/arm-none-eabi/4.9.3/../../../../arm-none-eabi/lib/armv7e-m/softfp/libc.a(lib_a-locale.o)
 .text.localeconv
                0x0000000000000000        0x8 /Applications/Simplicity Studio.app/Contents/Eclipse/developer/toolchains/gnu_arm/4.9_2015q3/bin/../lib/gcc/arm-none-eabi/4.9.3/../../../../arm-none-eabi/lib/armv7e-m/softfp/libc.a(lib_a-locale.o)
 .data.lc_message_charset
                0x0000000000000000       0x20 /Applications/Simplicity Studio.app/Contents/Eclipse/developer/toolchains/gnu_arm/4.9_2015q3/bin/../lib/gcc/arm-none-eabi/4.9.3/../../../../arm-none-eabi/lib/armv7e-m/softfp/libc.a(lib_a-locale.o)
 .bss._PathLocale
                0x0000000000000000        0x4 /Applications/Simplicity Studio.app/Contents/Eclipse/developer/toolchains/gnu_arm/4.9_2015q3/bin/../lib/gcc/arm-none-eabi/4.9.3/../../../../arm-none-eabi/lib/armv7e-m/softfp/libc.a(lib_a-locale.o)
 .bss.__nlocale_changed
                0x0000000000000000        0x4 /Applications/Simplicity Studio.app/Contents/Eclipse/developer/toolchains/gnu_arm/4.9_2015q3/bin/../lib/gcc/arm-none-eabi/4.9.3/../../../../arm-none-eabi/lib/armv7e-m/softfp/libc.a(lib_a-locale.o)
 .bss.__mlocale_changed
                0x0000000000000000        0x4 /Applications/Simplicity Studio.app/Contents/Eclipse/developer/toolchains/gnu_arm/4.9_2015q3/bin/../lib/gcc/arm-none-eabi/4.9.3/../../../../arm-none-eabi/lib/armv7e-m/softfp/libc.a(lib_a-locale.o)
 .data.lc_ctype_charset
                0x0000000000000000       0x20 /Applications/Simplicity Studio.app/Contents/Eclipse/developer/toolchains/gnu_arm/4.9_2015q3/bin/../lib/gcc/arm-none-eabi/4.9.3/../../../../arm-none-eabi/lib/armv7e-m/softfp/libc.a(lib_a-locale.o)
 .data.__mb_cur_max
                0x0000000000000000        0x4 /Applications/Simplicity Studio.app/Contents/Eclipse/developer/toolchains/gnu_arm/4.9_2015q3/bin/../lib/gcc/arm-none-eabi/4.9.3/../../../../arm-none-eabi/lib/armv7e-m/softfp/libc.a(lib_a-locale.o)
 .text          0x0000000000000000        0x0 /Applications/Simplicity Studio.app/Contents/Eclipse/developer/toolchains/gnu_arm/4.9_2015q3/bin/../lib/gcc/arm-none-eabi/4.9.3/../../../../arm-none-eabi/lib/armv7e-m/softfp/libc.a(lib_a-mallocr.o)
 .data          0x0000000000000000        0x0 /Applications/Simplicity Studio.app/Contents/Eclipse/developer/toolchains/gnu_arm/4.9_2015q3/bin/../lib/gcc/arm-none-eabi/4.9.3/../../../../arm-none-eabi/lib/armv7e-m/softfp/libc.a(lib_a-mallocr.o)
 .bss           0x0000000000000000        0x0 /Applications/Simplicity Studio.app/Contents/Eclipse/developer/toolchains/gnu_arm/4.9_2015q3/bin/../lib/gcc/arm-none-eabi/4.9.3/../../../../arm-none-eabi/lib/armv7e-m/softfp/libc.a(lib_a-mallocr.o)
 .text          0x0000000000000000        0x0 /Applications/Simplicity Studio.app/Contents/Eclipse/developer/toolchains/gnu_arm/4.9_2015q3/bin/../lib/gcc/arm-none-eabi/4.9.3/../../../../arm-none-eabi/lib/armv7e-m/softfp/libc.a(lib_a-memchr.o)
 .data          0x0000000000000000        0x0 /Applications/Simplicity Studio.app/Contents/Eclipse/developer/toolchains/gnu_arm/4.9_2015q3/bin/../lib/gcc/arm-none-eabi/4.9.3/../../../../arm-none-eabi/lib/armv7e-m/softfp/libc.a(lib_a-memchr.o)
 .bss           0x0000000000000000        0x0 /Applications/Simplicity Studio.app/Contents/Eclipse/developer/toolchains/gnu_arm/4.9_2015q3/bin/../lib/gcc/arm-none-eabi/4.9.3/../../../../arm-none-eabi/lib/armv7e-m/softfp/libc.a(lib_a-memchr.o)
 .text          0x0000000000000000        0x0 /Applications/Simplicity Studio.app/Contents/Eclipse/developer/toolchains/gnu_arm/4.9_2015q3/bin/../lib/gcc/arm-none-eabi/4.9.3/../../../../arm-none-eabi/lib/armv7e-m/softfp/libc.a(lib_a-mlock.o)
 .data          0x0000000000000000        0x0 /Applications/Simplicity Studio.app/Contents/Eclipse/developer/toolchains/gnu_arm/4.9_2015q3/bin/../lib/gcc/arm-none-eabi/4.9.3/../../../../arm-none-eabi/lib/armv7e-m/softfp/libc.a(lib_a-mlock.o)
 .bss           0x0000000000000000        0x0 /Applications/Simplicity Studio.app/Contents/Eclipse/developer/toolchains/gnu_arm/4.9_2015q3/bin/../lib/gcc/arm-none-eabi/4.9.3/../../../../arm-none-eabi/lib/armv7e-m/softfp/libc.a(lib_a-mlock.o)
 .text          0x0000000000000000        0x0 /Applications/Simplicity Studio.app/Contents/Eclipse/developer/toolchains/gnu_arm/4.9_2015q3/bin/../lib/gcc/arm-none-eabi/4.9.3/../../../../arm-none-eabi/lib/armv7e-m/softfp/libc.a(lib_a-mprec.o)
 .data          0x0000000000000000        0x0 /Applications/Simplicity Studio.app/Contents/Eclipse/developer/toolchains/gnu_arm/4.9_2015q3/bin/../lib/gcc/arm-none-eabi/4.9.3/../../../../arm-none-eabi/lib/armv7e-m/softfp/libc.a(lib_a-mprec.o)
 .bss           0x0000000000000000        0x0 /Applications/Simplicity Studio.app/Contents/Eclipse/developer/toolchains/gnu_arm/4.9_2015q3/bin/../lib/gcc/arm-none-eabi/4.9.3/../../../../arm-none-eabi/lib/armv7e-m/softfp/libc.a(lib_a-mprec.o)
 .text.__s2b    0x0000000000000000       0x98 /Applications/Simplicity Studio.app/Contents/Eclipse/developer/toolchains/gnu_arm/4.9_2015q3/bin/../lib/gcc/arm-none-eabi/4.9.3/../../../../arm-none-eabi/lib/armv7e-m/softfp/libc.a(lib_a-mprec.o)
 .text.__ulp    0x0000000000000000       0x40 /Applications/Simplicity Studio.app/Contents/Eclipse/developer/toolchains/gnu_arm/4.9_2015q3/bin/../lib/gcc/arm-none-eabi/4.9.3/../../../../arm-none-eabi/lib/armv7e-m/softfp/libc.a(lib_a-mprec.o)
 .text.__b2d    0x0000000000000000       0xc4 /Applications/Simplicity Studio.app/Contents/Eclipse/developer/toolchains/gnu_arm/4.9_2015q3/bin/../lib/gcc/arm-none-eabi/4.9.3/../../../../arm-none-eabi/lib/armv7e-m/softfp/libc.a(lib_a-mprec.o)
 .text.__ratio  0x0000000000000000       0x58 /Applications/Simplicity Studio.app/Contents/Eclipse/developer/toolchains/gnu_arm/4.9_2015q3/bin/../lib/gcc/arm-none-eabi/4.9.3/../../../../arm-none-eabi/lib/armv7e-m/softfp/libc.a(lib_a-mprec.o)
 .text._mprec_log10
                0x0000000000000000       0x34 /Applications/Simplicity Studio.app/Contents/Eclipse/developer/toolchains/gnu_arm/4.9_2015q3/bin/../lib/gcc/arm-none-eabi/4.9.3/../../../../arm-none-eabi/lib/armv7e-m/softfp/libc.a(lib_a-mprec.o)
 .text.__copybits
                0x0000000000000000       0x48 /Applications/Simplicity Studio.app/Contents/Eclipse/developer/toolchains/gnu_arm/4.9_2015q3/bin/../lib/gcc/arm-none-eabi/4.9.3/../../../../arm-none-eabi/lib/armv7e-m/softfp/libc.a(lib_a-mprec.o)
 .text.__any_on
                0x0000000000000000       0x60 /Applications/Simplicity Studio.app/Contents/Eclipse/developer/toolchains/gnu_arm/4.9_2015q3/bin/../lib/gcc/arm-none-eabi/4.9.3/../../../../arm-none-eabi/lib/armv7e-m/softfp/libc.a(lib_a-mprec.o)
 .rodata.__mprec_tinytens
                0x0000000000000000       0x28 /Applications/Simplicity Studio.app/Contents/Eclipse/developer/toolchains/gnu_arm/4.9_2015q3/bin/../lib/gcc/arm-none-eabi/4.9.3/../../../../arm-none-eabi/lib/armv7e-m/softfp/libc.a(lib_a-mprec.o)
 .text          0x0000000000000000        0x0 /Applications/Simplicity Studio.app/Contents/Eclipse/developer/toolchains/gnu_arm/4.9_2015q3/bin/../lib/gcc/arm-none-eabi/4.9.3/../../../../arm-none-eabi/lib/armv7e-m/softfp/libc.a(lib_a-s_fpclassify.o)
 .data          0x0000000000000000        0x0 /Applications/Simplicity Studio.app/Contents/Eclipse/developer/toolchains/gnu_arm/4.9_2015q3/bin/../lib/gcc/arm-none-eabi/4.9.3/../../../../arm-none-eabi/lib/armv7e-m/softfp/libc.a(lib_a-s_fpclassify.o)
 .bss           0x0000000000000000        0x0 /Applications/Simplicity Studio.app/Contents/Eclipse/developer/toolchains/gnu_arm/4.9_2015q3/bin/../lib/gcc/arm-none-eabi/4.9.3/../../../../arm-none-eabi/lib/armv7e-m/softfp/libc.a(lib_a-s_fpclassify.o)
 .text          0x0000000000000000        0x0 /Applications/Simplicity Studio.app/Contents/Eclipse/developer/toolchains/gnu_arm/4.9_2015q3/bin/../lib/gcc/arm-none-eabi/4.9.3/../../../../arm-none-eabi/lib/armv7e-m/softfp/libc.a(lib_a-sbrkr.o)
 .data          0x0000000000000000        0x0 /Applications/Simplicity Studio.app/Contents/Eclipse/developer/toolchains/gnu_arm/4.9_2015q3/bin/../lib/gcc/arm-none-eabi/4.9.3/../../../../arm-none-eabi/lib/armv7e-m/softfp/libc.a(lib_a-sbrkr.o)
 .bss           0x0000000000000000        0x0 /Applications/Simplicity Studio.app/Contents/Eclipse/developer/toolchains/gnu_arm/4.9_2015q3/bin/../lib/gcc/arm-none-eabi/4.9.3/../../../../arm-none-eabi/lib/armv7e-m/softfp/libc.a(lib_a-sbrkr.o)
 .text          0x0000000000000000      0x2dc /Applications/Simplicity Studio.app/Contents/Eclipse/developer/toolchains/gnu_arm/4.9_2015q3/bin/../lib/gcc/arm-none-eabi/4.9.3/../../../../arm-none-eabi/lib/armv7e-m/softfp/libc.a(lib_a-strcmp.o)
 .data          0x0000000000000000        0x0 /Applications/Simplicity Studio.app/Contents/Eclipse/developer/toolchains/gnu_arm/4.9_2015q3/bin/../lib/gcc/arm-none-eabi/4.9.3/../../../../arm-none-eabi/lib/armv7e-m/softfp/libc.a(lib_a-strcmp.o)
 .bss           0x0000000000000000        0x0 /Applications/Simplicity Studio.app/Contents/Eclipse/developer/toolchains/gnu_arm/4.9_2015q3/bin/../lib/gcc/arm-none-eabi/4.9.3/../../../../arm-none-eabi/lib/armv7e-m/softfp/libc.a(lib_a-strcmp.o)
 .text          0x0000000000000000        0x0 /Applications/Simplicity Studio.app/Contents/Eclipse/developer/toolchains/gnu_arm/4.9_2015q3/bin/../lib/gcc/arm-none-eabi/4.9.3/../../../../arm-none-eabi/lib/armv7e-m/softfp/libc.a(lib_a-svfiprintf.o)
 .data          0x0000000000000000        0x0 /Applications/Simplicity Studio.app/Contents/Eclipse/developer/toolchains/gnu_arm/4.9_2015q3/bin/../lib/gcc/arm-none-eabi/4.9.3/../../../../arm-none-eabi/lib/armv7e-m/softfp/libc.a(lib_a-svfiprintf.o)
 .bss           0x0000000000000000        0x0 /Applications/Simplicity Studio.app/Contents/Eclipse/developer/toolchains/gnu_arm/4.9_2015q3/bin/../lib/gcc/arm-none-eabi/4.9.3/../../../../arm-none-eabi/lib/armv7e-m/softfp/libc.a(lib_a-svfiprintf.o)
 .text._svfiprintf_r
                0x0000000000000000      0xaa0 /Applications/Simplicity Studio.app/Contents/Eclipse/developer/toolchains/gnu_arm/4.9_2015q3/bin/../lib/gcc/arm-none-eabi/4.9.3/../../../../arm-none-eabi/lib/armv7e-m/softfp/libc.a(lib_a-svfiprintf.o)
 .rodata.blanks.6854
                0x0000000000000000       0x10 /Applications/Simplicity Studio.app/Contents/Eclipse/developer/toolchains/gnu_arm/4.9_2015q3/bin/../lib/gcc/arm-none-eabi/4.9.3/../../../../arm-none-eabi/lib/armv7e-m/softfp/libc.a(lib_a-svfiprintf.o)
 .rodata.str1.4
                0x0000000000000000       0x2f /Applications/Simplicity Studio.app/Contents/Eclipse/developer/toolchains/gnu_arm/4.9_2015q3/bin/../lib/gcc/arm-none-eabi/4.9.3/../../../../arm-none-eabi/lib/armv7e-m/softfp/libc.a(lib_a-svfiprintf.o)
 .rodata.zeroes.6855
                0x0000000000000000       0x10 /Applications/Simplicity Studio.app/Contents/Eclipse/developer/toolchains/gnu_arm/4.9_2015q3/bin/../lib/gcc/arm-none-eabi/4.9.3/../../../../arm-none-eabi/lib/armv7e-m/softfp/libc.a(lib_a-svfiprintf.o)
 .text          0x0000000000000000        0x0 /Applications/Simplicity Studio.app/Contents/Eclipse/developer/toolchains/gnu_arm/4.9_2015q3/bin/../lib/gcc/arm-none-eabi/4.9.3/../../../../arm-none-eabi/lib/armv7e-m/softfp/libc.a(lib_a-__atexit.o)
 .data          0x0000000000000000        0x0 /Applications/Simplicity Studio.app/Contents/Eclipse/developer/toolchains/gnu_arm/4.9_2015q3/bin/../lib/gcc/arm-none-eabi/4.9.3/../../../../arm-none-eabi/lib/armv7e-m/softfp/libc.a(lib_a-__atexit.o)
 .bss           0x0000000000000000        0x0 /Applications/Simplicity Studio.app/Contents/Eclipse/developer/toolchains/gnu_arm/4.9_2015q3/bin/../lib/gcc/arm-none-eabi/4.9.3/../../../../arm-none-eabi/lib/armv7e-m/softfp/libc.a(lib_a-__atexit.o)
 .text          0x0000000000000000        0x0 /Applications/Simplicity Studio.app/Contents/Eclipse/developer/toolchains/gnu_arm/4.9_2015q3/bin/../lib/gcc/arm-none-eabi/4.9.3/../../../../arm-none-eabi/lib/armv7e-m/softfp/libc.a(lib_a-callocr.o)
 .data          0x0000000000000000        0x0 /Applications/Simplicity Studio.app/Contents/Eclipse/developer/toolchains/gnu_arm/4.9_2015q3/bin/../lib/gcc/arm-none-eabi/4.9.3/../../../../arm-none-eabi/lib/armv7e-m/softfp/libc.a(lib_a-callocr.o)
 .bss           0x0000000000000000        0x0 /Applications/Simplicity Studio.app/Contents/Eclipse/developer/toolchains/gnu_arm/4.9_2015q3/bin/../lib/gcc/arm-none-eabi/4.9.3/../../../../arm-none-eabi/lib/armv7e-m/softfp/libc.a(lib_a-callocr.o)
 .text          0x0000000000000000        0x0 /Applications/Simplicity Studio.app/Contents/Eclipse/developer/toolchains/gnu_arm/4.9_2015q3/bin/../lib/gcc/arm-none-eabi/4.9.3/../../../../arm-none-eabi/lib/armv7e-m/softfp/libc.a(lib_a-freer.o)
 .data          0x0000000000000000        0x0 /Applications/Simplicity Studio.app/Contents/Eclipse/developer/toolchains/gnu_arm/4.9_2015q3/bin/../lib/gcc/arm-none-eabi/4.9.3/../../../../arm-none-eabi/lib/armv7e-m/softfp/libc.a(lib_a-freer.o)
 .bss           0x0000000000000000        0x0 /Applications/Simplicity Studio.app/Contents/Eclipse/developer/toolchains/gnu_arm/4.9_2015q3/bin/../lib/gcc/arm-none-eabi/4.9.3/../../../../arm-none-eabi/lib/armv7e-m/softfp/libc.a(lib_a-freer.o)
 .text          0x0000000000000000        0x0 /Applications/Simplicity Studio.app/Contents/Eclipse/developer/toolchains/gnu_arm/4.9_2015q3/bin/../lib/gcc/arm-none-eabi/4.9.3/../../../../arm-none-eabi/lib/armv7e-m/softfp/libc.a(lib_a-memmove.o)
 .data          0x0000000000000000        0x0 /Applications/Simplicity Studio.app/Contents/Eclipse/developer/toolchains/gnu_arm/4.9_2015q3/bin/../lib/gcc/arm-none-eabi/4.9.3/../../../../arm-none-eabi/lib/armv7e-m/softfp/libc.a(lib_a-memmove.o)
 .bss           0x0000000000000000        0x0 /Applications/Simplicity Studio.app/Contents/Eclipse/developer/toolchains/gnu_arm/4.9_2015q3/bin/../lib/gcc/arm-none-eabi/4.9.3/../../../../arm-none-eabi/lib/armv7e-m/softfp/libc.a(lib_a-memmove.o)
 .text          0x0000000000000000        0x0 /Applications/Simplicity Studio.app/Contents/Eclipse/developer/toolchains/gnu_arm/4.9_2015q3/bin/../lib/gcc/arm-none-eabi/4.9.3/../../../../arm-none-eabi/lib/armv7e-m/softfp/libc.a(lib_a-reallocr.o)
 .data          0x0000000000000000        0x0 /Applications/Simplicity Studio.app/Contents/Eclipse/developer/toolchains/gnu_arm/4.9_2015q3/bin/../lib/gcc/arm-none-eabi/4.9.3/../../../../arm-none-eabi/lib/armv7e-m/softfp/libc.a(lib_a-reallocr.o)
 .bss           0x0000000000000000        0x0 /Applications/Simplicity Studio.app/Contents/Eclipse/developer/toolchains/gnu_arm/4.9_2015q3/bin/../lib/gcc/arm-none-eabi/4.9.3/../../../../arm-none-eabi/lib/armv7e-m/softfp/libc.a(lib_a-reallocr.o)
 .text          0x0000000000000000        0x0 /Applications/Simplicity Studio.app/Contents/Eclipse/developer/toolchains/gnu_arm/4.9_2015q3/bin/../lib/gcc/arm-none-eabi/4.9.3/../../../../arm-none-eabi/lib/armv7e-m/softfp/libc.a(lib_a-reent.o)
 .data          0x0000000000000000        0x0 /Applications/Simplicity Studio.app/Contents/Eclipse/developer/toolchains/gnu_arm/4.9_2015q3/bin/../lib/gcc/arm-none-eabi/4.9.3/../../../../arm-none-eabi/lib/armv7e-m/softfp/libc.a(lib_a-reent.o)
 .bss           0x0000000000000000        0x0 /Applications/Simplicity Studio.app/Contents/Eclipse/developer/toolchains/gnu_arm/4.9_2015q3/bin/../lib/gcc/arm-none-eabi/4.9.3/../../../../arm-none-eabi/lib/armv7e-m/softfp/libc.a(lib_a-reent.o)
 .text.cleanup_glue
                0x0000000000000000       0x1c /Applications/Simplicity Studio.app/Contents/Eclipse/developer/toolchains/gnu_arm/4.9_2015q3/bin/../lib/gcc/arm-none-eabi/4.9.3/../../../../arm-none-eabi/lib/armv7e-m/softfp/libc.a(lib_a-reent.o)
 .text._reclaim_reent
                0x0000000000000000       0x88 /Applications/Simplicity Studio.app/Contents/Eclipse/developer/toolchains/gnu_arm/4.9_2015q3/bin/../lib/gcc/arm-none-eabi/4.9.3/../../../../arm-none-eabi/lib/armv7e-m/softfp/libc.a(lib_a-reent.o)
 .text          0x0000000000000000        0x0 /Applications/Simplicity Studio.app/Contents/Eclipse/developer/toolchains/gnu_arm/4.9_2015q3/bin/../lib/gcc/arm-none-eabi/4.9.3/../../../../arm-none-eabi/lib/armv7e-m/softfp/libnosys.a(sbrk.o)
 .data          0x0000000000000000        0x0 /Applications/Simplicity Studio.app/Contents/Eclipse/developer/toolchains/gnu_arm/4.9_2015q3/bin/../lib/gcc/arm-none-eabi/4.9.3/../../../../arm-none-eabi/lib/armv7e-m/softfp/libnosys.a(sbrk.o)
 .bss           0x0000000000000000        0x0 /Applications/Simplicity Studio.app/Contents/Eclipse/developer/toolchains/gnu_arm/4.9_2015q3/bin/../lib/gcc/arm-none-eabi/4.9.3/../../../../arm-none-eabi/lib/armv7e-m/softfp/libnosys.a(sbrk.o)
 .text          0x0000000000000000        0x0 /Applications/Simplicity Studio.app/Contents/Eclipse/developer/toolchains/gnu_arm/4.9_2015q3/bin/../lib/gcc/arm-none-eabi/4.9.3/../../../../arm-none-eabi/lib/armv7e-m/softfp/libnosys.a(_exit.o)
 .data          0x0000000000000000        0x0 /Applications/Simplicity Studio.app/Contents/Eclipse/developer/toolchains/gnu_arm/4.9_2015q3/bin/../lib/gcc/arm-none-eabi/4.9.3/../../../../arm-none-eabi/lib/armv7e-m/softfp/libnosys.a(_exit.o)
 .bss           0x0000000000000000        0x0 /Applications/Simplicity Studio.app/Contents/Eclipse/developer/toolchains/gnu_arm/4.9_2015q3/bin/../lib/gcc/arm-none-eabi/4.9.3/../../../../arm-none-eabi/lib/armv7e-m/softfp/libnosys.a(_exit.o)
 .data          0x0000000000000000        0x0 /Applications/Simplicity Studio.app/Contents/Eclipse/developer/toolchains/gnu_arm/4.9_2015q3/bin/../lib/gcc/arm-none-eabi/4.9.3/armv7e-m/softfp/libgcc.a(_arm_addsubdf3.o)
 .bss           0x0000000000000000        0x0 /Applications/Simplicity Studio.app/Contents/Eclipse/developer/toolchains/gnu_arm/4.9_2015q3/bin/../lib/gcc/arm-none-eabi/4.9.3/armv7e-m/softfp/libgcc.a(_arm_addsubdf3.o)
 .data          0x0000000000000000        0x0 /Applications/Simplicity Studio.app/Contents/Eclipse/developer/toolchains/gnu_arm/4.9_2015q3/bin/../lib/gcc/arm-none-eabi/4.9.3/armv7e-m/softfp/libgcc.a(_arm_muldivdf3.o)
 .bss           0x0000000000000000        0x0 /Applications/Simplicity Studio.app/Contents/Eclipse/developer/toolchains/gnu_arm/4.9_2015q3/bin/../lib/gcc/arm-none-eabi/4.9.3/armv7e-m/softfp/libgcc.a(_arm_muldivdf3.o)
 .data          0x0000000000000000        0x0 /Applications/Simplicity Studio.app/Contents/Eclipse/developer/toolchains/gnu_arm/4.9_2015q3/bin/../lib/gcc/arm-none-eabi/4.9.3/armv7e-m/softfp/libgcc.a(_arm_cmpdf2.o)
 .bss           0x0000000000000000        0x0 /Applications/Simplicity Studio.app/Contents/Eclipse/developer/toolchains/gnu_arm/4.9_2015q3/bin/../lib/gcc/arm-none-eabi/4.9.3/armv7e-m/softfp/libgcc.a(_arm_cmpdf2.o)
 .data          0x0000000000000000        0x0 /Applications/Simplicity Studio.app/Contents/Eclipse/developer/toolchains/gnu_arm/4.9_2015q3/bin/../lib/gcc/arm-none-eabi/4.9.3/armv7e-m/softfp/libgcc.a(_arm_fixdfsi.o)
 .bss           0x0000000000000000        0x0 /Applications/Simplicity Studio.app/Contents/Eclipse/developer/toolchains/gnu_arm/4.9_2015q3/bin/../lib/gcc/arm-none-eabi/4.9.3/armv7e-m/softfp/libgcc.a(_arm_fixdfsi.o)
 .text          0x0000000000000000        0x0 /Applications/Simplicity Studio.app/Contents/Eclipse/developer/toolchains/gnu_arm/4.9_2015q3/bin/../lib/gcc/arm-none-eabi/4.9.3/armv7e-m/softfp/crtend.o
 .data          0x0000000000000000        0x0 /Applications/Simplicity Studio.app/Contents/Eclipse/developer/toolchains/gnu_arm/4.9_2015q3/bin/../lib/gcc/arm-none-eabi/4.9.3/armv7e-m/softfp/crtend.o
 .bss           0x0000000000000000        0x0 /Applications/Simplicity Studio.app/Contents/Eclipse/developer/toolchains/gnu_arm/4.9_2015q3/bin/../lib/gcc/arm-none-eabi/4.9.3/armv7e-m/softfp/crtend.o
 .text          0x0000000000000000        0x0 /Applications/Simplicity Studio.app/Contents/Eclipse/developer/toolchains/gnu_arm/4.9_2015q3/bin/../lib/gcc/arm-none-eabi/4.9.3/armv7e-m/softfp/crtn.o
 .data          0x0000000000000000        0x0 /Applications/Simplicity Studio.app/Contents/Eclipse/developer/toolchains/gnu_arm/4.9_2015q3/bin/../lib/gcc/arm-none-eabi/4.9.3/armv7e-m/softfp/crtn.o
 .bss           0x0000000000000000        0x0 /Applications/Simplicity Studio.app/Contents/Eclipse/developer/toolchains/gnu_arm/4.9_2015q3/bin/../lib/gcc/arm-none-eabi/4.9.3/armv7e-m/softfp/crtn.o

Memory Configuration

Name             Origin             Length             Attributes
FLASH            0x0000000000000000 0x000000000003f000 xr
RAM              0x0000000020003000 0x0000000000004bfc xrw
*default*        0x0000000000000000 0xffffffffffffffff

Linker script and memory map

LOAD /Applications/Simplicity Studio.app/Contents/Eclipse/developer/toolchains/gnu_arm/4.9_2015q3/bin/../lib/gcc/arm-none-eabi/4.9.3/armv7e-m/softfp/crti.o
LOAD /Applications/Simplicity Studio.app/Contents/Eclipse/developer/toolchains/gnu_arm/4.9_2015q3/bin/../lib/gcc/arm-none-eabi/4.9.3/armv7e-m/softfp/crtbegin.o
LOAD /Applications/Simplicity Studio.app/Contents/Eclipse/developer/toolchains/gnu_arm/4.9_2015q3/bin/../lib/gcc/arm-none-eabi/4.9.3/../../../../arm-none-eabi/lib/armv7e-m/softfp/crt0.o
LOAD ./advertisement.o
LOAD ./app.o
LOAD ./app_hw.o
LOAD ./app_ui.o
LOAD ./application_properties.o
LOAD ./beacon.o
LOAD ./ble-callback-stubs.o
LOAD ./ble-callbacks.o
LOAD ./gatt_db.o
LOAD ./graphics.o
LOAD ./htm.o
LOAD ./ia.o
LOAD ./main.o
LOAD ./bgapi/dmadrv.o
LOAD ./bgapi/em_adc.o
LOAD ./bgapi/em_ldma.o
LOAD ./bgapi/em_leuart.o
LOAD ./device/EFR32_B_1_1_P/gcc/startup_efr32bg1p.o
LOAD ./emlib/em_cmu.o
LOAD ./emlib/em_cryotimer.o
LOAD ./emlib/em_gpio.o
LOAD ./emlib/em_i2c.o
LOAD ./emlib/em_msc.o
LOAD ./emlib/em_rtcc.o
LOAD ./emlib/em_system.o
LOAD ./emlib/em_usart.o
LOAD ./glib/BRD4100A/bmp.o
LOAD ./glib/BRD4100A/dmd_display.o
LOAD ./glib/BRD4100A/glib.o
LOAD ./glib/BRD4100A/glib_bitmap.o
LOAD ./glib/BRD4100A/glib_circle.o
LOAD ./glib/BRD4100A/glib_font_narrow_6x8.o
LOAD ./glib/BRD4100A/glib_font_normal_8x8.o
LOAD ./glib/BRD4100A/glib_font_number_16x20.o
LOAD ./glib/BRD4100A/glib_line.o
LOAD ./glib/BRD4100A/glib_polygon.o
LOAD ./glib/BRD4100A/glib_rectangle.o
LOAD ./glib/BRD4100A/glib_string.o
LOAD ./kit/BRD4100A/bsp_bcc.o
LOAD ./kit/BRD4100A/bsp_stk.o
LOAD ./kit/BRD4100A/bsp_stk_leds.o
LOAD ./kit/BRD4100A/i2cspm.o
LOAD ./kit/BRD4100A/si7013.o
LOAD ./kit/BRD4100A/tempsens.o
LOAD ./kit/BRD4100A/udelay.o
LOAD ./kit_flashpwr/BRD4100A/mx25flash_spi.o
LOAD ./kit_lcd/BRD4100A/display.o
LOAD ./kit_lcd/BRD4100A/displayls013b7dh03.o
LOAD ./kit_lcd/BRD4100A/displaypalemlib.o
LOAD ./src/InitDevice.o
LOAD /Applications/Simplicity Studio.app/Contents/Eclipse/developer/sdks/gecko_sdk_suite/v1.0//protocol/bluetooth_2.3/lib/EFR32BG1P/GCC/bgapi.a
LOAD /Applications/Simplicity Studio.app/Contents/Eclipse/developer/sdks/gecko_sdk_suite/v1.0//protocol/bluetooth_2.3/lib/EFR32BG1P/EABI/stack.a
LOAD /Applications/Simplicity Studio.app/Contents/Eclipse/developer/sdks/gecko_sdk_suite/v1.0//protocol/bluetooth_2.3/lib/EFR32BG1P/EABI/binstack.o
LOAD /Applications/Simplicity Studio.app/Contents/Eclipse/developer/sdks/gecko_sdk_suite/v1.0//protocol/bluetooth_2.3/lib/EFR32BG1P/EABI/binbootloader.o
LOAD /Applications/Simplicity Studio.app/Contents/Eclipse/developer/toolchains/gnu_arm/4.9_2015q3/bin/../lib/gcc/arm-none-eabi/4.9.3/../../../../arm-none-eabi/lib/armv7e-m/softfp/libm.a
START GROUP
LOAD /Applications/Simplicity Studio.app/Contents/Eclipse/developer/toolchains/gnu_arm/4.9_2015q3/bin/../lib/gcc/arm-none-eabi/4.9.3/armv7e-m/softfp/libgcc.a
LOAD /Applications/Simplicity Studio.app/Contents/Eclipse/developer/toolchains/gnu_arm/4.9_2015q3/bin/../lib/gcc/arm-none-eabi/4.9.3/../../../../arm-none-eabi/lib/armv7e-m/softfp/libc.a
LOAD /Applications/Simplicity Studio.app/Contents/Eclipse/developer/toolchains/gnu_arm/4.9_2015q3/bin/../lib/gcc/arm-none-eabi/4.9.3/../../../../arm-none-eabi/lib/armv7e-m/softfp/libnosys.a
END GROUP
START GROUP
LOAD /Applications/Simplicity Studio.app/Contents/Eclipse/developer/toolchains/gnu_arm/4.9_2015q3/bin/../lib/gcc/arm-none-eabi/4.9.3/armv7e-m/softfp/libgcc.a
LOAD /Applications/Simplicity Studio.app/Contents/Eclipse/developer/toolchains/gnu_arm/4.9_2015q3/bin/../lib/gcc/arm-none-eabi/4.9.3/../../../../arm-none-eabi/lib/armv7e-m/softfp/libg.a
LOAD /Applications/Simplicity Studio.app/Contents/Eclipse/developer/toolchains/gnu_arm/4.9_2015q3/bin/../lib/gcc/arm-none-eabi/4.9.3/../../../../arm-none-eabi/lib/armv7e-m/softfp/libc.a
END GROUP
LOAD /Applications/Simplicity Studio.app/Contents/Eclipse/developer/toolchains/gnu_arm/4.9_2015q3/bin/../lib/gcc/arm-none-eabi/4.9.3/armv7e-m/softfp/crtend.o
LOAD /Applications/Simplicity Studio.app/Contents/Eclipse/developer/toolchains/gnu_arm/4.9_2015q3/bin/../lib/gcc/arm-none-eabi/4.9.3/armv7e-m/softfp/crtn.o

.text_bootloader
                0x0000000000000000     0x4000
 *(.binbootloader*)
 .binbootloader
                0x0000000000000000      0x31c /Applications/Simplicity Studio.app/Contents/Eclipse/developer/sdks/gecko_sdk_suite/v1.0//protocol/bluetooth_2.3/lib/EFR32BG1P/EABI/binbootloader.o
                0x0000000000004000                . = ALIGN (0x4000)
 *fill*         0x000000000000031c     0x3ce4 

.text_stack_bin
                0x0000000000004000    0x1d000
 *(.binstack*)
 .binstack      0x0000000000004000    0x1cc10 /Applications/Simplicity Studio.app/Contents/Eclipse/developer/sdks/gecko_sdk_suite/v1.0//protocol/bluetooth_2.3/lib/EFR32BG1P/EABI/binstack.o
                0x0000000000021000                . = ALIGN (0x800)
 *fill*         0x0000000000020c10      0x3f0 
                0x0000000000021000                __text_start__ = .

.text_app       0x0000000000021000     0xcc64
 *(.AAT)
 .AAT           0x0000000000021000       0x80 ./main.o
                0x0000000000021000                AppAddressTable
 *(.vectors)
 .vectors       0x0000000000021080       0xc8 ./device/EFR32_B_1_1_P/gcc/startup_efr32bg1p.o
                0x0000000000021080                __Vectors
                0x0000000000021148                __Vectors_End = .
                0x00000000000000c8                __Vectors_Size = (__Vectors_End - __Vectors)
                0x0000000000021148                __end__ = .
 *(.gecko_configuration)
 *(.xo_configuration)
 *(.gatt_header)
 .gatt_header   0x0000000000021148       0x30 ./gatt_db.o
                0x0000000000021148                bg_gattdb_data
 *(.gatt_data)
 .gatt_data     0x0000000000021178      0x272 ./gatt_db.o
                0x0000000000021178                bg_gattdb_data_adv_uuid128_map
                0x000000000002117c                bg_gattdb_data_adv_uuid16_map
                0x0000000000021184                bg_gattdb_data_attributes_dynamic_mapping_map
                0x0000000000021194                bg_gattdb_data_attributes_map
                0x00000000000212d8                bg_gattdb_data_attribute_field_0
                0x00000000000212dc                bg_gattdb_data_attribute_field_1
                0x00000000000212e4                bg_gattdb_data_attribute_field_2
                0x00000000000212ec                bg_gattdb_data_attribute_field_4
                0x00000000000212f0                bg_gattdb_data_attribute_field_5
                0x00000000000212f8                bg_gattdb_data_attribute_field_6
                0x0000000000021300                bg_gattdb_data_attribute_field_7
                0x0000000000021308                bg_gattdb_data_attribute_field_8
                0x000000000002130c                bg_gattdb_data_attribute_field_9
                0x0000000000021310                bg_gattdb_data_attribute_field_10
                0x0000000000021318                bg_gattdb_data_attribute_field_11
                0x0000000000021328                bg_gattdb_data_attribute_field_12
                0x000000000002132c                bg_gattdb_data_attribute_field_13
                0x0000000000021334                bg_gattdb_data_attribute_field_14
                0x000000000002133c                bg_gattdb_data_attribute_field_16
                0x0000000000021344                bg_gattdb_data_attribute_field_17
                0x000000000002134c                bg_gattdb_data_attribute_field_18
                0x0000000000021350                bg_gattdb_data_attribute_field_19
                0x0000000000021358                bg_gattdb_data_attribute_field_20
                0x0000000000021360                bg_gattdb_data_attribute_field_21
                0x0000000000021374                bg_gattdb_data_attribute_field_22
                0x000000000002138c                bg_gattdb_data_attribute_field_23
                0x0000000000021394                bg_gattdb_data_attribute_field_24
                0x0000000000021398                bg_gattdb_data_attribute_field_25
                0x00000000000213a0                bg_gattdb_data_attribute_field_26
                0x00000000000213a8                bg_gattdb_data_uuidtable_128_map
                0x00000000000213c8                bg_gattdb_data_uuidtable_16_map
 *(.text*)
 *fill*         0x00000000000213ea        0x2 
 .text          0x00000000000213ec       0x5c /Applications/Simplicity Studio.app/Contents/Eclipse/developer/toolchains/gnu_arm/4.9_2015q3/bin/../lib/gcc/arm-none-eabi/4.9.3/armv7e-m/softfp/crtbegin.o
 .text          0x0000000000021448       0x74 /Applications/Simplicity Studio.app/Contents/Eclipse/developer/toolchains/gnu_arm/4.9_2015q3/bin/../lib/gcc/arm-none-eabi/4.9.3/../../../../arm-none-eabi/lib/armv7e-m/softfp/crt0.o
                0x0000000000021448                _mainCRTStartup
                0x0000000000021448                _start
 .text.advSetup
                0x00000000000214bc       0x4c ./advertisement.o
                0x00000000000214bc                advSetup
 .text.advSwitchAdvMessage
                0x0000000000021508       0x44 ./advertisement.o
                0x0000000000021508                advSwitchAdvMessage
 .text.advConnectionStarted
                0x000000000002154c        0xc ./advertisement.o
                0x000000000002154c                advConnectionStarted
 .text.appInit  0x0000000000021558       0x88 ./app.o
                0x0000000000021558                appInit
 .text.manage_power_led
                0x00000000000215e0       0x70 ./app.o
                0x00000000000215e0                manage_power_led
 .text.manage_alarm_led
                0x0000000000021650       0x80 ./app.o
                0x0000000000021650                manage_alarm_led
 .text.rtcIntCallbackRegister
                0x00000000000216d0        0x4 ./app.o
                0x00000000000216d0                rtcIntCallbackRegister
 .text.LEUART_Setup
                0x00000000000216d4       0xb0 ./app.o
                0x00000000000216d4                LEUART_Setup
 .text.LDMA_SetUp
                0x0000000000021784       0x84 ./app.o
                0x0000000000021784                LDMA_SetUp
 .text.appHandleEvents
                0x0000000000021808      0x260 ./app.o
                0x0000000000021808                appHandleEvents
 .text.LEUART0_IRQHandler
                0x0000000000021a68       0x4c ./app.o
                0x0000000000021a68                LEUART0_IRQHandler
 .text.appBtnCback
                0x0000000000021ab4        0xc ./app_hw.o
 .text.appHwInit
                0x0000000000021ac0       0x34 ./app_hw.o
                0x0000000000021ac0                appHwInit
 .text.appUiBtnRegister
                0x0000000000021af4        0xc ./app_ui.o
                0x0000000000021af4                appUiBtnRegister
 .text.appUiLedOff
                0x0000000000021b00       0x10 ./app_ui.o
                0x0000000000021b00                appUiLedOff
 .text.appUiLedLowAlert
                0x0000000000021b10       0x10 ./app_ui.o
                0x0000000000021b10                appUiLedLowAlert
 .text.appUiLedHighAlert
                0x0000000000021b20       0x10 ./app_ui.o
                0x0000000000021b20                appUiLedHighAlert
 .text.appUiInit
                0x0000000000021b30       0x4c ./app_ui.o
                0x0000000000021b30                appUiInit
 .text.appUiTick
                0x0000000000021b7c      0x16c ./app_ui.o
                0x0000000000021b7c                appUiTick
 .text.appUiWriteString
                0x0000000000021ce8        0x4 ./app_ui.o
                0x0000000000021ce8                appUiWriteString
 .text.bcnSetupAdvBeaconing
                0x0000000000021cec       0x80 ./beacon.o
                0x0000000000021cec                bcnSetupAdvBeaconing
 .text.graphPrintCenter.constprop.0
                0x0000000000021d6c       0x94 ./graphics.o
 .text.graphInit
                0x0000000000021e00       0x44 ./graphics.o
                0x0000000000021e00                graphInit
 .text.graphWriteString
                0x0000000000021e44       0x34 ./graphics.o
                0x0000000000021e44                graphWriteString
 .text.htmInit  0x0000000000021e78       0x34 ./htm.o
                0x0000000000021e78                htmInit
 .text.htmProcMsg
                0x0000000000021eac       0xc0 ./htm.o
                0x0000000000021eac                htmProcMsg
 .text.htmTemperatureMeasure.part.0
                0x0000000000021f6c       0x94 ./htm.o
 .text.htmTemperatureMeasure
                0x0000000000022000       0x14 ./htm.o
                0x0000000000022000                htmTemperatureMeasure
 .text.htmTemperatureCharStatusChange
                0x0000000000022014       0x3c ./htm.o
                0x0000000000022014                htmTemperatureCharStatusChange
 .text.iaImmediateAlertWrite
                0x0000000000022050       0x44 ./ia.o
                0x0000000000022050                iaImmediateAlertWrite
 .text.startup.main
                0x0000000000022094       0x5c ./main.o
                0x0000000000022094                main
 .text.StartTransfer
                0x00000000000220f0      0x1dc ./bgapi/dmadrv.o
 .text.DMADRV_AllocateChannel
                0x00000000000222cc       0x60 ./bgapi/dmadrv.o
                0x00000000000222cc                DMADRV_AllocateChannel
 .text.DMADRV_Init
                0x000000000002232c       0x60 ./bgapi/dmadrv.o
                0x000000000002232c                DMADRV_Init
 .text.DMADRV_MemoryPeripheral
                0x000000000002238c       0x34 ./bgapi/dmadrv.o
                0x000000000002238c                DMADRV_MemoryPeripheral
 .text.DMADRV_PeripheralMemory
                0x00000000000223c0       0x34 ./bgapi/dmadrv.o
                0x00000000000223c0                DMADRV_PeripheralMemory
 .text.DMADRV_StopTransfer
                0x00000000000223f4       0x44 ./bgapi/dmadrv.o
                0x00000000000223f4                DMADRV_StopTransfer
 .text.DMADRV_TransferRemainingCount
                0x0000000000022438       0x50 ./bgapi/dmadrv.o
                0x0000000000022438                DMADRV_TransferRemainingCount
 .text.LDMA_IRQHandler
                0x0000000000022488       0x7c ./bgapi/dmadrv.o
                0x0000000000022488                LDMA_IRQHandler
 .text.ADC_LoadDevinfoCal
                0x0000000000022504       0xf4 ./bgapi/em_adc.o
 .text.ADC_InitSingle
                0x00000000000225f8       0xb4 ./bgapi/em_adc.o
                0x00000000000225f8                ADC_InitSingle
 .text.ADC_PrescaleCalc
                0x00000000000226ac       0x4c ./bgapi/em_adc.o
                0x00000000000226ac                ADC_PrescaleCalc
 .text.ADC_Init
                0x00000000000226f8       0x68 ./bgapi/em_adc.o
                0x00000000000226f8                ADC_Init
 .text.LDMA_Init
                0x0000000000022760       0x58 ./bgapi/em_ldma.o
                0x0000000000022760                LDMA_Init
 .text.LDMA_StartTransfer
                0x00000000000227b8       0xa8 ./bgapi/em_ldma.o
                0x00000000000227b8                LDMA_StartTransfer
 .text.LDMA_StopTransfer
                0x0000000000022860       0x28 ./bgapi/em_ldma.o
                0x0000000000022860                LDMA_StopTransfer
 .text.LDMA_TransferRemainingCount
                0x0000000000022888       0x40 ./bgapi/em_ldma.o
                0x0000000000022888                LDMA_TransferRemainingCount
 .text.LEUART_BaudrateSet
                0x00000000000228c8       0x54 ./bgapi/em_leuart.o
                0x00000000000228c8                LEUART_BaudrateSet
 .text.LEUART_Enable
                0x000000000002291c       0x1c ./bgapi/em_leuart.o
                0x000000000002291c                LEUART_Enable
 .text.LEUART_Init
                0x0000000000022938       0x4c ./bgapi/em_leuart.o
                0x0000000000022938                LEUART_Init
 .text.LEUART_RxDmaInEM2Enable
                0x0000000000022984       0x28 ./bgapi/em_leuart.o
                0x0000000000022984                LEUART_RxDmaInEM2Enable
 .text.Default_Handler
                0x00000000000229ac        0x4 ./device/EFR32_B_1_1_P/gcc/startup_efr32bg1p.o
                0x00000000000229ac                IDAC0_IRQHandler
                0x00000000000229ac                USART0_TX_IRQHandler
                0x00000000000229ac                I2C0_IRQHandler
                0x00000000000229ac                HardFault_Handler
                0x00000000000229ac                SysTick_Handler
                0x00000000000229ac                USART1_RX_IRQHandler
                0x00000000000229ac                PendSV_Handler
                0x00000000000229ac                NMI_Handler
                0x00000000000229ac                SYNTH_IRQHandler
                0x00000000000229ac                WDOG0_IRQHandler
                0x00000000000229ac                USART1_TX_IRQHandler
                0x00000000000229ac                MSC_IRQHandler
                0x00000000000229ac                ADC0_IRQHandler
                0x00000000000229ac                UsageFault_Handler
                0x00000000000229ac                FPUEH_IRQHandler
                0x00000000000229ac                GPIO_EVEN_IRQHandler
                0x00000000000229ac                TIMER0_IRQHandler
                0x00000000000229ac                LETIMER0_IRQHandler
                0x00000000000229ac                TIMER1_IRQHandler
                0x00000000000229ac                RFSENSE_IRQHandler
                0x00000000000229ac                BUFC_IRQHandler
                0x00000000000229ac                MODEM_IRQHandler
                0x00000000000229ac                Default_Handler
                0x00000000000229ac                RAC_SEQ_IRQHandler
                0x00000000000229ac                FRC_PRI_IRQHandler
                0x00000000000229ac                FRC_IRQHandler
                0x00000000000229ac                CRYOTIMER_IRQHandler
                0x00000000000229ac                PCNT0_IRQHandler
                0x00000000000229ac                AGC_IRQHandler
                0x00000000000229ac                ACMP0_IRQHandler
                0x00000000000229ac                USART0_RX_IRQHandler
                0x00000000000229ac                MemManage_Handler
                0x00000000000229ac                SVC_Handler
                0x00000000000229ac                RTCC_IRQHandler
                0x00000000000229ac                CRYPTO_IRQHandler
                0x00000000000229ac                CMU_IRQHandler
                0x00000000000229ac                RAC_RSM_IRQHandler
                0x00000000000229ac                GPIO_ODD_IRQHandler
                0x00000000000229ac                PROTIMER_IRQHandler
                0x00000000000229ac                BusFault_Handler
                0x00000000000229ac                DebugMon_Handler
 .text.Reset_Handler
                0x00000000000229b0       0x34 ./device/EFR32_B_1_1_P/gcc/startup_efr32bg1p.o
                0x00000000000229b0                Reset_Handler
 .text.flashWaitStateMax
                0x00000000000229e4       0x40 ./emlib/em_cmu.o
 .text.CMU_OscillatorTuningSet.part.2
                0x0000000000022a24       0x44 ./emlib/em_cmu.o
 .text.CMU_ClockEnable
                0x0000000000022a68       0x8c ./emlib/em_cmu.o
                0x0000000000022a68                CMU_ClockEnable
 .text.CMU_ClockPrescGet
                0x0000000000022af4       0x94 ./emlib/em_cmu.o
                0x0000000000022af4                CMU_ClockPrescGet
 .text.CMU_ClockDivGet
                0x0000000000022b88        0xc ./emlib/em_cmu.o
                0x0000000000022b88                CMU_ClockDivGet
 .text.CMU_ClockSelectGet
                0x0000000000022b94       0xa4 ./emlib/em_cmu.o
                0x0000000000022b94                CMU_ClockSelectGet
 .text.lfClkGet
                0x0000000000022c38       0x94 ./emlib/em_cmu.o
 .text.CMU_ClockFreqGet
                0x0000000000022ccc      0x128 ./emlib/em_cmu.o
                0x0000000000022ccc                CMU_ClockFreqGet
 .text.CMU_ClockPrescSet
                0x0000000000022df4      0x1ec ./emlib/em_cmu.o
                0x0000000000022df4                CMU_ClockPrescSet
 .text.CMU_ClockDivSet
                0x0000000000022fe0        0x8 ./emlib/em_cmu.o
                0x0000000000022fe0                CMU_ClockDivSet
 .text.CMU_OscillatorTuningWait
                0x0000000000022fe8       0x60 ./emlib/em_cmu.o
                0x0000000000022fe8                CMU_OscillatorTuningWait
 .text.CMU_OscillatorEnable
                0x0000000000023048      0x110 ./emlib/em_cmu.o
                0x0000000000023048                CMU_OscillatorEnable
 .text.CMU_ClockSelectSet
                0x0000000000023158      0x158 ./emlib/em_cmu.o
                0x0000000000023158                CMU_ClockSelectSet
 .text.CMU_HFXOInit
                0x00000000000232b0       0xec ./emlib/em_cmu.o
                0x00000000000232b0                CMU_HFXOInit
 .text.CMU_LFXOInit
                0x000000000002339c       0x40 ./emlib/em_cmu.o
                0x000000000002339c                CMU_LFXOInit
 .text.GPIO_PinModeSet
                0x00000000000233dc       0x8c ./emlib/em_gpio.o
                0x00000000000233dc                GPIO_PinModeSet
 .text.I2C_BusFreqSet.part.0
                0x0000000000023468       0x60 ./emlib/em_i2c.o
 .text.I2C_Init
                0x00000000000234c8       0x3c ./emlib/em_i2c.o
                0x00000000000234c8                I2C_Init
 .text.I2C_Transfer
                0x0000000000023504      0x284 ./emlib/em_i2c.o
                0x0000000000023504                I2C_Transfer
 .text.I2C_TransferInit
                0x0000000000023788       0x70 ./emlib/em_i2c.o
                0x0000000000023788                I2C_TransferInit
 .text.RTCC_Enable
                0x00000000000237f8        0xc ./emlib/em_rtcc.o
                0x00000000000237f8                RTCC_Enable
 .text.RTCC_Init
                0x0000000000023804       0x48 ./emlib/em_rtcc.o
                0x0000000000023804                RTCC_Init
 .text.SYSTEM_ChipRevisionGet
                0x000000000002384c       0x34 ./emlib/em_system.o
                0x000000000002384c                SYSTEM_ChipRevisionGet
 .text.USART_BaudrateAsyncSet
                0x0000000000023880       0x68 ./emlib/em_usart.o
                0x0000000000023880                USART_BaudrateAsyncSet
 .text.USART_BaudrateCalc
                0x00000000000238e8       0x7c ./emlib/em_usart.o
                0x00000000000238e8                USART_BaudrateCalc
 .text.USART_BaudrateGet
                0x0000000000023964       0x24 ./emlib/em_usart.o
                0x0000000000023964                USART_BaudrateGet
 .text.USART_BaudrateSyncSet
                0x0000000000023988       0x3c ./emlib/em_usart.o
                0x0000000000023988                USART_BaudrateSyncSet
 .text.USART_Enable
                0x00000000000239c4       0x10 ./emlib/em_usart.o
                0x00000000000239c4                USART_Enable
 .text.USART_InitAsync
                0x00000000000239d4       0xa4 ./emlib/em_usart.o
                0x00000000000239d4                USART_InitAsync
 .text.USART_InitSync
                0x0000000000023a78       0xc8 ./emlib/em_usart.o
                0x0000000000023a78                USART_InitSync
 .text.USART_Reset
                0x0000000000023b40       0x4c ./emlib/em_usart.o
                0x0000000000023b40                USART_Reset
 .text.USART_SpiTransfer
                0x0000000000023b8c       0x14 ./emlib/em_usart.o
                0x0000000000023b8c                USART_SpiTransfer
 .text.USART_Tx
                0x0000000000023ba0        0xc ./emlib/em_usart.o
                0x0000000000023ba0                USART_Tx
 .text.USART_TxDouble
                0x0000000000023bac        0xc ./emlib/em_usart.o
                0x0000000000023bac                USART_TxDouble
 .text.DMD_writeColor.part.0
                0x0000000000023bb8      0x180 ./glib/BRD4100A/dmd_display.o
 .text.DMD_getDisplayGeometry
                0x0000000000023d38       0x1c ./glib/BRD4100A/dmd_display.o
                0x0000000000023d38                DMD_getDisplayGeometry
 .text.DMD_setClippingArea
                0x0000000000023d54       0x44 ./glib/BRD4100A/dmd_display.o
                0x0000000000023d54                DMD_setClippingArea
 .text.DMD_writeColor
                0x0000000000023d98       0x20 ./glib/BRD4100A/dmd_display.o
                0x0000000000023d98                DMD_writeColor
 .text.DMD_allocateFramebuffer
                0x0000000000023db8       0x38 ./glib/BRD4100A/dmd_display.o
                0x0000000000023db8                DMD_allocateFramebuffer
 .text.DMD_init
                0x0000000000023df0       0x78 ./glib/BRD4100A/dmd_display.o
                0x0000000000023df0                DMD_init
 .text.DMD_updateDisplay
                0x0000000000023e68       0xc8 ./glib/BRD4100A/dmd_display.o
                0x0000000000023e68                DMD_updateDisplay
 .text.GLIB_applyClippingRegion.part.1
                0x0000000000023f30       0x1c ./glib/BRD4100A/glib.o
 .text.GLIB_setClippingRegion.part.2
                0x0000000000023f4c       0x48 ./glib/BRD4100A/glib.o
 .text.GLIB_contextInit
                0x0000000000023f94       0x58 ./glib/BRD4100A/glib.o
                0x0000000000023f94                GLIB_contextInit
 .text.GLIB_clear
                0x0000000000023fec       0x48 ./glib/BRD4100A/glib.o
                0x0000000000023fec                GLIB_clear
 .text.GLIB_drawPixel
                0x0000000000024034       0x40 ./glib/BRD4100A/glib.o
                0x0000000000024034                GLIB_drawPixel
 .text.GLIB_drawPixelColor
                0x0000000000024074       0x3c ./glib/BRD4100A/glib.o
                0x0000000000024074                GLIB_drawPixelColor
 .text.GLIB_rectContainsPoint
                0x00000000000240b0       0x24 ./glib/BRD4100A/glib_rectangle.o
                0x00000000000240b0                GLIB_rectContainsPoint
 .text.GLIB_drawChar.part.0
                0x00000000000240d4      0x164 ./glib/BRD4100A/glib_string.o
 .text.GLIB_drawString
                0x0000000000024238       0x90 ./glib/BRD4100A/glib_string.o
                0x0000000000024238                GLIB_drawString
 .text.GLIB_setFont
                0x00000000000242c8       0x30 ./glib/BRD4100A/glib_string.o
                0x00000000000242c8                GLIB_setFont
 .text.BSP_LedClear
                0x00000000000242f8       0x34 ./kit/BRD4100A/bsp_stk_leds.o
                0x00000000000242f8                BSP_LedClear
 .text.BSP_LedSet
                0x000000000002432c       0x34 ./kit/BRD4100A/bsp_stk_leds.o
                0x000000000002432c                BSP_LedSet
 .text.I2CSPM_Transfer
                0x0000000000024360       0x24 ./kit/BRD4100A/i2cspm.o
                0x0000000000024360                I2CSPM_Transfer
 .text.Si7013_Detect
                0x0000000000024384       0x58 ./kit/BRD4100A/si7013.o
                0x0000000000024384                Si7013_Detect
 .text.UDELAY_Calibrate
                0x00000000000243dc      0x1c0 ./kit/BRD4100A/udelay.o
                0x00000000000243dc                UDELAY_Calibrate
 .text.UDELAY_Delay
                0x000000000002459c       0x28 ./kit/BRD4100A/udelay.o
                0x000000000002459c                UDELAY_Delay
 .text.MX25_init
                0x00000000000245c4       0xa4 ./kit_flashpwr/BRD4100A/mx25flash_spi.o
                0x00000000000245c4                MX25_init
 .text.MX25_DP  0x0000000000024668       0x20 ./kit_flashpwr/BRD4100A/mx25flash_spi.o
                0x0000000000024668                MX25_DP
 .text.DISPLAY_Init
                0x0000000000024688       0x34 ./kit_lcd/BRD4100A/display.o
                0x0000000000024688                DISPLAY_Init
 .text.DISPLAY_DeviceGet
                0x00000000000246bc       0x50 ./kit_lcd/BRD4100A/display.o
                0x00000000000246bc                DISPLAY_DeviceGet
 .text.DISPLAY_DeviceRegister
                0x000000000002470c       0x5c ./kit_lcd/BRD4100A/display.o
                0x000000000002470c                DISPLAY_DeviceRegister
 .text.PixelMatrixAllocate
                0x0000000000024768       0x3c ./kit_lcd/BRD4100A/displayls013b7dh03.o
 .text.PixelMatrixFree
                0x00000000000247a4        0x8 ./kit_lcd/BRD4100A/displayls013b7dh03.o
 .text.DriverRefresh
                0x00000000000247ac       0x10 ./kit_lcd/BRD4100A/displayls013b7dh03.o
 .text.PixelMatrixClear
                0x00000000000247bc       0x20 ./kit_lcd/BRD4100A/displayls013b7dh03.o
 .text.PixelMatrixDraw
                0x00000000000247dc       0x8c ./kit_lcd/BRD4100A/displayls013b7dh03.o
 .text.DisplayPolarityInverse
                0x0000000000024868       0x10 ./kit_lcd/BRD4100A/displayls013b7dh03.o
 .text.DisplayEnable.part.0
                0x0000000000024878       0x18 ./kit_lcd/BRD4100A/displayls013b7dh03.o
 .text.DisplayEnable
                0x0000000000024890       0x24 ./kit_lcd/BRD4100A/displayls013b7dh03.o
 .text.DISPLAY_Ls013b7dh03Init
                0x00000000000248b4       0xfc ./kit_lcd/BRD4100A/displayls013b7dh03.o
                0x00000000000248b4                DISPLAY_Ls013b7dh03Init
 .text.PAL_SpiInit
                0x00000000000249b0       0x50 ./kit_lcd/BRD4100A/displaypalemlib.o
                0x00000000000249b0                PAL_SpiInit
 .text.PAL_SpiTransmit
                0x0000000000024a00       0x40 ./kit_lcd/BRD4100A/displaypalemlib.o
                0x0000000000024a00                PAL_SpiTransmit
 .text.PAL_TimerInit
                0x0000000000024a40        0xc ./kit_lcd/BRD4100A/displaypalemlib.o
                0x0000000000024a40                PAL_TimerInit
 .text.PAL_TimerMicroSecondsDelay
                0x0000000000024a4c        0xc ./kit_lcd/BRD4100A/displaypalemlib.o
                0x0000000000024a4c                PAL_TimerMicroSecondsDelay
 .text.PAL_TimerRepeat
                0x0000000000024a58       0x18 ./kit_lcd/BRD4100A/displaypalemlib.o
                0x0000000000024a58                PAL_TimerRepeat
 .text.PAL_GpioInit
                0x0000000000024a70       0x14 ./kit_lcd/BRD4100A/displaypalemlib.o
                0x0000000000024a70                PAL_GpioInit
 .text.PAL_GpioPinModeSet
                0x0000000000024a84       0x18 ./kit_lcd/BRD4100A/displaypalemlib.o
                0x0000000000024a84                PAL_GpioPinModeSet
 .text.PAL_GpioPinOutSet
                0x0000000000024a9c       0x1c ./kit_lcd/BRD4100A/displaypalemlib.o
                0x0000000000024a9c                PAL_GpioPinOutSet
 .text.PAL_GpioPinOutClear
                0x0000000000024ab8       0x18 ./kit_lcd/BRD4100A/displaypalemlib.o
                0x0000000000024ab8                PAL_GpioPinOutClear
 .text.PAL_GpioPinOutToggle
                0x0000000000024ad0       0x18 ./kit_lcd/BRD4100A/displaypalemlib.o
                0x0000000000024ad0                PAL_GpioPinOutToggle
 .text.EMU_enter_DefaultMode_from_RESET
                0x0000000000024ae8       0x54 ./src/InitDevice.o
                0x0000000000024ae8                EMU_enter_DefaultMode_from_RESET
 .text.CMU_enter_DefaultMode_from_RESET
                0x0000000000024b3c      0x120 ./src/InitDevice.o
                0x0000000000024b3c                CMU_enter_DefaultMode_from_RESET
 .text.RTCC_enter_DefaultMode_from_RESET
                0x0000000000024c5c       0x44 ./src/InitDevice.o
                0x0000000000024c5c                RTCC_enter_DefaultMode_from_RESET
 .text.I2C0_enter_DefaultMode_from_RESET
                0x0000000000024ca0       0x60 ./src/InitDevice.o
                0x0000000000024ca0                I2C0_enter_DefaultMode_from_RESET
 .text.PORTIO_enter_DefaultMode_from_RESET
                0x0000000000024d00       0x5c ./src/InitDevice.o
                0x0000000000024d00                PORTIO_enter_DefaultMode_from_RESET
 .text.enter_DefaultMode_from_RESET
                0x0000000000024d5c       0xa0 ./src/InitDevice.o
                0x0000000000024d5c                enter_DefaultMode_from_RESET
 .text          0x0000000000024dfc       0x60 /Applications/Simplicity Studio.app/Contents/Eclipse/developer/sdks/gecko_sdk_suite/v1.0//protocol/bluetooth_2.3/lib/EFR32BG1P/GCC/bgapi.a(gecko_bgapi_hardware.c.obj)
                0x0000000000024e44                gecko_bgapi_class_hardware_init
 .text          0x0000000000024e5c       0x60 /Applications/Simplicity Studio.app/Contents/Eclipse/developer/sdks/gecko_sdk_suite/v1.0//protocol/bluetooth_2.3/lib/EFR32BG1P/GCC/bgapi.a(gecko_bgapi_test.c.obj)
                0x0000000000024ea4                gecko_bgapi_class_test_init
 .text          0x0000000000024ebc       0x60 /Applications/Simplicity Studio.app/Contents/Eclipse/developer/sdks/gecko_sdk_suite/v1.0//protocol/bluetooth_2.3/lib/EFR32BG1P/GCC/bgapi.a(gecko_bgapi_util.c.obj)
                0x0000000000024f04                gecko_bgapi_class_util_init
 .text          0x0000000000024f1c       0x60 /Applications/Simplicity Studio.app/Contents/Eclipse/developer/sdks/gecko_sdk_suite/v1.0//protocol/bluetooth_2.3/lib/EFR32BG1P/GCC/bgapi.a(gecko_bgapi_dfu.c.obj)
                0x0000000000024f64                gecko_bgapi_class_dfu_init
 .text          0x0000000000024f7c       0x60 /Applications/Simplicity Studio.app/Contents/Eclipse/developer/sdks/gecko_sdk_suite/v1.0//protocol/bluetooth_2.3/lib/EFR32BG1P/GCC/bgapi.a(gecko_bgapi_gap.c.obj)
                0x0000000000024fc4                gecko_bgapi_class_le_gap_init
 .text          0x0000000000024fdc       0x60 /Applications/Simplicity Studio.app/Contents/Eclipse/developer/sdks/gecko_sdk_suite/v1.0//protocol/bluetooth_2.3/lib/EFR32BG1P/GCC/bgapi.a(gecko_bgapi_gatt.c.obj)
                0x0000000000025024                gecko_bgapi_class_gatt_init
 .text          0x000000000002503c       0x60 /Applications/Simplicity Studio.app/Contents/Eclipse/developer/sdks/gecko_sdk_suite/v1.0//protocol/bluetooth_2.3/lib/EFR32BG1P/GCC/bgapi.a(gecko_bgapi_gatt_server.c.obj)
                0x0000000000025084                gecko_bgapi_class_gatt_server_init
 .text          0x000000000002509c       0x60 /Applications/Simplicity Studio.app/Contents/Eclipse/developer/sdks/gecko_sdk_suite/v1.0//protocol/bluetooth_2.3/lib/EFR32BG1P/GCC/bgapi.a(gecko_bgapi_flash.c.obj)
                0x00000000000250e4                gecko_bgapi_class_flash_init
 .text          0x00000000000250fc       0x60 /Applications/Simplicity Studio.app/Contents/Eclipse/developer/sdks/gecko_sdk_suite/v1.0//protocol/bluetooth_2.3/lib/EFR32BG1P/GCC/bgapi.a(gecko_bgapi_sm.c.obj)
                0x0000000000025144                gecko_bgapi_class_sm_init
 .text          0x000000000002515c       0x60 /Applications/Simplicity Studio.app/Contents/Eclipse/developer/sdks/gecko_sdk_suite/v1.0//protocol/bluetooth_2.3/lib/EFR32BG1P/GCC/bgapi.a(gecko_bgapi_system.c.obj)
                0x00000000000251a4                gecko_bgapi_class_system_init
 .text          0x00000000000251bc       0x60 /Applications/Simplicity Studio.app/Contents/Eclipse/developer/sdks/gecko_sdk_suite/v1.0//protocol/bluetooth_2.3/lib/EFR32BG1P/GCC/bgapi.a(gecko_bgapi_endpoint.c.obj)
                0x0000000000025204                gecko_bgapi_class_endpoint_init
 .text          0x000000000002521c       0x60 /Applications/Simplicity Studio.app/Contents/Eclipse/developer/sdks/gecko_sdk_suite/v1.0//protocol/bluetooth_2.3/lib/EFR32BG1P/GCC/bgapi.a(gecko_bgapi_le_connection.c.obj)
                0x0000000000025264                gecko_bgapi_class_le_connection_init
 .text          0x000000000002527c      0x388 /Applications/Simplicity Studio.app/Contents/Eclipse/developer/sdks/gecko_sdk_suite/v1.0//protocol/bluetooth_2.3/lib/EFR32BG1P/GCC/bgapi.a(bgapi_hardware_lib.c.obj)
                0x000000000002527c                gecko_cmd_hardware_read_i2c
                0x00000000000252e4                gecko_cmd_hardware_write_i2c
                0x0000000000025328                gecko_cmd_hardware_stop_i2c
                0x0000000000025360                gecko_cmd_hardware_read_adc
                0x00000000000253a0                gecko_cmd_hardware_read_adc_channel
                0x00000000000253d0                gecko_cmd_hardware_config_adc_reference
                0x00000000000253fc                gecko_cmd_hardware_configure_gpio
                0x0000000000025430                gecko_cmd_hardware_write_gpio
                0x0000000000025494                gecko_cmd_hardware_read_gpio
                0x00000000000254f4                gecko_cmd_hardware_set_uart_configuration
                0x000000000002556c                clock_outputs_init
                0x00000000000255b4                bgapi_hardware_init
 .text          0x0000000000025604      0x1d0 /Applications/Simplicity Studio.app/Contents/Eclipse/developer/sdks/gecko_sdk_suite/v1.0//protocol/bluetooth_2.3/lib/EFR32BG1P/GCC/bgapi.a(bgapi_hardware.c.obj)
                0x0000000000025604                soft_timer_comparison
                0x0000000000025698                bgapi_hardware_soft_timer_listener
                0x00000000000256d8                lib_hardware_handler_init
                0x00000000000256ec                gecko_cmd_hardware_set_soft_timer
                0x000000000002572c                gecko_cmd_hardware_set_lazy_soft_timer
                0x000000000002576c                gecko_cmd_hardware_get_time
                0x00000000000257a0                gecko_cmd_hardware_enable_dcdc
 .text          0x00000000000257d4      0x200 /Applications/Simplicity Studio.app/Contents/Eclipse/developer/sdks/gecko_sdk_suite/v1.0//protocol/bluetooth_2.3/lib/EFR32BG1P/GCC/bgapi.a(bgapi_test_lib.c.obj)
                0x00000000000257d4                lib_test_handler_init
                0x00000000000257d6                disable_interrupts
                0x00000000000257fa                gecko_cmd_test_dtm_tx
                0x000000000002582c                gecko_cmd_test_dtm_rx
                0x000000000002585c                gecko_cmd_test_dtm_end
                0x0000000000025888                gecko_cmd_test_debug_command
                0x0000000000025958                gecko_cmd_test_debug_counter
 .text          0x00000000000259d4      0x158 /Applications/Simplicity Studio.app/Contents/Eclipse/developer/sdks/gecko_sdk_suite/v1.0//protocol/bluetooth_2.3/lib/EFR32BG1P/GCC/bgapi.a(bgapi_util.c.obj)
                0x0000000000025a0c                lib_util_handler_init
                0x0000000000025a0e                gecko_cmd_util_atoi
                0x0000000000025a64                gecko_cmd_util_itoa
 .text          0x0000000000025b2c       0x8c /Applications/Simplicity Studio.app/Contents/Eclipse/developer/sdks/gecko_sdk_suite/v1.0//protocol/bluetooth_2.3/lib/EFR32BG1P/GCC/bgapi.a(bgapi_dfu.c.obj)
                0x0000000000025b2c                lib_dfu_handler_init
                0x0000000000025b2e                gecko_cmd_dfu_reset
                0x0000000000025b34                gecko_cmd_dfu_flash_set_address
                0x0000000000025b60                gecko_cmd_dfu_flash_upload
                0x0000000000025b8c                gecko_cmd_dfu_flash_upload_finish
 .text          0x0000000000025bb8      0x308 /Applications/Simplicity Studio.app/Contents/Eclipse/developer/sdks/gecko_sdk_suite/v1.0//protocol/bluetooth_2.3/lib/EFR32BG1P/GCC/bgapi.a(bgapi_gap.c.obj)
                0x0000000000025bb8                lib_le_gap_handler_init
                0x0000000000025bba                gecko_cmd_le_gap_set_mode
                0x0000000000025c00                gecko_cmd_le_gap_bt5_set_mode
                0x0000000000025c40                gecko_cmd_le_gap_set_adv_data
                0x0000000000025c74                gecko_cmd_le_gap_bt5_set_adv_data
                0x0000000000025ca8                gecko_cmd_le_gap_set_adv_timeout
                0x0000000000025cfc                gecko_cmd_le_gap_open
                0x0000000000025d64                gecko_cmd_le_gap_discover
                0x0000000000025d90                gecko_cmd_le_gap_end_procedure
                0x0000000000025dbc                gecko_cmd_le_gap_set_adv_parameters
                0x0000000000025df0                gecko_cmd_le_gap_bt5_set_adv_parameters
                0x0000000000025e2c                gecko_cmd_le_gap_set_scan_parameters
                0x0000000000025e5c                gecko_cmd_le_gap_set_conn_parameters
                0x0000000000025e94                gecko_cmd_le_gap_set_phy
 .text          0x0000000000025ec0      0x644 /Applications/Simplicity Studio.app/Contents/Eclipse/developer/sdks/gecko_sdk_suite/v1.0//protocol/bluetooth_2.3/lib/EFR32BG1P/GCC/bgapi.a(bgapi_gatt_lib.c.obj)
                0x0000000000025ec0                lib_gatt_handler_init
                0x0000000000025ec2                lib_gatt_server_handler_init
                0x0000000000025ec4                gecko_cmd_gatt_set_max_mtu
                0x0000000000025f00                gecko_cmd_gatt_discover_primary_services
                0x0000000000025f30                gecko_cmd_gatt_discover_primary_services_by_uuid
                0x0000000000025f6c                gecko_cmd_gatt_find_included_services
                0x0000000000025fa0                gecko_cmd_gatt_discover_characteristics
                0x0000000000025fd4                gecko_cmd_gatt_discover_characteristics_by_uuid
                0x0000000000026014                gecko_cmd_gatt_read_characteristic_value
                0x000000000002604c                gecko_cmd_gatt_read_characteristic_value_from_offset
                0x0000000000026088                gecko_cmd_gatt_read_characteristic_value_by_uuid
                0x00000000000260c8                gecko_cmd_gatt_read_multiple_characteristic_values
                0x00000000000260fc                gecko_cmd_gatt_write_characteristic_value
                0x0000000000026134                gecko_cmd_gatt_write_characteristic_value_without_response
                0x0000000000026178                gecko_cmd_gatt_prepare_characteristic_value_write
                0x00000000000261c8                gecko_cmd_gatt_execute_characteristic_value_write
                0x00000000000261fc                gecko_cmd_gatt_set_characteristic_notification
                0x0000000000026234                gecko_cmd_gatt_discover_descriptors
                0x0000000000026268                gecko_cmd_gatt_read_descriptor_value
                0x000000000002629c                gecko_cmd_gatt_write_descriptor_value
                0x00000000000262d4                gecko_cmd_gatt_server_read_attribute_value
                0x000000000002631c                gecko_cmd_gatt_server_read_attribute_type
                0x0000000000026360                gecko_cmd_gatt_server_find_attribute
                0x000000000002639c                gecko_cmd_gatt_server_write_attribute_value
                0x00000000000263d0                gecko_cmd_gatt_server_send_user_read_response
                0x0000000000026420                gecko_cmd_gatt_server_send_user_write_response
                0x0000000000026458                gecko_cmd_gatt_server_send_characteristic_notification
                0x00000000000264a4                gecko_cmd_gatt_send_characteristic_confirmation
                0x00000000000264d4                gecko_cmd_gatt_server_set_database
 .text          0x0000000000026504      0x17c /Applications/Simplicity Studio.app/Contents/Eclipse/developer/sdks/gecko_sdk_suite/v1.0//protocol/bluetooth_2.3/lib/EFR32BG1P/GCC/bgapi.a(bgapi_ps.c.obj)
                0x0000000000026504                lib_flash_handler_init
                0x0000000000026506                gecko_cmd_flash_ps_dump
                0x000000000002659c                gecko_cmd_flash_ps_erase_all
                0x00000000000265cc                gecko_cmd_flash_ps_save
                0x0000000000026608                gecko_cmd_flash_ps_load
                0x000000000002664c                gecko_cmd_flash_ps_erase
 .text          0x0000000000026680      0x3cc /Applications/Simplicity Studio.app/Contents/Eclipse/developer/sdks/gecko_sdk_suite/v1.0//protocol/bluetooth_2.3/lib/EFR32BG1P/GCC/bgapi.a(bgapi_sm.c.obj)
                0x0000000000026748                lib_sm_handler_init
                0x000000000002675c                gecko_cmd_sm_list_all_bondings
                0x0000000000026794                gecko_cmd_sm_increase_security
                0x00000000000267c4                gecko_cmd_sm_set_bondable_mode
                0x00000000000267f0                gecko_cmd_sm_delete_bonding
                0x0000000000026820                gecko_cmd_sm_delete_bondings
                0x0000000000026850                gecko_cmd_sm_configure
                0x0000000000026880                gecko_cmd_sm_enter_passkey
                0x00000000000268b4                gecko_cmd_sm_set_passkey
                0x00000000000268e0                gecko_cmd_sm_passkey_confirm
                0x0000000000026914                gecko_cmd_sm_set_oob_data
                0x0000000000026944                gecko_cmd_sm_set_sc_remote_oob_data
                0x0000000000026974                gecko_cmd_sm_use_sc_oob
                0x00000000000269b4                gecko_cmd_sm_store_bonding_configuration
                0x00000000000269e8                gecko_cmd_sm_bonding_confirm
                0x0000000000026a1c                gecko_cmd_sm_set_debug_mode
 .text          0x0000000000026a4c      0x114 /Applications/Simplicity Studio.app/Contents/Eclipse/developer/sdks/gecko_sdk_suite/v1.0//protocol/bluetooth_2.3/lib/EFR32BG1P/GCC/bgapi.a(bgapi_system.c.obj)
                0x0000000000026a4c                lib_system_handler_init
                0x0000000000026a4e                gecko_cmd_system_get_bt_address
                0x0000000000026a84                gecko_cmd_system_get_random_data
                0x0000000000026acc                gecko_cmd_system_halt
                0x0000000000026b00                gecko_cmd_system_set_tx_power
                0x0000000000026b30                gecko_cmd_system_hello
                0x0000000000026b58                gecko_cmd_system_reset
 .text          0x0000000000026b60      0x1ac /Applications/Simplicity Studio.app/Contents/Eclipse/developer/sdks/gecko_sdk_suite/v1.0//protocol/bluetooth_2.3/lib/EFR32BG1P/GCC/bgapi.a(bgapi_endpoint.c.obj)
                0x0000000000026b60                lib_endpoint_handler_init
                0x0000000000026b62                gecko_cmd_endpoint_send
                0x0000000000026c0c                gecko_cmd_endpoint_set_streaming_destination
                0x0000000000026c64                gecko_cmd_endpoint_close
                0x0000000000026cc0                gecko_cmd_endpoint_set_flags
                0x0000000000026cc2                gecko_cmd_endpoint_clr_flags
                0x0000000000026cc4                gecko_cmd_endpoint_read_counters
 .text          0x0000000000026d0c      0x104 /Applications/Simplicity Studio.app/Contents/Eclipse/developer/sdks/gecko_sdk_suite/v1.0//protocol/bluetooth_2.3/lib/EFR32BG1P/GCC/bgapi.a(bgapi_le_connection.c.obj)
                0x0000000000026d0c                lib_le_connection_handler_init
                0x0000000000026d0e                gecko_cmd_le_connection_set_parameters
                0x0000000000026d5c                gecko_cmd_le_connection_get_rssi
                0x0000000000026d8c                gecko_cmd_le_connection_disable_slave_latency
                0x0000000000026dd4                gecko_cmd_le_connection_set_phy
 .text          0x0000000000026e10      0x220 /Applications/Simplicity Studio.app/Contents/Eclipse/developer/sdks/gecko_sdk_suite/v1.0//protocol/bluetooth_2.3/lib/EFR32BG1P/GCC/bgapi.a(uart_endpoint.c.obj)
                0x0000000000026e70                uart_output_available
                0x0000000000026e74                uart_transparent_input
                0x0000000000026eb2                uart_endpoint_func
                0x0000000000026f66                uart_change_flags
                0x0000000000026f74                init_uart_endpoints
 .text          0x0000000000027030      0x17c /Applications/Simplicity Studio.app/Contents/Eclipse/developer/sdks/gecko_sdk_suite/v1.0//protocol/bluetooth_2.3/lib/EFR32BG1P/GCC/bgapi.a(bgapi_endpoint.c.obj)
                0x000000000002715c                init_bgapi_endpoints
 .text          0x00000000000271ac       0xc8 /Applications/Simplicity Studio.app/Contents/Eclipse/developer/sdks/gecko_sdk_suite/v1.0//protocol/bluetooth_2.3/lib/EFR32BG1P/GCC/bgapi.a(adc.c.obj)
                0x00000000000271ac                adc_read_channel
                0x00000000000271dc                adc_read_port
                0x00000000000271ec                adc_config_reference
                0x0000000000027220                adc_init
 .text          0x0000000000027274      0x160 /Applications/Simplicity Studio.app/Contents/Eclipse/developer/sdks/gecko_sdk_suite/v1.0//protocol/bluetooth_2.3/lib/EFR32BG1P/GCC/bgapi.a(gpio.c.obj)
                0x00000000000272ec                gpio_location_to_port
                0x00000000000272fc                gpio_location_to_pin_index
                0x0000000000027310                gpios_init
 .text          0x00000000000273d4      0x218 /Applications/Simplicity Studio.app/Contents/Eclipse/developer/sdks/gecko_sdk_suite/v1.0//protocol/bluetooth_2.3/lib/EFR32BG1P/GCC/bgapi.a(i2c.c.obj)
                0x00000000000273d4                i2c_init
                0x0000000000027460                i2c_stop
                0x0000000000027480                i2c_reset
                0x00000000000274a0                i2c_read
                0x000000000002754c                i2c_write
 .text          0x00000000000275ec      0x160 /Applications/Simplicity Studio.app/Contents/Eclipse/developer/sdks/gecko_sdk_suite/v1.0//protocol/bluetooth_2.3/lib/EFR32BG1P/GCC/bgapi.a(sleep_signal.c.obj)
                0x000000000002761c                sleep_signal_init
                0x000000000002767c                sleep_signal_update
                0x00000000000276e8                host_wakeup_signal_init
                0x0000000000027724                host_wakeup_signal_update
 .text          0x000000000002774c      0x89c /Applications/Simplicity Studio.app/Contents/Eclipse/developer/sdks/gecko_sdk_suite/v1.0//protocol/bluetooth_2.3/lib/EFR32BG1P/GCC/bgapi.a(uart.c.obj)
                0x000000000002774c                LEUART0_IRQGeckoHandler
                0x000000000002774e                USART1_TX_IRQGeckoHandler
                0x0000000000027878                USART0_TX_IRQGeckoHandler
                0x0000000000027a28                USART1_RX_IRQGeckoHandler
                0x0000000000027a34                USART0_RX_IRQGeckoHandler
                0x0000000000027a54                uart_update
                0x0000000000027a6c                uart_configure
                0x0000000000027b40                uart_event_register
                0x0000000000027b50                uarts_init
                0x0000000000027ed4                uart_get_flags
                0x0000000000027ee4                uart_write_bgbuf
                0x0000000000027f24                uart_read_bgbuf
                0x0000000000027fac                uart_sleep
 .text          0x0000000000027fe8       0x30 /Applications/Simplicity Studio.app/Contents/Eclipse/developer/toolchains/gnu_arm/4.9_2015q3/bin/../lib/gcc/arm-none-eabi/4.9.3/armv7e-m/softfp/libgcc.a(_aeabi_uldivmod.o)
                0x0000000000027fe8                __aeabi_uldivmod
 .text          0x0000000000028018       0x60 /Applications/Simplicity Studio.app/Contents/Eclipse/developer/toolchains/gnu_arm/4.9_2015q3/bin/../lib/gcc/arm-none-eabi/4.9.3/armv7e-m/softfp/libgcc.a(bpabi.o)
                0x0000000000028018                __gnu_ldivmod_helper
                0x0000000000028048                __gnu_uldivmod_helper
 .text          0x0000000000028078        0x4 /Applications/Simplicity Studio.app/Contents/Eclipse/developer/toolchains/gnu_arm/4.9_2015q3/bin/../lib/gcc/arm-none-eabi/4.9.3/armv7e-m/softfp/libgcc.a(_dvmd_tls.o)
                0x0000000000028078                __aeabi_ldiv0
                0x0000000000028078                __aeabi_idiv0
 .text          0x000000000002807c      0x29c /Applications/Simplicity Studio.app/Contents/Eclipse/developer/toolchains/gnu_arm/4.9_2015q3/bin/../lib/gcc/arm-none-eabi/4.9.3/armv7e-m/softfp/libgcc.a(_divdi3.o)
                0x000000000002807c                __divdi3
 .text          0x0000000000028318      0x26c /Applications/Simplicity Studio.app/Contents/Eclipse/developer/toolchains/gnu_arm/4.9_2015q3/bin/../lib/gcc/arm-none-eabi/4.9.3/armv7e-m/softfp/libgcc.a(_udivdi3.o)
                0x0000000000028318                __udivdi3
 .text.exit     0x0000000000028584       0x20 /Applications/Simplicity Studio.app/Contents/Eclipse/developer/toolchains/gnu_arm/4.9_2015q3/bin/../lib/gcc/arm-none-eabi/4.9.3/../../../../arm-none-eabi/lib/armv7e-m/softfp/libc.a(lib_a-exit.o)
                0x0000000000028584                exit
 .text.__libc_init_array
                0x00000000000285a4       0x50 /Applications/Simplicity Studio.app/Contents/Eclipse/developer/toolchains/gnu_arm/4.9_2015q3/bin/../lib/gcc/arm-none-eabi/4.9.3/../../../../arm-none-eabi/lib/armv7e-m/softfp/libc.a(lib_a-init.o)
                0x00000000000285a4                __libc_init_array
 .text          0x00000000000285f4      0x134 /Applications/Simplicity Studio.app/Contents/Eclipse/developer/toolchains/gnu_arm/4.9_2015q3/bin/../lib/gcc/arm-none-eabi/4.9.3/../../../../arm-none-eabi/lib/armv7e-m/softfp/libc.a(lib_a-memcpy.o)
                0x00000000000285f4                memcpy
 .text.memset   0x0000000000028728       0x9c /Applications/Simplicity Studio.app/Contents/Eclipse/developer/toolchains/gnu_arm/4.9_2015q3/bin/../lib/gcc/arm-none-eabi/4.9.3/../../../../arm-none-eabi/lib/armv7e-m/softfp/libc.a(lib_a-memset.o)
                0x0000000000028728                memset
 .text.snprintf
                0x00000000000287c4       0x9c /Applications/Simplicity Studio.app/Contents/Eclipse/developer/toolchains/gnu_arm/4.9_2015q3/bin/../lib/gcc/arm-none-eabi/4.9.3/../../../../arm-none-eabi/lib/armv7e-m/softfp/libc.a(lib_a-snprintf.o)
                0x00000000000287c4                snprintf
 .text.strlen   0x0000000000028860       0x5c /Applications/Simplicity Studio.app/Contents/Eclipse/developer/toolchains/gnu_arm/4.9_2015q3/bin/../lib/gcc/arm-none-eabi/4.9.3/../../../../arm-none-eabi/lib/armv7e-m/softfp/libc.a(lib_a-strlen.o)
                0x0000000000028860                strlen
 *fill*         0x00000000000288bc        0x4 
 .text._svfprintf_r
                0x00000000000288c0     0x14d0 /Applications/Simplicity Studio.app/Contents/Eclipse/developer/toolchains/gnu_arm/4.9_2015q3/bin/../lib/gcc/arm-none-eabi/4.9.3/../../../../arm-none-eabi/lib/armv7e-m/softfp/libc.a(lib_a-svfprintf.o)
                0x00000000000288c0                _svfprintf_r
 .text.startup.register_fini
                0x0000000000029d90       0x14 /Applications/Simplicity Studio.app/Contents/Eclipse/developer/toolchains/gnu_arm/4.9_2015q3/bin/../lib/gcc/arm-none-eabi/4.9.3/../../../../arm-none-eabi/lib/armv7e-m/softfp/libc.a(lib_a-__call_atexit.o)
 .text.__call_exitprocs
                0x0000000000029da4       0xd4 /Applications/Simplicity Studio.app/Contents/Eclipse/developer/toolchains/gnu_arm/4.9_2015q3/bin/../lib/gcc/arm-none-eabi/4.9.3/../../../../arm-none-eabi/lib/armv7e-m/softfp/libc.a(lib_a-__call_atexit.o)
                0x0000000000029da4                __call_exitprocs
 .text.atexit   0x0000000000029e78        0xc /Applications/Simplicity Studio.app/Contents/Eclipse/developer/toolchains/gnu_arm/4.9_2015q3/bin/../lib/gcc/arm-none-eabi/4.9.3/../../../../arm-none-eabi/lib/armv7e-m/softfp/libc.a(lib_a-atexit.o)
                0x0000000000029e78                atexit
 .text.quorem   0x0000000000029e84      0x12c /Applications/Simplicity Studio.app/Contents/Eclipse/developer/toolchains/gnu_arm/4.9_2015q3/bin/../lib/gcc/arm-none-eabi/4.9.3/../../../../arm-none-eabi/lib/armv7e-m/softfp/libc.a(lib_a-dtoa.o)
 .text._dtoa_r  0x0000000000029fb0      0xe90 /Applications/Simplicity Studio.app/Contents/Eclipse/developer/toolchains/gnu_arm/4.9_2015q3/bin/../lib/gcc/arm-none-eabi/4.9.3/../../../../arm-none-eabi/lib/armv7e-m/softfp/libc.a(lib_a-dtoa.o)
                0x0000000000029fb0                _dtoa_r
 .text.__libc_fini_array
                0x000000000002ae40       0x2c /Applications/Simplicity Studio.app/Contents/Eclipse/developer/toolchains/gnu_arm/4.9_2015q3/bin/../lib/gcc/arm-none-eabi/4.9.3/../../../../arm-none-eabi/lib/armv7e-m/softfp/libc.a(lib_a-fini.o)
                0x000000000002ae40                __libc_fini_array
 .text._localeconv_r
                0x000000000002ae6c        0x8 /Applications/Simplicity Studio.app/Contents/Eclipse/developer/toolchains/gnu_arm/4.9_2015q3/bin/../lib/gcc/arm-none-eabi/4.9.3/../../../../arm-none-eabi/lib/armv7e-m/softfp/libc.a(lib_a-locale.o)
                0x000000000002ae6c                _localeconv_r
 .text._malloc_r
                0x000000000002ae74      0x524 /Applications/Simplicity Studio.app/Contents/Eclipse/developer/toolchains/gnu_arm/4.9_2015q3/bin/../lib/gcc/arm-none-eabi/4.9.3/../../../../arm-none-eabi/lib/armv7e-m/softfp/libc.a(lib_a-mallocr.o)
                0x000000000002ae74                _malloc_r
 .text.memchr   0x000000000002b398       0x94 /Applications/Simplicity Studio.app/Contents/Eclipse/developer/toolchains/gnu_arm/4.9_2015q3/bin/../lib/gcc/arm-none-eabi/4.9.3/../../../../arm-none-eabi/lib/armv7e-m/softfp/libc.a(lib_a-memchr.o)
                0x000000000002b398                memchr
 .text.__malloc_lock
                0x000000000002b42c        0x4 /Applications/Simplicity Studio.app/Contents/Eclipse/developer/toolchains/gnu_arm/4.9_2015q3/bin/../lib/gcc/arm-none-eabi/4.9.3/../../../../arm-none-eabi/lib/armv7e-m/softfp/libc.a(lib_a-mlock.o)
                0x000000000002b42c                __malloc_lock
 .text.__malloc_unlock
                0x000000000002b430        0x4 /Applications/Simplicity Studio.app/Contents/Eclipse/developer/toolchains/gnu_arm/4.9_2015q3/bin/../lib/gcc/arm-none-eabi/4.9.3/../../../../arm-none-eabi/lib/armv7e-m/softfp/libc.a(lib_a-mlock.o)
                0x000000000002b430                __malloc_unlock
 .text._Balloc  0x000000000002b434       0x4c /Applications/Simplicity Studio.app/Contents/Eclipse/developer/toolchains/gnu_arm/4.9_2015q3/bin/../lib/gcc/arm-none-eabi/4.9.3/../../../../arm-none-eabi/lib/armv7e-m/softfp/libc.a(lib_a-mprec.o)
                0x000000000002b434                _Balloc
 .text._Bfree   0x000000000002b480       0x14 /Applications/Simplicity Studio.app/Contents/Eclipse/developer/toolchains/gnu_arm/4.9_2015q3/bin/../lib/gcc/arm-none-eabi/4.9.3/../../../../arm-none-eabi/lib/armv7e-m/softfp/libc.a(lib_a-mprec.o)
                0x000000000002b480                _Bfree
 .text.__multadd
                0x000000000002b494       0x84 /Applications/Simplicity Studio.app/Contents/Eclipse/developer/toolchains/gnu_arm/4.9_2015q3/bin/../lib/gcc/arm-none-eabi/4.9.3/../../../../arm-none-eabi/lib/armv7e-m/softfp/libc.a(lib_a-mprec.o)
                0x000000000002b494                __multadd
 .text.__hi0bits
                0x000000000002b518       0x40 /Applications/Simplicity Studio.app/Contents/Eclipse/developer/toolchains/gnu_arm/4.9_2015q3/bin/../lib/gcc/arm-none-eabi/4.9.3/../../../../arm-none-eabi/lib/armv7e-m/softfp/libc.a(lib_a-mprec.o)
                0x000000000002b518                __hi0bits
 .text.__lo0bits
                0x000000000002b558       0x5c /Applications/Simplicity Studio.app/Contents/Eclipse/developer/toolchains/gnu_arm/4.9_2015q3/bin/../lib/gcc/arm-none-eabi/4.9.3/../../../../arm-none-eabi/lib/armv7e-m/softfp/libc.a(lib_a-mprec.o)
                0x000000000002b558                __lo0bits
 .text.__i2b    0x000000000002b5b4       0x14 /Applications/Simplicity Studio.app/Contents/Eclipse/developer/toolchains/gnu_arm/4.9_2015q3/bin/../lib/gcc/arm-none-eabi/4.9.3/../../../../arm-none-eabi/lib/armv7e-m/softfp/libc.a(lib_a-mprec.o)
                0x000000000002b5b4                __i2b
 .text.__multiply
                0x000000000002b5c8      0x134 /Applications/Simplicity Studio.app/Contents/Eclipse/developer/toolchains/gnu_arm/4.9_2015q3/bin/../lib/gcc/arm-none-eabi/4.9.3/../../../../arm-none-eabi/lib/armv7e-m/softfp/libc.a(lib_a-mprec.o)
                0x000000000002b5c8                __multiply
 .text.__pow5mult
                0x000000000002b6fc       0xa0 /Applications/Simplicity Studio.app/Contents/Eclipse/developer/toolchains/gnu_arm/4.9_2015q3/bin/../lib/gcc/arm-none-eabi/4.9.3/../../../../arm-none-eabi/lib/armv7e-m/softfp/libc.a(lib_a-mprec.o)
                0x000000000002b6fc                __pow5mult
 .text.__lshift
                0x000000000002b79c       0xac /Applications/Simplicity Studio.app/Contents/Eclipse/developer/toolchains/gnu_arm/4.9_2015q3/bin/../lib/gcc/arm-none-eabi/4.9.3/../../../../arm-none-eabi/lib/armv7e-m/softfp/libc.a(lib_a-mprec.o)
                0x000000000002b79c                __lshift
 .text.__mcmp   0x000000000002b848       0x48 /Applications/Simplicity Studio.app/Contents/Eclipse/developer/toolchains/gnu_arm/4.9_2015q3/bin/../lib/gcc/arm-none-eabi/4.9.3/../../../../arm-none-eabi/lib/armv7e-m/softfp/libc.a(lib_a-mprec.o)
                0x000000000002b848                __mcmp
 .text.__mdiff  0x000000000002b890       0xd4 /Applications/Simplicity Studio.app/Contents/Eclipse/developer/toolchains/gnu_arm/4.9_2015q3/bin/../lib/gcc/arm-none-eabi/4.9.3/../../../../arm-none-eabi/lib/armv7e-m/softfp/libc.a(lib_a-mprec.o)
                0x000000000002b890                __mdiff
 .text.__d2b    0x000000000002b964       0xb8 /Applications/Simplicity Studio.app/Contents/Eclipse/developer/toolchains/gnu_arm/4.9_2015q3/bin/../lib/gcc/arm-none-eabi/4.9.3/../../../../arm-none-eabi/lib/armv7e-m/softfp/libc.a(lib_a-mprec.o)
                0x000000000002b964                __d2b
 .text.__fpclassifyd
                0x000000000002ba1c       0x58 /Applications/Simplicity Studio.app/Contents/Eclipse/developer/toolchains/gnu_arm/4.9_2015q3/bin/../lib/gcc/arm-none-eabi/4.9.3/../../../../arm-none-eabi/lib/armv7e-m/softfp/libc.a(lib_a-s_fpclassify.o)
                0x000000000002ba1c                __fpclassifyd
 .text._sbrk_r  0x000000000002ba74       0x24 /Applications/Simplicity Studio.app/Contents/Eclipse/developer/toolchains/gnu_arm/4.9_2015q3/bin/../lib/gcc/arm-none-eabi/4.9.3/../../../../arm-none-eabi/lib/armv7e-m/softfp/libc.a(lib_a-sbrkr.o)
                0x000000000002ba74                _sbrk_r
 .text.__ssprint_r
                0x000000000002ba98      0x104 /Applications/Simplicity Studio.app/Contents/Eclipse/developer/toolchains/gnu_arm/4.9_2015q3/bin/../lib/gcc/arm-none-eabi/4.9.3/../../../../arm-none-eabi/lib/armv7e-m/softfp/libc.a(lib_a-svfiprintf.o)
                0x000000000002ba98                __ssprint_r
 .text.__register_exitproc
                0x000000000002bb9c       0xa4 /Applications/Simplicity Studio.app/Contents/Eclipse/developer/toolchains/gnu_arm/4.9_2015q3/bin/../lib/gcc/arm-none-eabi/4.9.3/../../../../arm-none-eabi/lib/armv7e-m/softfp/libc.a(lib_a-__atexit.o)
                0x000000000002bb9c                __register_exitproc
 .text._calloc_r
                0x000000000002bc40       0x60 /Applications/Simplicity Studio.app/Contents/Eclipse/developer/toolchains/gnu_arm/4.9_2015q3/bin/../lib/gcc/arm-none-eabi/4.9.3/../../../../arm-none-eabi/lib/armv7e-m/softfp/libc.a(lib_a-callocr.o)
                0x000000000002bc40                _calloc_r
 .text._malloc_trim_r
                0x000000000002bca0       0x9c /Applications/Simplicity Studio.app/Contents/Eclipse/developer/toolchains/gnu_arm/4.9_2015q3/bin/../lib/gcc/arm-none-eabi/4.9.3/../../../../arm-none-eabi/lib/armv7e-m/softfp/libc.a(lib_a-freer.o)
                0x000000000002bca0                _malloc_trim_r
 .text._free_r  0x000000000002bd3c      0x1b0 /Applications/Simplicity Studio.app/Contents/Eclipse/developer/toolchains/gnu_arm/4.9_2015q3/bin/../lib/gcc/arm-none-eabi/4.9.3/../../../../arm-none-eabi/lib/armv7e-m/softfp/libc.a(lib_a-freer.o)
                0x000000000002bd3c                _free_r
 .text.memmove  0x000000000002beec       0xc8 /Applications/Simplicity Studio.app/Contents/Eclipse/developer/toolchains/gnu_arm/4.9_2015q3/bin/../lib/gcc/arm-none-eabi/4.9.3/../../../../arm-none-eabi/lib/armv7e-m/softfp/libc.a(lib_a-memmove.o)
                0x000000000002beec                memmove
 .text._realloc_r
                0x000000000002bfb4      0x3ec /Applications/Simplicity Studio.app/Contents/Eclipse/developer/toolchains/gnu_arm/4.9_2015q3/bin/../lib/gcc/arm-none-eabi/4.9.3/../../../../arm-none-eabi/lib/armv7e-m/softfp/libc.a(lib_a-reallocr.o)
                0x000000000002bfb4                _realloc_r
 .text._sbrk    0x000000000002c3a0       0x1c /Applications/Simplicity Studio.app/Contents/Eclipse/developer/toolchains/gnu_arm/4.9_2015q3/bin/../lib/gcc/arm-none-eabi/4.9.3/../../../../arm-none-eabi/lib/armv7e-m/softfp/libnosys.a(sbrk.o)
                0x000000000002c3a0                _sbrk
 .text._exit    0x000000000002c3bc        0x4 /Applications/Simplicity Studio.app/Contents/Eclipse/developer/toolchains/gnu_arm/4.9_2015q3/bin/../lib/gcc/arm-none-eabi/4.9.3/../../../../arm-none-eabi/lib/armv7e-m/softfp/libnosys.a(_exit.o)
                0x000000000002c3bc                _exit
 .text          0x000000000002c3c0      0x370 /Applications/Simplicity Studio.app/Contents/Eclipse/developer/toolchains/gnu_arm/4.9_2015q3/bin/../lib/gcc/arm-none-eabi/4.9.3/armv7e-m/softfp/libgcc.a(_arm_addsubdf3.o)
                0x000000000002c3c0                __aeabi_drsub
                0x000000000002c3c8                __subdf3
                0x000000000002c3c8                __aeabi_dsub
                0x000000000002c3cc                __aeabi_dadd
                0x000000000002c3cc                __adddf3
                0x000000000002c644                __aeabi_ui2d
                0x000000000002c644                __floatunsidf
                0x000000000002c664                __floatsidf
                0x000000000002c664                __aeabi_i2d
                0x000000000002c688                __extendsfdf2
                0x000000000002c688                __aeabi_f2d
                0x000000000002c6c4                __aeabi_ul2d
                0x000000000002c6c4                __floatundidf
                0x000000000002c6d4                __aeabi_l2d
                0x000000000002c6d4                __floatdidf
 .text          0x000000000002c730      0x424 /Applications/Simplicity Studio.app/Contents/Eclipse/developer/toolchains/gnu_arm/4.9_2015q3/bin/../lib/gcc/arm-none-eabi/4.9.3/armv7e-m/softfp/libgcc.a(_arm_muldivdf3.o)
                0x000000000002c730                __aeabi_dmul
                0x000000000002c730                __muldf3
                0x000000000002c984                __aeabi_ddiv
                0x000000000002c984                __divdf3
 .text          0x000000000002cb54      0x110 /Applications/Simplicity Studio.app/Contents/Eclipse/developer/toolchains/gnu_arm/4.9_2015q3/bin/../lib/gcc/arm-none-eabi/4.9.3/armv7e-m/softfp/libgcc.a(_arm_cmpdf2.o)
                0x000000000002cb54                __gtdf2
                0x000000000002cb54                __gedf2
                0x000000000002cb5c                __ltdf2
                0x000000000002cb5c                __ledf2
                0x000000000002cb64                __eqdf2
                0x000000000002cb64                __nedf2
                0x000000000002cb64                __cmpdf2
                0x000000000002cbe0                __aeabi_cdrcmple
                0x000000000002cbf0                __aeabi_cdcmple
                0x000000000002cbf0                __aeabi_cdcmpeq
                0x000000000002cc00                __aeabi_dcmpeq
                0x000000000002cc14                __aeabi_dcmplt
                0x000000000002cc28                __aeabi_dcmple
                0x000000000002cc3c                __aeabi_dcmpge
                0x000000000002cc50                __aeabi_dcmpgt
 .text          0x000000000002cc64       0x50 /Applications/Simplicity Studio.app/Contents/Eclipse/developer/toolchains/gnu_arm/4.9_2015q3/bin/../lib/gcc/arm-none-eabi/4.9.3/armv7e-m/softfp/libgcc.a(_arm_fixdfsi.o)
                0x000000000002cc64                __fixdfsi
                0x000000000002cc64                __aeabi_d2iz
 *(.init)
 .init          0x000000000002ccb4        0x4 /Applications/Simplicity Studio.app/Contents/Eclipse/developer/toolchains/gnu_arm/4.9_2015q3/bin/../lib/gcc/arm-none-eabi/4.9.3/armv7e-m/softfp/crti.o
                0x000000000002ccb4                _init
 .init          0x000000000002ccb8        0x8 /Applications/Simplicity Studio.app/Contents/Eclipse/developer/toolchains/gnu_arm/4.9_2015q3/bin/../lib/gcc/arm-none-eabi/4.9.3/armv7e-m/softfp/crtn.o
 *(.fini)
 .fini          0x000000000002ccc0        0x4 /Applications/Simplicity Studio.app/Contents/Eclipse/developer/toolchains/gnu_arm/4.9_2015q3/bin/../lib/gcc/arm-none-eabi/4.9.3/armv7e-m/softfp/crti.o
                0x000000000002ccc0                _fini
 .fini          0x000000000002ccc4        0x8 /Applications/Simplicity Studio.app/Contents/Eclipse/developer/toolchains/gnu_arm/4.9_2015q3/bin/../lib/gcc/arm-none-eabi/4.9.3/armv7e-m/softfp/crtn.o
 *crtbegin.o(.ctors)
 *crtbegin?.o(.ctors)
 *(EXCLUDE_FILE(*crtend.o *crtend?.o) .ctors)
 *(SORT(.ctors.*))
 *(.ctors)
 *crtbegin.o(.dtors)
 *crtbegin?.o(.dtors)
 *(EXCLUDE_FILE(*crtend.o *crtend?.o) .dtors)
 *(SORT(.dtors.*))
 *(.dtors)
 *(.rodata*)
 .rodata.str1.4
                0x000000000002cccc       0x1f ./advertisement.o
 *fill*         0x000000000002cceb        0x1 
 .rodata        0x000000000002ccec       0x1c ./app.o
 .rodata.str1.4
                0x000000000002cd08        0x7 ./app.o
 *fill*         0x000000000002cd0f        0x1 
 .rodata.str1.4
                0x000000000002cd10       0x20 ./app_hw.o
 .rodata.str1.4
                0x000000000002cd30       0x3f ./app_ui.o
 *fill*         0x000000000002cd6f        0x1 
 .rodata.str1.4
                0x000000000002cd70       0x17 ./beacon.o
 *fill*         0x000000000002cd87        0x1 
 .rodata.str1.4
                0x000000000002cd88       0x45 ./ia.o
 *fill*         0x000000000002cdcd        0x3 
 .rodata.ptiInit
                0x000000000002cdd0       0x24 ./main.o
 .rodata.config
                0x000000000002cdf4       0xe8 ./main.o
 .rodata.str1.4
                0x000000000002cedc        0x4 ./main.o
 .rodata        0x000000000002cee0        0x4 ./bgapi/dmadrv.o
 .rodata.CSWTCH.45
                0x000000000002cee4        0xc ./emlib/em_cmu.o
 .rodata.CSWTCH.46
                0x000000000002cef0       0x10 ./emlib/em_cmu.o
 .rodata.CSWTCH.47
                0x000000000002cf00       0x10 ./emlib/em_cmu.o
 .rodata.CSWTCH.48
                0x000000000002cf10       0x10 ./emlib/em_cmu.o
 .rodata.i2cNSum
                0x000000000002cf20        0x4 ./emlib/em_i2c.o
 .rodata.GLIB_FontNarrow6x8
                0x000000000002cf24       0x10 ./glib/BRD4100A/glib_font_narrow_6x8.o
                0x000000000002cf24                GLIB_FontNarrow6x8
 .rodata.GLIB_FontNarrow6x8PixMap
                0x000000000002cf34      0x320 ./glib/BRD4100A/glib_font_narrow_6x8.o
 .rodata.GLIB_FontNormal8x8
                0x000000000002d254       0x10 ./glib/BRD4100A/glib_font_normal_8x8.o
                0x000000000002d254                GLIB_FontNormal8x8
 .rodata.GLIB_FontNormal8x8PixMap
                0x000000000002d264      0x320 ./glib/BRD4100A/glib_font_normal_8x8.o
 .rodata.ledArray
                0x000000000002d584       0x10 ./kit/BRD4100A/bsp_stk_leds.o
 .rodata        0x000000000002d594       0x18 ./kit/BRD4100A/udelay.o
 .rodata        0x000000000002d5ac       0x24 ./kit_flashpwr/BRD4100A/mx25flash_spi.o
 .rodata.str1.4
                0x000000000002d5d0       0x15 ./kit_lcd/BRD4100A/displayls013b7dh03.o
 *fill*         0x000000000002d5e5        0x3 
 .rodata        0x000000000002d5e8       0x24 ./kit_lcd/BRD4100A/displaypalemlib.o
 .rodata        0x000000000002d60c       0x60 ./src/InitDevice.o
 .rodata        0x000000000002d66c       0x78 /Applications/Simplicity Studio.app/Contents/Eclipse/developer/sdks/gecko_sdk_suite/v1.0//protocol/bluetooth_2.3/lib/EFR32BG1P/GCC/bgapi.a(gecko_bgapi_hardware.c.obj)
 .rodata        0x000000000002d6e4       0x30 /Applications/Simplicity Studio.app/Contents/Eclipse/developer/sdks/gecko_sdk_suite/v1.0//protocol/bluetooth_2.3/lib/EFR32BG1P/GCC/bgapi.a(gecko_bgapi_test.c.obj)
 .rodata        0x000000000002d714       0x18 /Applications/Simplicity Studio.app/Contents/Eclipse/developer/sdks/gecko_sdk_suite/v1.0//protocol/bluetooth_2.3/lib/EFR32BG1P/GCC/bgapi.a(gecko_bgapi_util.c.obj)
 .rodata        0x000000000002d72c       0x28 /Applications/Simplicity Studio.app/Contents/Eclipse/developer/sdks/gecko_sdk_suite/v1.0//protocol/bluetooth_2.3/lib/EFR32BG1P/GCC/bgapi.a(gecko_bgapi_dfu.c.obj)
 .rodata        0x000000000002d754       0x70 /Applications/Simplicity Studio.app/Contents/Eclipse/developer/sdks/gecko_sdk_suite/v1.0//protocol/bluetooth_2.3/lib/EFR32BG1P/GCC/bgapi.a(gecko_bgapi_gap.c.obj)
 .rodata        0x000000000002d7c4       0xa0 /Applications/Simplicity Studio.app/Contents/Eclipse/developer/sdks/gecko_sdk_suite/v1.0//protocol/bluetooth_2.3/lib/EFR32BG1P/GCC/bgapi.a(gecko_bgapi_gatt.c.obj)
 .rodata        0x000000000002d864       0x48 /Applications/Simplicity Studio.app/Contents/Eclipse/developer/sdks/gecko_sdk_suite/v1.0//protocol/bluetooth_2.3/lib/EFR32BG1P/GCC/bgapi.a(gecko_bgapi_gatt_server.c.obj)
 .rodata        0x000000000002d8ac       0x30 /Applications/Simplicity Studio.app/Contents/Eclipse/developer/sdks/gecko_sdk_suite/v1.0//protocol/bluetooth_2.3/lib/EFR32BG1P/GCC/bgapi.a(gecko_bgapi_flash.c.obj)
 .rodata        0x000000000002d8dc       0x80 /Applications/Simplicity Studio.app/Contents/Eclipse/developer/sdks/gecko_sdk_suite/v1.0//protocol/bluetooth_2.3/lib/EFR32BG1P/GCC/bgapi.a(gecko_bgapi_sm.c.obj)
 .rodata        0x000000000002d95c       0x38 /Applications/Simplicity Studio.app/Contents/Eclipse/developer/sdks/gecko_sdk_suite/v1.0//protocol/bluetooth_2.3/lib/EFR32BG1P/GCC/bgapi.a(gecko_bgapi_system.c.obj)
 .rodata        0x000000000002d994       0x38 /Applications/Simplicity Studio.app/Contents/Eclipse/developer/sdks/gecko_sdk_suite/v1.0//protocol/bluetooth_2.3/lib/EFR32BG1P/GCC/bgapi.a(gecko_bgapi_endpoint.c.obj)
 .rodata        0x000000000002d9cc       0x28 /Applications/Simplicity Studio.app/Contents/Eclipse/developer/sdks/gecko_sdk_suite/v1.0//protocol/bluetooth_2.3/lib/EFR32BG1P/GCC/bgapi.a(gecko_bgapi_le_connection.c.obj)
 .rodata        0x000000000002d9f4       0x18 /Applications/Simplicity Studio.app/Contents/Eclipse/developer/sdks/gecko_sdk_suite/v1.0//protocol/bluetooth_2.3/lib/EFR32BG1P/GCC/bgapi.a(bgapi_sm.c.obj)
 .rodata        0x000000000002da0c       0x18 /Applications/Simplicity Studio.app/Contents/Eclipse/developer/sdks/gecko_sdk_suite/v1.0//protocol/bluetooth_2.3/lib/EFR32BG1P/GCC/bgapi.a(adc.c.obj)
 .rodata        0x000000000002da24       0x40 /Applications/Simplicity Studio.app/Contents/Eclipse/developer/sdks/gecko_sdk_suite/v1.0//protocol/bluetooth_2.3/lib/EFR32BG1P/GCC/bgapi.a(gpio.c.obj)
 .rodata        0x000000000002da64       0x10 /Applications/Simplicity Studio.app/Contents/Eclipse/developer/sdks/gecko_sdk_suite/v1.0//protocol/bluetooth_2.3/lib/EFR32BG1P/GCC/bgapi.a(i2c.c.obj)
 .rodata        0x000000000002da74       0x60 /Applications/Simplicity Studio.app/Contents/Eclipse/developer/sdks/gecko_sdk_suite/v1.0//protocol/bluetooth_2.3/lib/EFR32BG1P/GCC/bgapi.a(uart.c.obj)
 .rodata.str1.4
                0x000000000002dad4        0x2 /Applications/Simplicity Studio.app/Contents/Eclipse/developer/toolchains/gnu_arm/4.9_2015q3/bin/../lib/gcc/arm-none-eabi/4.9.3/../../../../arm-none-eabi/lib/armv7e-m/softfp/libc.a(lib_a-impure.o)
 *fill*         0x000000000002dad6        0x2 
 .rodata._global_impure_ptr
                0x000000000002dad8        0x4 /Applications/Simplicity Studio.app/Contents/Eclipse/developer/toolchains/gnu_arm/4.9_2015q3/bin/../lib/gcc/arm-none-eabi/4.9.3/../../../../arm-none-eabi/lib/armv7e-m/softfp/libc.a(lib_a-impure.o)
                0x000000000002dad8                _global_impure_ptr
 .rodata.zeroes.6911
                0x000000000002dadc       0x10 /Applications/Simplicity Studio.app/Contents/Eclipse/developer/toolchains/gnu_arm/4.9_2015q3/bin/../lib/gcc/arm-none-eabi/4.9.3/../../../../arm-none-eabi/lib/armv7e-m/softfp/libc.a(lib_a-svfprintf.o)
 .rodata.blanks.6910
                0x000000000002daec       0x10 /Applications/Simplicity Studio.app/Contents/Eclipse/developer/toolchains/gnu_arm/4.9_2015q3/bin/../lib/gcc/arm-none-eabi/4.9.3/../../../../arm-none-eabi/lib/armv7e-m/softfp/libc.a(lib_a-svfprintf.o)
 .rodata.str1.4
                0x000000000002dafc       0x42 /Applications/Simplicity Studio.app/Contents/Eclipse/developer/toolchains/gnu_arm/4.9_2015q3/bin/../lib/gcc/arm-none-eabi/4.9.3/../../../../arm-none-eabi/lib/armv7e-m/softfp/libc.a(lib_a-svfprintf.o)
 *fill*         0x000000000002db3e        0x2 
 .rodata.str1.4
                0x000000000002db40       0x10 /Applications/Simplicity Studio.app/Contents/Eclipse/developer/toolchains/gnu_arm/4.9_2015q3/bin/../lib/gcc/arm-none-eabi/4.9.3/../../../../arm-none-eabi/lib/armv7e-m/softfp/libc.a(lib_a-dtoa.o)
                                         0x12 (size before relaxing)
 .rodata.str1.4
                0x000000000002db50        0xc /Applications/Simplicity Studio.app/Contents/Eclipse/developer/toolchains/gnu_arm/4.9_2015q3/bin/../lib/gcc/arm-none-eabi/4.9.3/../../../../arm-none-eabi/lib/armv7e-m/softfp/libc.a(lib_a-locale.o)
                                         0x12 (size before relaxing)
 *fill*         0x000000000002db5c        0x4 
 .rodata.__mprec_tens
                0x000000000002db60       0xc8 /Applications/Simplicity Studio.app/Contents/Eclipse/developer/toolchains/gnu_arm/4.9_2015q3/bin/../lib/gcc/arm-none-eabi/4.9.3/../../../../arm-none-eabi/lib/armv7e-m/softfp/libc.a(lib_a-mprec.o)
                0x000000000002db60                __mprec_tens
 .rodata.p05.5302
                0x000000000002dc28        0xc /Applications/Simplicity Studio.app/Contents/Eclipse/developer/toolchains/gnu_arm/4.9_2015q3/bin/../lib/gcc/arm-none-eabi/4.9.3/../../../../arm-none-eabi/lib/armv7e-m/softfp/libc.a(lib_a-mprec.o)
 *fill*         0x000000000002dc34        0x4 
 .rodata.__mprec_bigtens
                0x000000000002dc38       0x28 /Applications/Simplicity Studio.app/Contents/Eclipse/developer/toolchains/gnu_arm/4.9_2015q3/bin/../lib/gcc/arm-none-eabi/4.9.3/../../../../arm-none-eabi/lib/armv7e-m/softfp/libc.a(lib_a-mprec.o)
                0x000000000002dc38                __mprec_bigtens
 *(.eh_frame*)
 .eh_frame      0x000000000002dc60        0x0 /Applications/Simplicity Studio.app/Contents/Eclipse/developer/toolchains/gnu_arm/4.9_2015q3/bin/../lib/gcc/arm-none-eabi/4.9.3/armv7e-m/softfp/crtbegin.o
 .eh_frame      0x000000000002dc60        0x0 /Applications/Simplicity Studio.app/Contents/Eclipse/developer/toolchains/gnu_arm/4.9_2015q3/bin/../lib/gcc/arm-none-eabi/4.9.3/../../../../arm-none-eabi/lib/armv7e-m/softfp/libc.a(lib_a-strcmp.o)
                                         0x70 (size before relaxing)
 .eh_frame      0x000000000002dc60        0x4 /Applications/Simplicity Studio.app/Contents/Eclipse/developer/toolchains/gnu_arm/4.9_2015q3/bin/../lib/gcc/arm-none-eabi/4.9.3/armv7e-m/softfp/crtend.o
                0x000000000002dc64                . = ALIGN (0x4)

.glue_7         0x000000000002dc64        0x0
 .glue_7        0x0000000000000000        0x0 linker stubs

.glue_7t        0x000000000002dc64        0x0
 .glue_7t       0x0000000000000000        0x0 linker stubs

.vfp11_veneer   0x000000000002dc64        0x0
 .vfp11_veneer  0x0000000000000000        0x0 linker stubs

.v4_bx          0x000000000002dc64        0x0
 .v4_bx         0x0000000000000000        0x0 linker stubs

.iplt           0x000000000002dc64        0x0
 .iplt          0x0000000000000000        0x0 /Applications/Simplicity Studio.app/Contents/Eclipse/developer/toolchains/gnu_arm/4.9_2015q3/bin/../lib/gcc/arm-none-eabi/4.9.3/armv7e-m/softfp/crtbegin.o

.igot.plt       0x000000000002dc64        0x0
 .igot.plt      0x0000000000000000        0x0 /Applications/Simplicity Studio.app/Contents/Eclipse/developer/toolchains/gnu_arm/4.9_2015q3/bin/../lib/gcc/arm-none-eabi/4.9.3/armv7e-m/softfp/crtbegin.o

.text_app_ARM.extab
 *(.ARM.extab* .gnu.linkonce.armextab.*)
                0x000000000002dc64                __exidx_start = .

.text_app_ARM.exidx
                0x000000000002dc64        0x8
 *(.ARM.exidx* .gnu.linkonce.armexidx.*)
 .ARM.exidx     0x000000000002dc64        0x8 /Applications/Simplicity Studio.app/Contents/Eclipse/developer/toolchains/gnu_arm/4.9_2015q3/bin/../lib/gcc/arm-none-eabi/4.9.3/../../../../arm-none-eabi/lib/armv7e-m/softfp/crt0.o
 .ARM.exidx     0x000000000002dc6c        0x0 /Applications/Simplicity Studio.app/Contents/Eclipse/developer/toolchains/gnu_arm/4.9_2015q3/bin/../lib/gcc/arm-none-eabi/4.9.3/armv7e-m/softfp/libgcc.a(_divdi3.o)
                                          0x8 (size before relaxing)
 .ARM.exidx     0x000000000002dc6c        0x0 /Applications/Simplicity Studio.app/Contents/Eclipse/developer/toolchains/gnu_arm/4.9_2015q3/bin/../lib/gcc/arm-none-eabi/4.9.3/armv7e-m/softfp/libgcc.a(_udivdi3.o)
                                          0x8 (size before relaxing)
                0x000000000002dc6c                __exidx_end = .
                0x000000000002dc6c                __etext = .

.rel.dyn        0x000000000002dc6c        0x0
 .rel.iplt      0x0000000000000000        0x0 /Applications/Simplicity Studio.app/Contents/Eclipse/developer/toolchains/gnu_arm/4.9_2015q3/bin/../lib/gcc/arm-none-eabi/4.9.3/armv7e-m/softfp/crtbegin.o

.text_app_data  0x0000000020003000      0x97c load address 0x000000000002dc6c
                0x0000000020003000                __data_start__ = .
 *(vtable)
 *(.data*)
 .data.advConnectableMode
                0x0000000020003000        0x1 ./advertisement.o
 *fill*         0x0000000020003001        0x3 
 .data.xfer.10117
                0x0000000020003004       0x10 ./app.o
 .data.appUiLedSeqHighAlertReq
                0x0000000020003014        0x8 ./app_ui.o
 .data.appUiLedSeqLowAlertReq
                0x000000002000301c        0x8 ./app_ui.o
 .data.appUiLedSeqHighAlert
                0x0000000020003024        0x8 ./app_ui.o
 .data.button0Released.9133
                0x000000002000302c        0x1 ./app_ui.o
 *fill*         0x000000002000302d        0x3 
 .data.appUiLedSeqLowAlert
                0x0000000020003030       0x20 ./app_ui.o
 .data.button1Released.9134
                0x0000000020003050        0x1 ./app_ui.o
 *fill*         0x0000000020003051        0x3 
 .data.appUiLedSeqOffReq
                0x0000000020003054        0x8 ./app_ui.o
 .data.activeReq.9129
                0x000000002000305c        0x4 ./app_ui.o
 .data.bcnBeaconAdvData
                0x0000000020003060       0x1e ./beacon.o
 *fill*         0x000000002000307e        0x2 
 .data.bg_gattdb_data_attribute_field_26_data
                0x0000000020003080        0x1 ./gatt_db.o
                0x0000000020003080                bg_gattdb_data_attribute_field_26_data
 *fill*         0x0000000020003081        0x3 
 .data.bg_gattdb_data_attribute_field_6_data
                0x0000000020003084        0xb ./gatt_db.o
                0x0000000020003084                bg_gattdb_data_attribute_field_6_data
 *fill*         0x000000002000308f        0x1 
 .data.bg_gattdb_data_attribute_field_17_data
                0x0000000020003090        0x1 ./gatt_db.o
                0x0000000020003090                bg_gattdb_data_attribute_field_17_data
 *fill*         0x0000000020003091        0x3 
 .data.htmDateTime
                0x0000000020003094        0x8 ./htm.o
 .data.htmTempMeas
                0x000000002000309c       0x10 ./htm.o
 .data.htmClientConnection
                0x00000000200030ac        0x1 ./htm.o
 *fill*         0x00000000200030ad        0x3 
 .data.auxHfrcoFreq
                0x00000000200030b0        0x4 ./emlib/em_cmu.o
 .data.loops_per_jiffy
                0x00000000200030b4        0x4 ./kit/BRD4100A/udelay.o
                0x00000000200030b4                loops_per_jiffy
 .data.pDisplayDeviceDriverInitFunctions
                0x00000000200030b8        0x8 ./kit_lcd/BRD4100A/display.o
 .data.pixelMatrixPool
                0x00000000200030c0        0x4 ./kit_lcd/BRD4100A/displayls013b7dh03.o
 .data          0x00000000200030c4        0x1 /Applications/Simplicity Studio.app/Contents/Eclipse/developer/sdks/gecko_sdk_suite/v1.0//protocol/bluetooth_2.3/lib/EFR32BG1P/GCC/bgapi.a(bgapi_endpoint.c.obj)
 *fill*         0x00000000200030c5        0x3 
 .data          0x00000000200030c8       0x30 /Applications/Simplicity Studio.app/Contents/Eclipse/developer/sdks/gecko_sdk_suite/v1.0//protocol/bluetooth_2.3/lib/EFR32BG1P/GCC/bgapi.a(adc.c.obj)
 .data.impure_data
                0x00000000200030f8      0x428 /Applications/Simplicity Studio.app/Contents/Eclipse/developer/toolchains/gnu_arm/4.9_2015q3/bin/../lib/gcc/arm-none-eabi/4.9.3/../../../../arm-none-eabi/lib/armv7e-m/softfp/libc.a(lib_a-impure.o)
 .data._impure_ptr
                0x0000000020003520        0x4 /Applications/Simplicity Studio.app/Contents/Eclipse/developer/toolchains/gnu_arm/4.9_2015q3/bin/../lib/gcc/arm-none-eabi/4.9.3/../../../../arm-none-eabi/lib/armv7e-m/softfp/libc.a(lib_a-impure.o)
                0x0000000020003520                _impure_ptr
 .data.lconv    0x0000000020003524       0x38 /Applications/Simplicity Studio.app/Contents/Eclipse/developer/toolchains/gnu_arm/4.9_2015q3/bin/../lib/gcc/arm-none-eabi/4.9.3/../../../../arm-none-eabi/lib/armv7e-m/softfp/libc.a(lib_a-locale.o)
 .data.__malloc_av_
                0x000000002000355c      0x408 /Applications/Simplicity Studio.app/Contents/Eclipse/developer/toolchains/gnu_arm/4.9_2015q3/bin/../lib/gcc/arm-none-eabi/4.9.3/../../../../arm-none-eabi/lib/armv7e-m/softfp/libc.a(lib_a-mallocr.o)
                0x000000002000355c                __malloc_av_
 .data.__malloc_trim_threshold
                0x0000000020003964        0x4 /Applications/Simplicity Studio.app/Contents/Eclipse/developer/toolchains/gnu_arm/4.9_2015q3/bin/../lib/gcc/arm-none-eabi/4.9.3/../../../../arm-none-eabi/lib/armv7e-m/softfp/libc.a(lib_a-mallocr.o)
                0x0000000020003964                __malloc_trim_threshold
 .data.__malloc_sbrk_base
                0x0000000020003968        0x4 /Applications/Simplicity Studio.app/Contents/Eclipse/developer/toolchains/gnu_arm/4.9_2015q3/bin/../lib/gcc/arm-none-eabi/4.9.3/../../../../arm-none-eabi/lib/armv7e-m/softfp/libc.a(lib_a-mallocr.o)
                0x0000000020003968                __malloc_sbrk_base
                0x000000002000396c                . = ALIGN (0x4)
 *(.ram)
                0x000000002000396c                . = ALIGN (0x4)
                0x000000002000396c                PROVIDE (__preinit_array_start, .)
 *(.preinit_array)
                0x000000002000396c                PROVIDE (__preinit_array_end, .)
                0x000000002000396c                . = ALIGN (0x4)
                0x000000002000396c                PROVIDE (__init_array_start, .)
 *(SORT(.init_array.*))
 .init_array.00000
                0x000000002000396c        0x4 /Applications/Simplicity Studio.app/Contents/Eclipse/developer/toolchains/gnu_arm/4.9_2015q3/bin/../lib/gcc/arm-none-eabi/4.9.3/../../../../arm-none-eabi/lib/armv7e-m/softfp/libc.a(lib_a-__call_atexit.o)
 *(.init_array)
 .init_array    0x0000000020003970        0x4 /Applications/Simplicity Studio.app/Contents/Eclipse/developer/toolchains/gnu_arm/4.9_2015q3/bin/../lib/gcc/arm-none-eabi/4.9.3/armv7e-m/softfp/crtbegin.o
                0x0000000020003974                PROVIDE (__init_array_end, .)
                0x0000000020003974                . = ALIGN (0x4)
                0x0000000020003974                PROVIDE (__fini_array_start, .)
 *(SORT(.fini_array.*))
 *(.fini_array)
 .fini_array    0x0000000020003974        0x4 /Applications/Simplicity Studio.app/Contents/Eclipse/developer/toolchains/gnu_arm/4.9_2015q3/bin/../lib/gcc/arm-none-eabi/4.9.3/armv7e-m/softfp/crtbegin.o
                0x0000000020003978                PROVIDE (__fini_array_end, .)
 *(.jcr*)
 .jcr           0x0000000020003978        0x0 /Applications/Simplicity Studio.app/Contents/Eclipse/developer/toolchains/gnu_arm/4.9_2015q3/bin/../lib/gcc/arm-none-eabi/4.9.3/armv7e-m/softfp/crtbegin.o
 .jcr           0x0000000020003978        0x4 /Applications/Simplicity Studio.app/Contents/Eclipse/developer/toolchains/gnu_arm/4.9_2015q3/bin/../lib/gcc/arm-none-eabi/4.9.3/armv7e-m/softfp/crtend.o
                0x000000002000397c                . = ALIGN (0x4)
                0x000000002000397c                __data_end__ = .

.bss            0x000000002000397c     0x260c load address 0x000000000002e5e8
                0x000000002000397c                . = ALIGN (0x4)
                0x000000002000397c                __bss_start__ = .
 *(.bss*)
 .bss           0x000000002000397c       0x1c /Applications/Simplicity Studio.app/Contents/Eclipse/developer/toolchains/gnu_arm/4.9_2015q3/bin/../lib/gcc/arm-none-eabi/4.9.3/armv7e-m/softfp/crtbegin.o
 .bss.advIsConnected
                0x0000000020003998        0x1 ./advertisement.o
 *fill*         0x0000000020003999        0x3 
 .bss.alarm_count
                0x000000002000399c        0x4 ./app.o
                0x000000002000399c                alarm_count
 .bss.power_led_status
                0x00000000200039a0        0x4 ./app.o
                0x00000000200039a0                power_led_status
 .bss.alarm_status
                0x00000000200039a4        0x4 ./app.o
                0x00000000200039a4                alarm_status
 .bss.boot_to_dfu.10084
                0x00000000200039a8        0x1 ./app.o
 *fill*         0x00000000200039a9        0x3 
 .bss.connected
                0x00000000200039ac        0x4 ./app.o
                0x00000000200039ac                connected
 .bss.si7013_status
                0x00000000200039b0        0x1 ./app_hw.o
 .bss.pos.9128  0x00000000200039b1        0x1 ./app_ui.o
 *fill*         0x00000000200039b2        0x2 
 .bss.appUiLedSeqReq
                0x00000000200039b4        0x4 ./app_ui.o
 .bss.button0Time.9135
                0x00000000200039b8        0x2 ./app_ui.o
 *fill*         0x00000000200039ba        0x2 
 .bss.appUiLedSeqOff
                0x00000000200039bc        0x2 ./app_ui.o
 *fill*         0x00000000200039be        0x2 
 .bss.appUiHeaderString
                0x00000000200039c0       0x40 ./app_ui.o
 .bss.appUiBtn  0x0000000020003a00        0x4 ./app_ui.o
 .bss.button1Time.9136
                0x0000000020003a04        0x2 ./app_ui.o
 *fill*         0x0000000020003a06        0x2 
 .bss.bg_gattdb_data_attribute_field_14_data
                0x0000000020003a08        0xd ./gatt_db.o
                0x0000000020003a08                bg_gattdb_data_attribute_field_14_data
 *fill*         0x0000000020003a15        0x3 
 .bss.bg_gattdb_data_attribute_field_2_data
                0x0000000020003a18        0x4 ./gatt_db.o
                0x0000000020003a18                bg_gattdb_data_attribute_field_2_data
 .bss.bg_gattdb_data_attribute_field_20_data
                0x0000000020003a1c        0x1 ./gatt_db.o
                0x0000000020003a1c                bg_gattdb_data_attribute_field_20_data
 *fill*         0x0000000020003a1d        0x3 
 .bss.deviceHeader
                0x0000000020003a20        0x4 ./graphics.o
 .bss.glibContext
                0x0000000020003a24       0x2c ./graphics.o
 .bss.graphLineNum
                0x0000000020003a50        0x1 ./graphics.o
 *fill*         0x0000000020003a51        0x3 
 .bss.chTable   0x0000000020003a54       0xa0 ./bgapi/dmadrv.o
 .bss.initialized
                0x0000000020003af4        0x1 ./bgapi/dmadrv.o
 *fill*         0x0000000020003af5        0x3 
 .bss.dmaXfer   0x0000000020003af8      0x100 ./bgapi/dmadrv.o
 .bss.i2cTransfer
                0x0000000020003bf8       0x10 ./emlib/em_i2c.o
 .bss.pixelMatrixBuffer
                0x0000000020003c08        0x4 ./glib/BRD4100A/dmd_display.o
 .bss.displayDevice
                0x0000000020003c0c       0x30 ./glib/BRD4100A/dmd_display.o
 .bss.dimensions
                0x0000000020003c3c        0xc ./glib/BRD4100A/dmd_display.o
 .bss.moduleInitialized
                0x0000000020003c48        0x1 ./glib/BRD4100A/dmd_display.o
 *fill*         0x0000000020003c49        0x3 
 .bss.devicesRegistered
                0x0000000020003c4c        0x4 ./kit_lcd/BRD4100A/display.o
 .bss.deviceTable
                0x0000000020003c50       0x30 ./kit_lcd/BRD4100A/display.o
 .bss.moduleInitialized
                0x0000000020003c80        0x1 ./kit_lcd/BRD4100A/display.o
 *fill*         0x0000000020003c81        0x3 
 .bss.pixelMatrixPoolBase
                0x0000000020003c84      0x800 ./kit_lcd/BRD4100A/displayls013b7dh03.o
 .bss           0x0000000020004484      0x100 /Applications/Simplicity Studio.app/Contents/Eclipse/developer/sdks/gecko_sdk_suite/v1.0//protocol/bluetooth_2.3/lib/EFR32BG1P/GCC/bgapi.a(bgapi_hardware_lib.c.obj)
 .bss           0x0000000020004584        0x4 /Applications/Simplicity Studio.app/Contents/Eclipse/developer/sdks/gecko_sdk_suite/v1.0//protocol/bluetooth_2.3/lib/EFR32BG1P/GCC/bgapi.a(bgapi_hardware.c.obj)
 .bss           0x0000000020004588       0x10 /Applications/Simplicity Studio.app/Contents/Eclipse/developer/sdks/gecko_sdk_suite/v1.0//protocol/bluetooth_2.3/lib/EFR32BG1P/GCC/bgapi.a(bgapi_util.c.obj)
 .bss           0x0000000020004598        0x2 /Applications/Simplicity Studio.app/Contents/Eclipse/developer/sdks/gecko_sdk_suite/v1.0//protocol/bluetooth_2.3/lib/EFR32BG1P/GCC/bgapi.a(bgapi_gap.c.obj)
                0x0000000020004598                legacy_maxadv_events
 *fill*         0x000000002000459a        0x2 
 .bss           0x000000002000459c        0x4 /Applications/Simplicity Studio.app/Contents/Eclipse/developer/sdks/gecko_sdk_suite/v1.0//protocol/bluetooth_2.3/lib/EFR32BG1P/GCC/bgapi.a(bgapi_sm.c.obj)
 .bss           0x00000000200045a0        0xc /Applications/Simplicity Studio.app/Contents/Eclipse/developer/sdks/gecko_sdk_suite/v1.0//protocol/bluetooth_2.3/lib/EFR32BG1P/GCC/bgapi.a(bgapi_endpoint.c.obj)
 .bss           0x00000000200045ac        0x4 /Applications/Simplicity Studio.app/Contents/Eclipse/developer/sdks/gecko_sdk_suite/v1.0//protocol/bluetooth_2.3/lib/EFR32BG1P/GCC/bgapi.a(adc.c.obj)
 .bss           0x00000000200045b0        0x2 /Applications/Simplicity Studio.app/Contents/Eclipse/developer/sdks/gecko_sdk_suite/v1.0//protocol/bluetooth_2.3/lib/EFR32BG1P/GCC/bgapi.a(i2c.c.obj)
 *fill*         0x00000000200045b2        0x2 
 .bss           0x00000000200045b4       0x2c /Applications/Simplicity Studio.app/Contents/Eclipse/developer/sdks/gecko_sdk_suite/v1.0//protocol/bluetooth_2.3/lib/EFR32BG1P/GCC/bgapi.a(sleep_signal.c.obj)
                0x00000000200045c8                sleep_signal_mask
                0x00000000200045dc                host_wakeup_signal_mask
 .bss           0x00000000200045e0       0x70 /Applications/Simplicity Studio.app/Contents/Eclipse/developer/sdks/gecko_sdk_suite/v1.0//protocol/bluetooth_2.3/lib/EFR32BG1P/GCC/bgapi.a(uart.c.obj)
 .bss.__malloc_max_total_mem
                0x0000000020004650        0x4 /Applications/Simplicity Studio.app/Contents/Eclipse/developer/toolchains/gnu_arm/4.9_2015q3/bin/../lib/gcc/arm-none-eabi/4.9.3/../../../../arm-none-eabi/lib/armv7e-m/softfp/libc.a(lib_a-mallocr.o)
                0x0000000020004650                __malloc_max_total_mem
 .bss.__malloc_max_sbrked_mem
                0x0000000020004654        0x4 /Applications/Simplicity Studio.app/Contents/Eclipse/developer/toolchains/gnu_arm/4.9_2015q3/bin/../lib/gcc/arm-none-eabi/4.9.3/../../../../arm-none-eabi/lib/armv7e-m/softfp/libc.a(lib_a-mallocr.o)
                0x0000000020004654                __malloc_max_sbrked_mem
 .bss.__malloc_top_pad
                0x0000000020004658        0x4 /Applications/Simplicity Studio.app/Contents/Eclipse/developer/toolchains/gnu_arm/4.9_2015q3/bin/../lib/gcc/arm-none-eabi/4.9.3/../../../../arm-none-eabi/lib/armv7e-m/softfp/libc.a(lib_a-mallocr.o)
                0x0000000020004658                __malloc_top_pad
 .bss.__malloc_current_mallinfo
                0x000000002000465c       0x28 /Applications/Simplicity Studio.app/Contents/Eclipse/developer/toolchains/gnu_arm/4.9_2015q3/bin/../lib/gcc/arm-none-eabi/4.9.3/../../../../arm-none-eabi/lib/armv7e-m/softfp/libc.a(lib_a-mallocr.o)
                0x000000002000465c                __malloc_current_mallinfo
 .bss.heap_end.4079
                0x0000000020004684        0x4 /Applications/Simplicity Studio.app/Contents/Eclipse/developer/toolchains/gnu_arm/4.9_2015q3/bin/../lib/gcc/arm-none-eabi/4.9.3/../../../../arm-none-eabi/lib/armv7e-m/softfp/libnosys.a(sbrk.o)
 *(COMMON)
 COMMON         0x0000000020004688        0xa ./app.o
                0x0000000020004688                sensor_data_buffer
                0x000000002000468c                is_leuart_data_available
                0x000000002000468d                leuart_rx_data_count
                0x0000000020004690                htmHumidityMeas
 *fill*         0x0000000020004692        0x2 
 COMMON         0x0000000020004694     0x18d0 ./main.o
                0x0000000020004694                bluetooth_stack_heap
 COMMON         0x0000000020005f64       0x10 ./glib/BRD4100A/dmd_display.o
                0x0000000020005f64                dirtyRows
 COMMON         0x0000000020005f74        0xc /Applications/Simplicity Studio.app/Contents/Eclipse/developer/sdks/gecko_sdk_suite/v1.0//protocol/bluetooth_2.3/lib/EFR32BG1P/GCC/bgapi.a(uart_endpoint.c.obj)
                0x0000000020005f74                uarts
 COMMON         0x0000000020005f80        0x1 /Applications/Simplicity Studio.app/Contents/Eclipse/developer/sdks/gecko_sdk_suite/v1.0//protocol/bluetooth_2.3/lib/EFR32BG1P/GCC/bgapi.a(gpio.c.obj)
                0x0000000020005f80                gpio_events
 *fill*         0x0000000020005f81        0x3 
 COMMON         0x0000000020005f84        0x4 /Applications/Simplicity Studio.app/Contents/Eclipse/developer/toolchains/gnu_arm/4.9_2015q3/bin/../lib/gcc/arm-none-eabi/4.9.3/../../../../arm-none-eabi/lib/armv7e-m/softfp/libc.a(lib_a-reent.o)
                0x0000000020005f84                errno
                0x0000000020005f88                . = ALIGN (0x4)
                0x0000000020005f88                __bss_end__ = .

.heap           0x0000000020005f88      0xc00
                0x0000000020005f88                __HeapBase = .
                0x0000000020005f88                __end__ = .
                0x0000000020005f88                end = __end__
                0x0000000020005f88                _end = __end__
 *(.heap*)
 .heap          0x0000000020005f88      0xc00 ./device/EFR32_B_1_1_P/gcc/startup_efr32bg1p.o
                0x0000000020006b88                __HeapLimit = .

.stack_dummy    0x0000000020006b88      0x400
 *(.stack*)
 .stack         0x0000000020006b88      0x400 ./device/EFR32_B_1_1_P/gcc/startup_efr32bg1p.o
                0x0000000020007bfc                __StackTop = (ORIGIN (RAM) + 0x4bfc)
                0x00000000200077fc                __StackLimit = (__StackTop - SIZEOF (.stack_dummy))
                0x0000000020007bfc                PROVIDE (__stack, __StackTop)
                0x0000000000000001                ASSERT ((__StackLimit >= __HeapLimit), region RAM overflowed with stack)
OUTPUT(BlueGecko_Slave_Code.axf elf32-littlearm)

.ARM.attributes
                0x0000000000000000       0x2e
 .ARM.attributes
                0x0000000000000000       0x22 /Applications/Simplicity Studio.app/Contents/Eclipse/developer/toolchains/gnu_arm/4.9_2015q3/bin/../lib/gcc/arm-none-eabi/4.9.3/armv7e-m/softfp/crti.o
 .ARM.attributes
                0x0000000000000022       0x32 /Applications/Simplicity Studio.app/Contents/Eclipse/developer/toolchains/gnu_arm/4.9_2015q3/bin/../lib/gcc/arm-none-eabi/4.9.3/armv7e-m/softfp/crtbegin.o
 .ARM.attributes
                0x0000000000000054       0x20 /Applications/Simplicity Studio.app/Contents/Eclipse/developer/toolchains/gnu_arm/4.9_2015q3/bin/../lib/gcc/arm-none-eabi/4.9.3/../../../../arm-none-eabi/lib/armv7e-m/softfp/crt0.o
 .ARM.attributes
                0x0000000000000074       0x37 ./advertisement.o
 .ARM.attributes
                0x00000000000000ab       0x37 ./app.o
 .ARM.attributes
                0x00000000000000e2       0x37 ./app_hw.o
 .ARM.attributes
                0x0000000000000119       0x37 ./app_ui.o
 .ARM.attributes
                0x0000000000000150       0x37 ./beacon.o
 .ARM.attributes
                0x0000000000000187       0x37 ./gatt_db.o
 .ARM.attributes
                0x00000000000001be       0x37 ./graphics.o
 .ARM.attributes
                0x00000000000001f5       0x37 ./htm.o
 .ARM.attributes
                0x000000000000022c       0x37 ./ia.o
 .ARM.attributes
                0x0000000000000263       0x37 ./main.o
 .ARM.attributes
                0x000000000000029a       0x37 ./bgapi/dmadrv.o
 .ARM.attributes
                0x00000000000002d1       0x37 ./bgapi/em_adc.o
 .ARM.attributes
                0x0000000000000308       0x37 ./bgapi/em_ldma.o
 .ARM.attributes
                0x000000000000033f       0x37 ./bgapi/em_leuart.o
 .ARM.attributes
                0x0000000000000376       0x37 ./device/EFR32_B_1_1_P/gcc/startup_efr32bg1p.o
 .ARM.attributes
                0x00000000000003ad       0x37 ./emlib/em_cmu.o
 .ARM.attributes
                0x00000000000003e4       0x37 ./emlib/em_gpio.o
 .ARM.attributes
                0x000000000000041b       0x37 ./emlib/em_i2c.o
 .ARM.attributes
                0x0000000000000452       0x37 ./emlib/em_rtcc.o
 .ARM.attributes
                0x0000000000000489       0x37 ./emlib/em_system.o
 .ARM.attributes
                0x00000000000004c0       0x37 ./emlib/em_usart.o
 .ARM.attributes
                0x00000000000004f7       0x37 ./glib/BRD4100A/dmd_display.o
 .ARM.attributes
                0x000000000000052e       0x37 ./glib/BRD4100A/glib.o
 .ARM.attributes
                0x0000000000000565       0x37 ./glib/BRD4100A/glib_font_narrow_6x8.o
 .ARM.attributes
                0x000000000000059c       0x37 ./glib/BRD4100A/glib_font_normal_8x8.o
 .ARM.attributes
                0x00000000000005d3       0x37 ./glib/BRD4100A/glib_rectangle.o
 .ARM.attributes
                0x000000000000060a       0x37 ./glib/BRD4100A/glib_string.o
 .ARM.attributes
                0x0000000000000641       0x37 ./kit/BRD4100A/bsp_stk_leds.o
 .ARM.attributes
                0x0000000000000678       0x37 ./kit/BRD4100A/i2cspm.o
 .ARM.attributes
                0x00000000000006af       0x37 ./kit/BRD4100A/si7013.o
 .ARM.attributes
                0x00000000000006e6       0x37 ./kit/BRD4100A/udelay.o
 .ARM.attributes
                0x000000000000071d       0x37 ./kit_flashpwr/BRD4100A/mx25flash_spi.o
 .ARM.attributes
                0x0000000000000754       0x37 ./kit_lcd/BRD4100A/display.o
 .ARM.attributes
                0x000000000000078b       0x37 ./kit_lcd/BRD4100A/displayls013b7dh03.o
 .ARM.attributes
                0x00000000000007c2       0x37 ./kit_lcd/BRD4100A/displaypalemlib.o
 .ARM.attributes
                0x00000000000007f9       0x37 ./src/InitDevice.o
 .ARM.attributes
                0x0000000000000830       0x37 /Applications/Simplicity Studio.app/Contents/Eclipse/developer/sdks/gecko_sdk_suite/v1.0//protocol/bluetooth_2.3/lib/EFR32BG1P/GCC/bgapi.a(gecko_bgapi_hardware.c.obj)
 .ARM.attributes
                0x0000000000000867       0x37 /Applications/Simplicity Studio.app/Contents/Eclipse/developer/sdks/gecko_sdk_suite/v1.0//protocol/bluetooth_2.3/lib/EFR32BG1P/GCC/bgapi.a(gecko_bgapi_test.c.obj)
 .ARM.attributes
                0x000000000000089e       0x37 /Applications/Simplicity Studio.app/Contents/Eclipse/developer/sdks/gecko_sdk_suite/v1.0//protocol/bluetooth_2.3/lib/EFR32BG1P/GCC/bgapi.a(gecko_bgapi_util.c.obj)
 .ARM.attributes
                0x00000000000008d5       0x37 /Applications/Simplicity Studio.app/Contents/Eclipse/developer/sdks/gecko_sdk_suite/v1.0//protocol/bluetooth_2.3/lib/EFR32BG1P/GCC/bgapi.a(gecko_bgapi_dfu.c.obj)
 .ARM.attributes
                0x000000000000090c       0x37 /Applications/Simplicity Studio.app/Contents/Eclipse/developer/sdks/gecko_sdk_suite/v1.0//protocol/bluetooth_2.3/lib/EFR32BG1P/GCC/bgapi.a(gecko_bgapi_gap.c.obj)
 .ARM.attributes
                0x0000000000000943       0x37 /Applications/Simplicity Studio.app/Contents/Eclipse/developer/sdks/gecko_sdk_suite/v1.0//protocol/bluetooth_2.3/lib/EFR32BG1P/GCC/bgapi.a(gecko_bgapi_gatt.c.obj)
 .ARM.attributes
                0x000000000000097a       0x37 /Applications/Simplicity Studio.app/Contents/Eclipse/developer/sdks/gecko_sdk_suite/v1.0//protocol/bluetooth_2.3/lib/EFR32BG1P/GCC/bgapi.a(gecko_bgapi_gatt_server.c.obj)
 .ARM.attributes
                0x00000000000009b1       0x37 /Applications/Simplicity Studio.app/Contents/Eclipse/developer/sdks/gecko_sdk_suite/v1.0//protocol/bluetooth_2.3/lib/EFR32BG1P/GCC/bgapi.a(gecko_bgapi_flash.c.obj)
 .ARM.attributes
                0x00000000000009e8       0x37 /Applications/Simplicity Studio.app/Contents/Eclipse/developer/sdks/gecko_sdk_suite/v1.0//protocol/bluetooth_2.3/lib/EFR32BG1P/GCC/bgapi.a(gecko_bgapi_sm.c.obj)
 .ARM.attributes
                0x0000000000000a1f       0x37 /Applications/Simplicity Studio.app/Contents/Eclipse/developer/sdks/gecko_sdk_suite/v1.0//protocol/bluetooth_2.3/lib/EFR32BG1P/GCC/bgapi.a(gecko_bgapi_system.c.obj)
 .ARM.attributes
                0x0000000000000a56       0x37 /Applications/Simplicity Studio.app/Contents/Eclipse/developer/sdks/gecko_sdk_suite/v1.0//protocol/bluetooth_2.3/lib/EFR32BG1P/GCC/bgapi.a(gecko_bgapi_endpoint.c.obj)
 .ARM.attributes
                0x0000000000000a8d       0x37 /Applications/Simplicity Studio.app/Contents/Eclipse/developer/sdks/gecko_sdk_suite/v1.0//protocol/bluetooth_2.3/lib/EFR32BG1P/GCC/bgapi.a(gecko_bgapi_le_connection.c.obj)
 .ARM.attributes
                0x0000000000000ac4       0x37 /Applications/Simplicity Studio.app/Contents/Eclipse/developer/sdks/gecko_sdk_suite/v1.0//protocol/bluetooth_2.3/lib/EFR32BG1P/GCC/bgapi.a(bgapi_hardware_lib.c.obj)
 .ARM.attributes
                0x0000000000000afb       0x37 /Applications/Simplicity Studio.app/Contents/Eclipse/developer/sdks/gecko_sdk_suite/v1.0//protocol/bluetooth_2.3/lib/EFR32BG1P/GCC/bgapi.a(bgapi_hardware.c.obj)
 .ARM.attributes
                0x0000000000000b32       0x37 /Applications/Simplicity Studio.app/Contents/Eclipse/developer/sdks/gecko_sdk_suite/v1.0//protocol/bluetooth_2.3/lib/EFR32BG1P/GCC/bgapi.a(bgapi_test_lib.c.obj)
 .ARM.attributes
                0x0000000000000b69       0x37 /Applications/Simplicity Studio.app/Contents/Eclipse/developer/sdks/gecko_sdk_suite/v1.0//protocol/bluetooth_2.3/lib/EFR32BG1P/GCC/bgapi.a(bgapi_util.c.obj)
 .ARM.attributes
                0x0000000000000ba0       0x37 /Applications/Simplicity Studio.app/Contents/Eclipse/developer/sdks/gecko_sdk_suite/v1.0//protocol/bluetooth_2.3/lib/EFR32BG1P/GCC/bgapi.a(bgapi_dfu.c.obj)
 .ARM.attributes
                0x0000000000000bd7       0x37 /Applications/Simplicity Studio.app/Contents/Eclipse/developer/sdks/gecko_sdk_suite/v1.0//protocol/bluetooth_2.3/lib/EFR32BG1P/GCC/bgapi.a(bgapi_gap.c.obj)
 .ARM.attributes
                0x0000000000000c0e       0x37 /Applications/Simplicity Studio.app/Contents/Eclipse/developer/sdks/gecko_sdk_suite/v1.0//protocol/bluetooth_2.3/lib/EFR32BG1P/GCC/bgapi.a(bgapi_gatt_lib.c.obj)
 .ARM.attributes
                0x0000000000000c45       0x37 /Applications/Simplicity Studio.app/Contents/Eclipse/developer/sdks/gecko_sdk_suite/v1.0//protocol/bluetooth_2.3/lib/EFR32BG1P/GCC/bgapi.a(bgapi_ps.c.obj)
 .ARM.attributes
                0x0000000000000c7c       0x37 /Applications/Simplicity Studio.app/Contents/Eclipse/developer/sdks/gecko_sdk_suite/v1.0//protocol/bluetooth_2.3/lib/EFR32BG1P/GCC/bgapi.a(bgapi_sm.c.obj)
 .ARM.attributes
                0x0000000000000cb3       0x37 /Applications/Simplicity Studio.app/Contents/Eclipse/developer/sdks/gecko_sdk_suite/v1.0//protocol/bluetooth_2.3/lib/EFR32BG1P/GCC/bgapi.a(bgapi_system.c.obj)
 .ARM.attributes
                0x0000000000000cea       0x37 /Applications/Simplicity Studio.app/Contents/Eclipse/developer/sdks/gecko_sdk_suite/v1.0//protocol/bluetooth_2.3/lib/EFR32BG1P/GCC/bgapi.a(bgapi_endpoint.c.obj)
 .ARM.attributes
                0x0000000000000d21       0x37 /Applications/Simplicity Studio.app/Contents/Eclipse/developer/sdks/gecko_sdk_suite/v1.0//protocol/bluetooth_2.3/lib/EFR32BG1P/GCC/bgapi.a(bgapi_le_connection.c.obj)
 .ARM.attributes
                0x0000000000000d58       0x37 /Applications/Simplicity Studio.app/Contents/Eclipse/developer/sdks/gecko_sdk_suite/v1.0//protocol/bluetooth_2.3/lib/EFR32BG1P/GCC/bgapi.a(uart_endpoint.c.obj)
 .ARM.attributes
                0x0000000000000d8f       0x37 /Applications/Simplicity Studio.app/Contents/Eclipse/developer/sdks/gecko_sdk_suite/v1.0//protocol/bluetooth_2.3/lib/EFR32BG1P/GCC/bgapi.a(bgapi_endpoint.c.obj)
 .ARM.attributes
                0x0000000000000dc6       0x37 /Applications/Simplicity Studio.app/Contents/Eclipse/developer/sdks/gecko_sdk_suite/v1.0//protocol/bluetooth_2.3/lib/EFR32BG1P/GCC/bgapi.a(adc.c.obj)
 .ARM.attributes
                0x0000000000000dfd       0x37 /Applications/Simplicity Studio.app/Contents/Eclipse/developer/sdks/gecko_sdk_suite/v1.0//protocol/bluetooth_2.3/lib/EFR32BG1P/GCC/bgapi.a(gpio.c.obj)
 .ARM.attributes
                0x0000000000000e34       0x37 /Applications/Simplicity Studio.app/Contents/Eclipse/developer/sdks/gecko_sdk_suite/v1.0//protocol/bluetooth_2.3/lib/EFR32BG1P/GCC/bgapi.a(i2c.c.obj)
 .ARM.attributes
                0x0000000000000e6b       0x37 /Applications/Simplicity Studio.app/Contents/Eclipse/developer/sdks/gecko_sdk_suite/v1.0//protocol/bluetooth_2.3/lib/EFR32BG1P/GCC/bgapi.a(sleep_signal.c.obj)
 .ARM.attributes
                0x0000000000000ea2       0x37 /Applications/Simplicity Studio.app/Contents/Eclipse/developer/sdks/gecko_sdk_suite/v1.0//protocol/bluetooth_2.3/lib/EFR32BG1P/GCC/bgapi.a(uart.c.obj)
 .ARM.attributes
                0x0000000000000ed9       0x1c /Applications/Simplicity Studio.app/Contents/Eclipse/developer/sdks/gecko_sdk_suite/v1.0//protocol/bluetooth_2.3/lib/EFR32BG1P/EABI/binstack.o
 .ARM.attributes
                0x0000000000000ef5       0x1c /Applications/Simplicity Studio.app/Contents/Eclipse/developer/sdks/gecko_sdk_suite/v1.0//protocol/bluetooth_2.3/lib/EFR32BG1P/EABI/binbootloader.o
 .ARM.attributes
                0x0000000000000f11       0x22 /Applications/Simplicity Studio.app/Contents/Eclipse/developer/toolchains/gnu_arm/4.9_2015q3/bin/../lib/gcc/arm-none-eabi/4.9.3/armv7e-m/softfp/libgcc.a(_aeabi_uldivmod.o)
 .ARM.attributes
                0x0000000000000f33       0x32 /Applications/Simplicity Studio.app/Contents/Eclipse/developer/toolchains/gnu_arm/4.9_2015q3/bin/../lib/gcc/arm-none-eabi/4.9.3/armv7e-m/softfp/libgcc.a(bpabi.o)
 .ARM.attributes
                0x0000000000000f65       0x22 /Applications/Simplicity Studio.app/Contents/Eclipse/developer/toolchains/gnu_arm/4.9_2015q3/bin/../lib/gcc/arm-none-eabi/4.9.3/armv7e-m/softfp/libgcc.a(_dvmd_tls.o)
 .ARM.attributes
                0x0000000000000f87       0x32 /Applications/Simplicity Studio.app/Contents/Eclipse/developer/toolchains/gnu_arm/4.9_2015q3/bin/../lib/gcc/arm-none-eabi/4.9.3/armv7e-m/softfp/libgcc.a(_divdi3.o)
 .ARM.attributes
                0x0000000000000fb9       0x32 /Applications/Simplicity Studio.app/Contents/Eclipse/developer/toolchains/gnu_arm/4.9_2015q3/bin/../lib/gcc/arm-none-eabi/4.9.3/armv7e-m/softfp/libgcc.a(_udivdi3.o)
 .ARM.attributes
                0x0000000000000feb       0x32 /Applications/Simplicity Studio.app/Contents/Eclipse/developer/toolchains/gnu_arm/4.9_2015q3/bin/../lib/gcc/arm-none-eabi/4.9.3/../../../../arm-none-eabi/lib/armv7e-m/softfp/libc.a(lib_a-exit.o)
 .ARM.attributes
                0x000000000000101d       0x32 /Applications/Simplicity Studio.app/Contents/Eclipse/developer/toolchains/gnu_arm/4.9_2015q3/bin/../lib/gcc/arm-none-eabi/4.9.3/../../../../arm-none-eabi/lib/armv7e-m/softfp/libc.a(lib_a-impure.o)
 .ARM.attributes
                0x000000000000104f       0x32 /Applications/Simplicity Studio.app/Contents/Eclipse/developer/toolchains/gnu_arm/4.9_2015q3/bin/../lib/gcc/arm-none-eabi/4.9.3/../../../../arm-none-eabi/lib/armv7e-m/softfp/libc.a(lib_a-init.o)
 .ARM.attributes
                0x0000000000001081       0x20 /Applications/Simplicity Studio.app/Contents/Eclipse/developer/toolchains/gnu_arm/4.9_2015q3/bin/../lib/gcc/arm-none-eabi/4.9.3/../../../../arm-none-eabi/lib/armv7e-m/softfp/libc.a(lib_a-memcpy.o)
 .ARM.attributes
                0x00000000000010a1       0x32 /Applications/Simplicity Studio.app/Contents/Eclipse/developer/toolchains/gnu_arm/4.9_2015q3/bin/../lib/gcc/arm-none-eabi/4.9.3/../../../../arm-none-eabi/lib/armv7e-m/softfp/libc.a(lib_a-memset.o)
 .ARM.attributes
                0x00000000000010d3       0x32 /Applications/Simplicity Studio.app/Contents/Eclipse/developer/toolchains/gnu_arm/4.9_2015q3/bin/../lib/gcc/arm-none-eabi/4.9.3/../../../../arm-none-eabi/lib/armv7e-m/softfp/libc.a(lib_a-snprintf.o)
 .ARM.attributes
                0x0000000000001105       0x32 /Applications/Simplicity Studio.app/Contents/Eclipse/developer/toolchains/gnu_arm/4.9_2015q3/bin/../lib/gcc/arm-none-eabi/4.9.3/../../../../arm-none-eabi/lib/armv7e-m/softfp/libc.a(lib_a-strlen.o)
 .ARM.attributes
                0x0000000000001137       0x32 /Applications/Simplicity Studio.app/Contents/Eclipse/developer/toolchains/gnu_arm/4.9_2015q3/bin/../lib/gcc/arm-none-eabi/4.9.3/../../../../arm-none-eabi/lib/armv7e-m/softfp/libc.a(lib_a-svfprintf.o)
 .ARM.attributes
                0x0000000000001169       0x32 /Applications/Simplicity Studio.app/Contents/Eclipse/developer/toolchains/gnu_arm/4.9_2015q3/bin/../lib/gcc/arm-none-eabi/4.9.3/../../../../arm-none-eabi/lib/armv7e-m/softfp/libc.a(lib_a-__call_atexit.o)
 .ARM.attributes
                0x000000000000119b       0x32 /Applications/Simplicity Studio.app/Contents/Eclipse/developer/toolchains/gnu_arm/4.9_2015q3/bin/../lib/gcc/arm-none-eabi/4.9.3/../../../../arm-none-eabi/lib/armv7e-m/softfp/libc.a(lib_a-atexit.o)
 .ARM.attributes
                0x00000000000011cd       0x32 /Applications/Simplicity Studio.app/Contents/Eclipse/developer/toolchains/gnu_arm/4.9_2015q3/bin/../lib/gcc/arm-none-eabi/4.9.3/../../../../arm-none-eabi/lib/armv7e-m/softfp/libc.a(lib_a-dtoa.o)
 .ARM.attributes
                0x00000000000011ff       0x32 /Applications/Simplicity Studio.app/Contents/Eclipse/developer/toolchains/gnu_arm/4.9_2015q3/bin/../lib/gcc/arm-none-eabi/4.9.3/../../../../arm-none-eabi/lib/armv7e-m/softfp/libc.a(lib_a-fini.o)
 .ARM.attributes
                0x0000000000001231       0x32 /Applications/Simplicity Studio.app/Contents/Eclipse/developer/toolchains/gnu_arm/4.9_2015q3/bin/../lib/gcc/arm-none-eabi/4.9.3/../../../../arm-none-eabi/lib/armv7e-m/softfp/libc.a(lib_a-locale.o)
 .ARM.attributes
                0x0000000000001263       0x32 /Applications/Simplicity Studio.app/Contents/Eclipse/developer/toolchains/gnu_arm/4.9_2015q3/bin/../lib/gcc/arm-none-eabi/4.9.3/../../../../arm-none-eabi/lib/armv7e-m/softfp/libc.a(lib_a-mallocr.o)
 .ARM.attributes
                0x0000000000001295       0x32 /Applications/Simplicity Studio.app/Contents/Eclipse/developer/toolchains/gnu_arm/4.9_2015q3/bin/../lib/gcc/arm-none-eabi/4.9.3/../../../../arm-none-eabi/lib/armv7e-m/softfp/libc.a(lib_a-memchr.o)
 .ARM.attributes
                0x00000000000012c7       0x32 /Applications/Simplicity Studio.app/Contents/Eclipse/developer/toolchains/gnu_arm/4.9_2015q3/bin/../lib/gcc/arm-none-eabi/4.9.3/../../../../arm-none-eabi/lib/armv7e-m/softfp/libc.a(lib_a-mlock.o)
 .ARM.attributes
                0x00000000000012f9       0x32 /Applications/Simplicity Studio.app/Contents/Eclipse/developer/toolchains/gnu_arm/4.9_2015q3/bin/../lib/gcc/arm-none-eabi/4.9.3/../../../../arm-none-eabi/lib/armv7e-m/softfp/libc.a(lib_a-mprec.o)
 .ARM.attributes
                0x000000000000132b       0x32 /Applications/Simplicity Studio.app/Contents/Eclipse/developer/toolchains/gnu_arm/4.9_2015q3/bin/../lib/gcc/arm-none-eabi/4.9.3/../../../../arm-none-eabi/lib/armv7e-m/softfp/libc.a(lib_a-s_fpclassify.o)
 .ARM.attributes
                0x000000000000135d       0x32 /Applications/Simplicity Studio.app/Contents/Eclipse/developer/toolchains/gnu_arm/4.9_2015q3/bin/../lib/gcc/arm-none-eabi/4.9.3/../../../../arm-none-eabi/lib/armv7e-m/softfp/libc.a(lib_a-sbrkr.o)
 .ARM.attributes
                0x000000000000138f       0x20 /Applications/Simplicity Studio.app/Contents/Eclipse/developer/toolchains/gnu_arm/4.9_2015q3/bin/../lib/gcc/arm-none-eabi/4.9.3/../../../../arm-none-eabi/lib/armv7e-m/softfp/libc.a(lib_a-strcmp.o)
 .ARM.attributes
                0x00000000000013af       0x32 /Applications/Simplicity Studio.app/Contents/Eclipse/developer/toolchains/gnu_arm/4.9_2015q3/bin/../lib/gcc/arm-none-eabi/4.9.3/../../../../arm-none-eabi/lib/armv7e-m/softfp/libc.a(lib_a-svfiprintf.o)
 .ARM.attributes
                0x00000000000013e1       0x32 /Applications/Simplicity Studio.app/Contents/Eclipse/developer/toolchains/gnu_arm/4.9_2015q3/bin/../lib/gcc/arm-none-eabi/4.9.3/../../../../arm-none-eabi/lib/armv7e-m/softfp/libc.a(lib_a-__atexit.o)
 .ARM.attributes
                0x0000000000001413       0x32 /Applications/Simplicity Studio.app/Contents/Eclipse/developer/toolchains/gnu_arm/4.9_2015q3/bin/../lib/gcc/arm-none-eabi/4.9.3/../../../../arm-none-eabi/lib/armv7e-m/softfp/libc.a(lib_a-callocr.o)
 .ARM.attributes
                0x0000000000001445       0x32 /Applications/Simplicity Studio.app/Contents/Eclipse/developer/toolchains/gnu_arm/4.9_2015q3/bin/../lib/gcc/arm-none-eabi/4.9.3/../../../../arm-none-eabi/lib/armv7e-m/softfp/libc.a(lib_a-freer.o)
 .ARM.attributes
                0x0000000000001477       0x32 /Applications/Simplicity Studio.app/Contents/Eclipse/developer/toolchains/gnu_arm/4.9_2015q3/bin/../lib/gcc/arm-none-eabi/4.9.3/../../../../arm-none-eabi/lib/armv7e-m/softfp/libc.a(lib_a-memmove.o)
 .ARM.attributes
                0x00000000000014a9       0x32 /Applications/Simplicity Studio.app/Contents/Eclipse/developer/toolchains/gnu_arm/4.9_2015q3/bin/../lib/gcc/arm-none-eabi/4.9.3/../../../../arm-none-eabi/lib/armv7e-m/softfp/libc.a(lib_a-reallocr.o)
 .ARM.attributes
                0x00000000000014db       0x32 /Applications/Simplicity Studio.app/Contents/Eclipse/developer/toolchains/gnu_arm/4.9_2015q3/bin/../lib/gcc/arm-none-eabi/4.9.3/../../../../arm-none-eabi/lib/armv7e-m/softfp/libc.a(lib_a-reent.o)
 .ARM.attributes
                0x000000000000150d       0x32 /Applications/Simplicity Studio.app/Contents/Eclipse/developer/toolchains/gnu_arm/4.9_2015q3/bin/../lib/gcc/arm-none-eabi/4.9.3/../../../../arm-none-eabi/lib/armv7e-m/softfp/libnosys.a(sbrk.o)
 .ARM.attributes
                0x000000000000153f       0x32 /Applications/Simplicity Studio.app/Contents/Eclipse/developer/toolchains/gnu_arm/4.9_2015q3/bin/../lib/gcc/arm-none-eabi/4.9.3/../../../../arm-none-eabi/lib/armv7e-m/softfp/libnosys.a(_exit.o)
 .ARM.attributes
                0x0000000000001571       0x22 /Applications/Simplicity Studio.app/Contents/Eclipse/developer/toolchains/gnu_arm/4.9_2015q3/bin/../lib/gcc/arm-none-eabi/4.9.3/armv7e-m/softfp/libgcc.a(_arm_addsubdf3.o)
 .ARM.attributes
                0x0000000000001593       0x22 /Applications/Simplicity Studio.app/Contents/Eclipse/developer/toolchains/gnu_arm/4.9_2015q3/bin/../lib/gcc/arm-none-eabi/4.9.3/armv7e-m/softfp/libgcc.a(_arm_muldivdf3.o)
 .ARM.attributes
                0x00000000000015b5       0x22 /Applications/Simplicity Studio.app/Contents/Eclipse/developer/toolchains/gnu_arm/4.9_2015q3/bin/../lib/gcc/arm-none-eabi/4.9.3/armv7e-m/softfp/libgcc.a(_arm_cmpdf2.o)
 .ARM.attributes
                0x00000000000015d7       0x22 /Applications/Simplicity Studio.app/Contents/Eclipse/developer/toolchains/gnu_arm/4.9_2015q3/bin/../lib/gcc/arm-none-eabi/4.9.3/armv7e-m/softfp/libgcc.a(_arm_fixdfsi.o)
 .ARM.attributes
                0x00000000000015f9       0x32 /Applications/Simplicity Studio.app/Contents/Eclipse/developer/toolchains/gnu_arm/4.9_2015q3/bin/../lib/gcc/arm-none-eabi/4.9.3/armv7e-m/softfp/crtend.o
 .ARM.attributes
                0x000000000000162b       0x22 /Applications/Simplicity Studio.app/Contents/Eclipse/developer/toolchains/gnu_arm/4.9_2015q3/bin/../lib/gcc/arm-none-eabi/4.9.3/armv7e-m/softfp/crtn.o

.comment        0x0000000000000000       0xde
 .comment       0x0000000000000000       0x70 ./advertisement.o
                                         0x71 (size before relaxing)
 .comment       0x0000000000000000       0x71 ./app.o
 .comment       0x0000000000000000       0x71 ./app_hw.o
 .comment       0x0000000000000000       0x71 ./app_ui.o
 .comment       0x0000000000000000       0x71 ./beacon.o
 .comment       0x0000000000000000       0x71 ./gatt_db.o
 .comment       0x0000000000000000       0x71 ./graphics.o
 .comment       0x0000000000000000       0x71 ./htm.o
 .comment       0x0000000000000000       0x71 ./ia.o
 .comment       0x0000000000000000       0x71 ./main.o
 .comment       0x0000000000000000       0x71 ./bgapi/dmadrv.o
 .comment       0x0000000000000000       0x71 ./bgapi/em_adc.o
 .comment       0x0000000000000000       0x71 ./bgapi/em_ldma.o
 .comment       0x0000000000000000       0x71 ./bgapi/em_leuart.o
 .comment       0x0000000000000000       0x71 ./device/EFR32_B_1_1_P/gcc/startup_efr32bg1p.o
 .comment       0x0000000000000000       0x71 ./emlib/em_cmu.o
 .comment       0x0000000000000000       0x71 ./emlib/em_gpio.o
 .comment       0x0000000000000000       0x71 ./emlib/em_i2c.o
 .comment       0x0000000000000000       0x71 ./emlib/em_rtcc.o
 .comment       0x0000000000000000       0x71 ./emlib/em_system.o
 .comment       0x0000000000000000       0x71 ./emlib/em_usart.o
 .comment       0x0000000000000000       0x71 ./glib/BRD4100A/dmd_display.o
 .comment       0x0000000000000000       0x71 ./glib/BRD4100A/glib.o
 .comment       0x0000000000000000       0x71 ./glib/BRD4100A/glib_font_narrow_6x8.o
 .comment       0x0000000000000000       0x71 ./glib/BRD4100A/glib_font_normal_8x8.o
 .comment       0x0000000000000000       0x71 ./glib/BRD4100A/glib_rectangle.o
 .comment       0x0000000000000000       0x71 ./glib/BRD4100A/glib_string.o
 .comment       0x0000000000000000       0x71 ./kit/BRD4100A/bsp_stk_leds.o
 .comment       0x0000000000000000       0x71 ./kit/BRD4100A/i2cspm.o
 .comment       0x0000000000000000       0x71 ./kit/BRD4100A/si7013.o
 .comment       0x0000000000000000       0x71 ./kit/BRD4100A/udelay.o
 .comment       0x0000000000000000       0x71 ./kit_flashpwr/BRD4100A/mx25flash_spi.o
 .comment       0x0000000000000000       0x71 ./kit_lcd/BRD4100A/display.o
 .comment       0x0000000000000000       0x71 ./kit_lcd/BRD4100A/displayls013b7dh03.o
 .comment       0x0000000000000000       0x71 ./kit_lcd/BRD4100A/displaypalemlib.o
 .comment       0x0000000000000000       0x71 ./src/InitDevice.o
 .comment       0x0000000000000070       0x6e /Applications/Simplicity Studio.app/Contents/Eclipse/developer/sdks/gecko_sdk_suite/v1.0//protocol/bluetooth_2.3/lib/EFR32BG1P/GCC/bgapi.a(gecko_bgapi_hardware.c.obj)
                                         0x6f (size before relaxing)
 .comment       0x0000000000000000       0x6f /Applications/Simplicity Studio.app/Contents/Eclipse/developer/sdks/gecko_sdk_suite/v1.0//protocol/bluetooth_2.3/lib/EFR32BG1P/GCC/bgapi.a(gecko_bgapi_test.c.obj)
 .comment       0x0000000000000000       0x6f /Applications/Simplicity Studio.app/Contents/Eclipse/developer/sdks/gecko_sdk_suite/v1.0//protocol/bluetooth_2.3/lib/EFR32BG1P/GCC/bgapi.a(gecko_bgapi_util.c.obj)
 .comment       0x0000000000000000       0x6f /Applications/Simplicity Studio.app/Contents/Eclipse/developer/sdks/gecko_sdk_suite/v1.0//protocol/bluetooth_2.3/lib/EFR32BG1P/GCC/bgapi.a(gecko_bgapi_dfu.c.obj)
 .comment       0x0000000000000000       0x6f /Applications/Simplicity Studio.app/Contents/Eclipse/developer/sdks/gecko_sdk_suite/v1.0//protocol/bluetooth_2.3/lib/EFR32BG1P/GCC/bgapi.a(gecko_bgapi_gap.c.obj)
 .comment       0x0000000000000000       0x6f /Applications/Simplicity Studio.app/Contents/Eclipse/developer/sdks/gecko_sdk_suite/v1.0//protocol/bluetooth_2.3/lib/EFR32BG1P/GCC/bgapi.a(gecko_bgapi_gatt.c.obj)
 .comment       0x0000000000000000       0x6f /Applications/Simplicity Studio.app/Contents/Eclipse/developer/sdks/gecko_sdk_suite/v1.0//protocol/bluetooth_2.3/lib/EFR32BG1P/GCC/bgapi.a(gecko_bgapi_gatt_server.c.obj)
 .comment       0x0000000000000000       0x6f /Applications/Simplicity Studio.app/Contents/Eclipse/developer/sdks/gecko_sdk_suite/v1.0//protocol/bluetooth_2.3/lib/EFR32BG1P/GCC/bgapi.a(gecko_bgapi_flash.c.obj)
 .comment       0x0000000000000000       0x6f /Applications/Simplicity Studio.app/Contents/Eclipse/developer/sdks/gecko_sdk_suite/v1.0//protocol/bluetooth_2.3/lib/EFR32BG1P/GCC/bgapi.a(gecko_bgapi_sm.c.obj)
 .comment       0x0000000000000000       0x6f /Applications/Simplicity Studio.app/Contents/Eclipse/developer/sdks/gecko_sdk_suite/v1.0//protocol/bluetooth_2.3/lib/EFR32BG1P/GCC/bgapi.a(gecko_bgapi_system.c.obj)
 .comment       0x0000000000000000       0x6f /Applications/Simplicity Studio.app/Contents/Eclipse/developer/sdks/gecko_sdk_suite/v1.0//protocol/bluetooth_2.3/lib/EFR32BG1P/GCC/bgapi.a(gecko_bgapi_endpoint.c.obj)
 .comment       0x0000000000000000       0x6f /Applications/Simplicity Studio.app/Contents/Eclipse/developer/sdks/gecko_sdk_suite/v1.0//protocol/bluetooth_2.3/lib/EFR32BG1P/GCC/bgapi.a(gecko_bgapi_le_connection.c.obj)
 .comment       0x0000000000000000       0x6f /Applications/Simplicity Studio.app/Contents/Eclipse/developer/sdks/gecko_sdk_suite/v1.0//protocol/bluetooth_2.3/lib/EFR32BG1P/GCC/bgapi.a(bgapi_hardware_lib.c.obj)
 .comment       0x0000000000000000       0x6f /Applications/Simplicity Studio.app/Contents/Eclipse/developer/sdks/gecko_sdk_suite/v1.0//protocol/bluetooth_2.3/lib/EFR32BG1P/GCC/bgapi.a(bgapi_hardware.c.obj)
 .comment       0x0000000000000000       0x6f /Applications/Simplicity Studio.app/Contents/Eclipse/developer/sdks/gecko_sdk_suite/v1.0//protocol/bluetooth_2.3/lib/EFR32BG1P/GCC/bgapi.a(bgapi_test_lib.c.obj)
 .comment       0x0000000000000000       0x6f /Applications/Simplicity Studio.app/Contents/Eclipse/developer/sdks/gecko_sdk_suite/v1.0//protocol/bluetooth_2.3/lib/EFR32BG1P/GCC/bgapi.a(bgapi_util.c.obj)
 .comment       0x0000000000000000       0x6f /Applications/Simplicity Studio.app/Contents/Eclipse/developer/sdks/gecko_sdk_suite/v1.0//protocol/bluetooth_2.3/lib/EFR32BG1P/GCC/bgapi.a(bgapi_dfu.c.obj)
 .comment       0x0000000000000000       0x6f /Applications/Simplicity Studio.app/Contents/Eclipse/developer/sdks/gecko_sdk_suite/v1.0//protocol/bluetooth_2.3/lib/EFR32BG1P/GCC/bgapi.a(bgapi_gap.c.obj)
 .comment       0x0000000000000000       0x6f /Applications/Simplicity Studio.app/Contents/Eclipse/developer/sdks/gecko_sdk_suite/v1.0//protocol/bluetooth_2.3/lib/EFR32BG1P/GCC/bgapi.a(bgapi_gatt_lib.c.obj)
 .comment       0x0000000000000000       0x6f /Applications/Simplicity Studio.app/Contents/Eclipse/developer/sdks/gecko_sdk_suite/v1.0//protocol/bluetooth_2.3/lib/EFR32BG1P/GCC/bgapi.a(bgapi_ps.c.obj)
 .comment       0x0000000000000000       0x6f /Applications/Simplicity Studio.app/Contents/Eclipse/developer/sdks/gecko_sdk_suite/v1.0//protocol/bluetooth_2.3/lib/EFR32BG1P/GCC/bgapi.a(bgapi_sm.c.obj)
 .comment       0x0000000000000000       0x6f /Applications/Simplicity Studio.app/Contents/Eclipse/developer/sdks/gecko_sdk_suite/v1.0//protocol/bluetooth_2.3/lib/EFR32BG1P/GCC/bgapi.a(bgapi_system.c.obj)
 .comment       0x0000000000000000       0x6f /Applications/Simplicity Studio.app/Contents/Eclipse/developer/sdks/gecko_sdk_suite/v1.0//protocol/bluetooth_2.3/lib/EFR32BG1P/GCC/bgapi.a(bgapi_endpoint.c.obj)
 .comment       0x0000000000000000       0x6f /Applications/Simplicity Studio.app/Contents/Eclipse/developer/sdks/gecko_sdk_suite/v1.0//protocol/bluetooth_2.3/lib/EFR32BG1P/GCC/bgapi.a(bgapi_le_connection.c.obj)
 .comment       0x0000000000000000       0x6f /Applications/Simplicity Studio.app/Contents/Eclipse/developer/sdks/gecko_sdk_suite/v1.0//protocol/bluetooth_2.3/lib/EFR32BG1P/GCC/bgapi.a(uart_endpoint.c.obj)
 .comment       0x0000000000000000       0x6f /Applications/Simplicity Studio.app/Contents/Eclipse/developer/sdks/gecko_sdk_suite/v1.0//protocol/bluetooth_2.3/lib/EFR32BG1P/GCC/bgapi.a(bgapi_endpoint.c.obj)
 .comment       0x0000000000000000       0x6f /Applications/Simplicity Studio.app/Contents/Eclipse/developer/sdks/gecko_sdk_suite/v1.0//protocol/bluetooth_2.3/lib/EFR32BG1P/GCC/bgapi.a(adc.c.obj)
 .comment       0x0000000000000000       0x6f /Applications/Simplicity Studio.app/Contents/Eclipse/developer/sdks/gecko_sdk_suite/v1.0//protocol/bluetooth_2.3/lib/EFR32BG1P/GCC/bgapi.a(gpio.c.obj)
 .comment       0x0000000000000000       0x6f /Applications/Simplicity Studio.app/Contents/Eclipse/developer/sdks/gecko_sdk_suite/v1.0//protocol/bluetooth_2.3/lib/EFR32BG1P/GCC/bgapi.a(i2c.c.obj)
 .comment       0x0000000000000000       0x6f /Applications/Simplicity Studio.app/Contents/Eclipse/developer/sdks/gecko_sdk_suite/v1.0//protocol/bluetooth_2.3/lib/EFR32BG1P/GCC/bgapi.a(sleep_signal.c.obj)
 .comment       0x0000000000000000       0x6f /Applications/Simplicity Studio.app/Contents/Eclipse/developer/sdks/gecko_sdk_suite/v1.0//protocol/bluetooth_2.3/lib/EFR32BG1P/GCC/bgapi.a(uart.c.obj)

.debug_info     0x0000000000000000    0x3984d
 .debug_info    0x0000000000000000     0x3b1e ./advertisement.o
 .debug_info    0x0000000000003b1e     0x6209 ./app.o
 .debug_info    0x0000000000009d27      0x4bf ./app_hw.o
 .debug_info    0x000000000000a1e6     0x43d2 ./app_ui.o
 .debug_info    0x000000000000e5b8     0x3fb7 ./beacon.o
 .debug_info    0x000000000001256f      0x64a ./gatt_db.o
 .debug_info    0x0000000000012bb9      0x5b4 ./graphics.o
 .debug_info    0x000000000001316d     0x42cf ./htm.o
 .debug_info    0x000000000001743c     0x3988 ./ia.o
 .debug_info    0x000000000001adc4     0x4862 ./main.o
 .debug_info    0x000000000001f626     0x1851 ./bgapi/dmadrv.o
 .debug_info    0x0000000000020e77     0x1c90 ./bgapi/em_adc.o
 .debug_info    0x0000000000022b07     0x1289 ./bgapi/em_ldma.o
 .debug_info    0x0000000000023d90      0xa62 ./bgapi/em_leuart.o
 .debug_info    0x00000000000247f2      0x1c0 ./device/EFR32_B_1_1_P/gcc/startup_efr32bg1p.o
 .debug_info    0x00000000000249b2     0x31e1 ./emlib/em_cmu.o
 .debug_info    0x0000000000027b93      0xebd ./emlib/em_gpio.o
 .debug_info    0x0000000000028a50      0xb27 ./emlib/em_i2c.o
 .debug_info    0x0000000000029577      0x6ec ./emlib/em_rtcc.o
 .debug_info    0x0000000000029c63      0x26d ./emlib/em_system.o
 .debug_info    0x0000000000029ed0     0x11c8 ./emlib/em_usart.o
 .debug_info    0x000000000002b098      0xc3d ./glib/BRD4100A/dmd_display.o
 .debug_info    0x000000000002bcd5      0xc37 ./glib/BRD4100A/glib.o
 .debug_info    0x000000000002c90c      0x19a ./glib/BRD4100A/glib_font_narrow_6x8.o
 .debug_info    0x000000000002caa6      0x19a ./glib/BRD4100A/glib_font_normal_8x8.o
 .debug_info    0x000000000002cc40      0x6bb ./glib/BRD4100A/glib_rectangle.o
 .debug_info    0x000000000002d2fb      0x71f ./glib/BRD4100A/glib_string.o
 .debug_info    0x000000000002da1a      0xa92 ./kit/BRD4100A/bsp_stk_leds.o
 .debug_info    0x000000000002e4ac      0xb0e ./kit/BRD4100A/i2cspm.o
 .debug_info    0x000000000002efba      0x99e ./kit/BRD4100A/si7013.o
 .debug_info    0x000000000002f958     0x11a3 ./kit/BRD4100A/udelay.o
 .debug_info    0x0000000000030afb     0x5255 ./kit_flashpwr/BRD4100A/mx25flash_spi.o
 .debug_info    0x0000000000035d50      0x44b ./kit_lcd/BRD4100A/display.o
 .debug_info    0x000000000003619b      0xb14 ./kit_lcd/BRD4100A/displayls013b7dh03.o
 .debug_info    0x0000000000036caf      0xfae ./kit_lcd/BRD4100A/displaypalemlib.o
 .debug_info    0x0000000000037c5d     0x1bf0 ./src/InitDevice.o

.debug_abbrev   0x0000000000000000     0x5cd5
 .debug_abbrev  0x0000000000000000      0x20d ./advertisement.o
 .debug_abbrev  0x000000000000020d      0x4e7 ./app.o
 .debug_abbrev  0x00000000000006f4      0x1ef ./app_hw.o
 .debug_abbrev  0x00000000000008e3      0x3d2 ./app_ui.o
 .debug_abbrev  0x0000000000000cb5      0x1de ./beacon.o
 .debug_abbrev  0x0000000000000e93       0xbd ./gatt_db.o
 .debug_abbrev  0x0000000000000f50      0x206 ./graphics.o
 .debug_abbrev  0x0000000000001156      0x31b ./htm.o
 .debug_abbrev  0x0000000000001471      0x159 ./ia.o
 .debug_abbrev  0x00000000000015ca      0x2b6 ./main.o
 .debug_abbrev  0x0000000000001880      0x38f ./bgapi/dmadrv.o
 .debug_abbrev  0x0000000000001c0f      0x313 ./bgapi/em_adc.o
 .debug_abbrev  0x0000000000001f22      0x392 ./bgapi/em_ldma.o
 .debug_abbrev  0x00000000000022b4      0x2e6 ./bgapi/em_leuart.o
 .debug_abbrev  0x000000000000259a      0x104 ./device/EFR32_B_1_1_P/gcc/startup_efr32bg1p.o
 .debug_abbrev  0x000000000000269e      0x478 ./emlib/em_cmu.o
 .debug_abbrev  0x0000000000002b16      0x2d4 ./emlib/em_gpio.o
 .debug_abbrev  0x0000000000002dea      0x395 ./emlib/em_i2c.o
 .debug_abbrev  0x000000000000317f      0x1e2 ./emlib/em_rtcc.o
 .debug_abbrev  0x0000000000003361      0x109 ./emlib/em_system.o
 .debug_abbrev  0x000000000000346a      0x370 ./emlib/em_usart.o
 .debug_abbrev  0x00000000000037da      0x308 ./glib/BRD4100A/dmd_display.o
 .debug_abbrev  0x0000000000003ae2      0x367 ./glib/BRD4100A/glib.o
 .debug_abbrev  0x0000000000003e49       0xa7 ./glib/BRD4100A/glib_font_narrow_6x8.o
 .debug_abbrev  0x0000000000003ef0       0xa7 ./glib/BRD4100A/glib_font_normal_8x8.o
 .debug_abbrev  0x0000000000003f97      0x218 ./glib/BRD4100A/glib_rectangle.o
 .debug_abbrev  0x00000000000041af      0x20f ./glib/BRD4100A/glib_string.o
 .debug_abbrev  0x00000000000043be      0x299 ./kit/BRD4100A/bsp_stk_leds.o
 .debug_abbrev  0x0000000000004657      0x2a6 ./kit/BRD4100A/i2cspm.o
 .debug_abbrev  0x00000000000048fd      0x2d0 ./kit/BRD4100A/si7013.o
 .debug_abbrev  0x0000000000004bcd      0x2eb ./kit/BRD4100A/udelay.o
 .debug_abbrev  0x0000000000004eb8      0x44c ./kit_flashpwr/BRD4100A/mx25flash_spi.o
 .debug_abbrev  0x0000000000005304      0x133 ./kit_lcd/BRD4100A/display.o
 .debug_abbrev  0x0000000000005437      0x2c3 ./kit_lcd/BRD4100A/displayls013b7dh03.o
 .debug_abbrev  0x00000000000056fa      0x321 ./kit_lcd/BRD4100A/displaypalemlib.o
 .debug_abbrev  0x0000000000005a1b      0x2ba ./src/InitDevice.o

.debug_loc      0x0000000000000000     0xe3e9
 .debug_loc     0x0000000000000000       0x60 ./advertisement.o
 .debug_loc     0x0000000000000060      0x920 ./app.o
 .debug_loc     0x0000000000000980      0x135 ./app_hw.o
 .debug_loc     0x0000000000000ab5      0x41d ./app_ui.o
 .debug_loc     0x0000000000000ed2       0x2c ./beacon.o
 .debug_loc     0x0000000000000efe      0x2a9 ./graphics.o
 .debug_loc     0x00000000000011a7      0x363 ./htm.o
 .debug_loc     0x000000000000150a       0xaf ./ia.o
 .debug_loc     0x00000000000015b9       0x33 ./main.o
 .debug_loc     0x00000000000015ec     0x10da ./bgapi/dmadrv.o
 .debug_loc     0x00000000000026c6      0xd59 ./bgapi/em_adc.o
 .debug_loc     0x000000000000341f      0x46d ./bgapi/em_ldma.o
 .debug_loc     0x000000000000388c      0x46f ./bgapi/em_leuart.o
 .debug_loc     0x0000000000003cfb       0x4b ./device/EFR32_B_1_1_P/gcc/startup_efr32bg1p.o
 .debug_loc     0x0000000000003d46     0x27cc ./emlib/em_cmu.o
 .debug_loc     0x0000000000006512      0x798 ./emlib/em_gpio.o
 .debug_loc     0x0000000000006caa      0x859 ./emlib/em_i2c.o
 .debug_loc     0x0000000000007503       0xdc ./emlib/em_rtcc.o
 .debug_loc     0x00000000000075df       0x91 ./emlib/em_system.o
 .debug_loc     0x0000000000007670      0x7b9 ./emlib/em_usart.o
 .debug_loc     0x0000000000007e29     0x1018 ./glib/BRD4100A/dmd_display.o
 .debug_loc     0x0000000000008e41      0xa66 ./glib/BRD4100A/glib.o
 .debug_loc     0x00000000000098a7      0x4b7 ./glib/BRD4100A/glib_rectangle.o
 .debug_loc     0x0000000000009d5e      0xa0e ./glib/BRD4100A/glib_string.o
 .debug_loc     0x000000000000a76c      0x793 ./kit/BRD4100A/bsp_stk_leds.o
 .debug_loc     0x000000000000aeff      0x214 ./kit/BRD4100A/i2cspm.o
 .debug_loc     0x000000000000b113      0x661 ./kit/BRD4100A/si7013.o
 .debug_loc     0x000000000000b774      0x372 ./kit/BRD4100A/udelay.o
 .debug_loc     0x000000000000bae6     0x1a8a ./kit_flashpwr/BRD4100A/mx25flash_spi.o
 .debug_loc     0x000000000000d570      0x281 ./kit_lcd/BRD4100A/display.o
 .debug_loc     0x000000000000d7f1      0x581 ./kit_lcd/BRD4100A/displayls013b7dh03.o
 .debug_loc     0x000000000000dd72      0x4b8 ./kit_lcd/BRD4100A/displaypalemlib.o
 .debug_loc     0x000000000000e22a      0x1bf ./src/InitDevice.o

.debug_aranges  0x0000000000000000      0xd20
 .debug_aranges
                0x0000000000000000       0x30 ./advertisement.o
 .debug_aranges
                0x0000000000000030       0x60 ./app.o
 .debug_aranges
                0x0000000000000090       0x40 ./app_hw.o
 .debug_aranges
                0x00000000000000d0       0x50 ./app_ui.o
 .debug_aranges
                0x0000000000000120       0x20 ./beacon.o
 .debug_aranges
                0x0000000000000140       0x18 ./gatt_db.o
 .debug_aranges
                0x0000000000000158       0x30 ./graphics.o
 .debug_aranges
                0x0000000000000188       0x40 ./htm.o
 .debug_aranges
                0x00000000000001c8       0x20 ./ia.o
 .debug_aranges
                0x00000000000001e8       0x20 ./main.o
 .debug_aranges
                0x0000000000000208       0xa0 ./bgapi/dmadrv.o
 .debug_aranges
                0x00000000000002a8       0x70 ./bgapi/em_adc.o
 .debug_aranges
                0x0000000000000318       0x50 ./bgapi/em_ldma.o
 .debug_aranges
                0x0000000000000368       0x80 ./bgapi/em_leuart.o
 .debug_aranges
                0x00000000000003e8       0x28 ./device/EFR32_B_1_1_P/gcc/startup_efr32bg1p.o
 .debug_aranges
                0x0000000000000410      0x110 ./emlib/em_cmu.o
 .debug_aranges
                0x0000000000000520       0x48 ./emlib/em_gpio.o
 .debug_aranges
                0x0000000000000568       0x58 ./emlib/em_i2c.o
 .debug_aranges
                0x00000000000005c0       0x40 ./emlib/em_rtcc.o
 .debug_aranges
                0x0000000000000600       0x28 ./emlib/em_system.o
 .debug_aranges
                0x0000000000000628       0xb8 ./emlib/em_usart.o
 .debug_aranges
                0x00000000000006e0       0x90 ./glib/BRD4100A/dmd_display.o
 .debug_aranges
                0x0000000000000770       0x98 ./glib/BRD4100A/glib.o
 .debug_aranges
                0x0000000000000808       0x18 ./glib/BRD4100A/glib_font_narrow_6x8.o
 .debug_aranges
                0x0000000000000820       0x18 ./glib/BRD4100A/glib_font_normal_8x8.o
 .debug_aranges
                0x0000000000000838       0x38 ./glib/BRD4100A/glib_rectangle.o
 .debug_aranges
                0x0000000000000870       0x38 ./glib/BRD4100A/glib_string.o
 .debug_aranges
                0x00000000000008a8       0x50 ./kit/BRD4100A/bsp_stk_leds.o
 .debug_aranges
                0x00000000000008f8       0x28 ./kit/BRD4100A/i2cspm.o
 .debug_aranges
                0x0000000000000920       0x58 ./kit/BRD4100A/si7013.o
 .debug_aranges
                0x0000000000000978       0x28 ./kit/BRD4100A/udelay.o
 .debug_aranges
                0x00000000000009a0      0x198 ./kit_flashpwr/BRD4100A/mx25flash_spi.o
 .debug_aranges
                0x0000000000000b38       0x38 ./kit_lcd/BRD4100A/display.o
 .debug_aranges
                0x0000000000000b70       0x60 ./kit_lcd/BRD4100A/displayls013b7dh03.o
 .debug_aranges
                0x0000000000000bd0       0x80 ./kit_lcd/BRD4100A/displaypalemlib.o
 .debug_aranges
                0x0000000000000c50       0xd0 ./src/InitDevice.o

.debug_ranges   0x0000000000000000     0x2b48
 .debug_ranges  0x0000000000000000       0x48 ./advertisement.o
 .debug_ranges  0x0000000000000048      0x2b8 ./app.o
 .debug_ranges  0x0000000000000300       0x30 ./app_hw.o
 .debug_ranges  0x0000000000000330      0x118 ./app_ui.o
 .debug_ranges  0x0000000000000448       0x48 ./beacon.o
 .debug_ranges  0x0000000000000490       0x60 ./graphics.o
 .debug_ranges  0x00000000000004f0      0x108 ./htm.o
 .debug_ranges  0x00000000000005f8       0x10 ./ia.o
 .debug_ranges  0x0000000000000608       0x10 ./main.o
 .debug_ranges  0x0000000000000618       0xa8 ./bgapi/dmadrv.o
 .debug_ranges  0x00000000000006c0      0x128 ./bgapi/em_adc.o
 .debug_ranges  0x00000000000007e8       0xf0 ./bgapi/em_ldma.o
 .debug_ranges  0x00000000000008d8      0x120 ./bgapi/em_leuart.o
 .debug_ranges  0x00000000000009f8       0x18 ./device/EFR32_B_1_1_P/gcc/startup_efr32bg1p.o
 .debug_ranges  0x0000000000000a10      0x8b8 ./emlib/em_cmu.o
 .debug_ranges  0x00000000000012c8      0x180 ./emlib/em_gpio.o
 .debug_ranges  0x0000000000001448      0x100 ./emlib/em_i2c.o
 .debug_ranges  0x0000000000001548       0x70 ./emlib/em_rtcc.o
 .debug_ranges  0x00000000000015b8       0x18 ./emlib/em_system.o
 .debug_ranges  0x00000000000015d0      0x148 ./emlib/em_usart.o
 .debug_ranges  0x0000000000001718       0xc8 ./glib/BRD4100A/dmd_display.o
 .debug_ranges  0x00000000000017e0       0xb8 ./glib/BRD4100A/glib.o
 .debug_ranges  0x0000000000001898       0x58 ./glib/BRD4100A/glib_rectangle.o
 .debug_ranges  0x00000000000018f0       0x48 ./glib/BRD4100A/glib_string.o
 .debug_ranges  0x0000000000001938      0x108 ./kit/BRD4100A/bsp_stk_leds.o
 .debug_ranges  0x0000000000001a40       0x60 ./kit/BRD4100A/i2cspm.o
 .debug_ranges  0x0000000000001aa0       0x80 ./kit/BRD4100A/si7013.o
 .debug_ranges  0x0000000000001b20       0x98 ./kit/BRD4100A/udelay.o
 .debug_ranges  0x0000000000001bb8      0xdb0 ./kit_flashpwr/BRD4100A/mx25flash_spi.o
 .debug_ranges  0x0000000000002968       0x28 ./kit_lcd/BRD4100A/display.o
 .debug_ranges  0x0000000000002990       0x50 ./kit_lcd/BRD4100A/displayls013b7dh03.o
 .debug_ranges  0x00000000000029e0       0x70 ./kit_lcd/BRD4100A/displaypalemlib.o
 .debug_ranges  0x0000000000002a50       0xf8 ./src/InitDevice.o

.debug_line     0x0000000000000000     0xb896
 .debug_line    0x0000000000000000      0x316 ./advertisement.o
 .debug_line    0x0000000000000316      0x9f4 ./app.o
 .debug_line    0x0000000000000d0a      0x362 ./app_hw.o
 .debug_line    0x000000000000106c      0x714 ./app_ui.o
 .debug_line    0x0000000000001780      0x2d2 ./beacon.o
 .debug_line    0x0000000000001a52      0x1d9 ./gatt_db.o
 .debug_line    0x0000000000001c2b      0x3c2 ./graphics.o
 .debug_line    0x0000000000001fed      0x48e ./htm.o
 .debug_line    0x000000000000247b      0x295 ./ia.o
 .debug_line    0x0000000000002710      0x62c ./main.o
 .debug_line    0x0000000000002d3c      0x70f ./bgapi/dmadrv.o
 .debug_line    0x000000000000344b      0x5ed ./bgapi/em_adc.o
 .debug_line    0x0000000000003a38      0x4f7 ./bgapi/em_ldma.o
 .debug_line    0x0000000000003f2f      0x532 ./bgapi/em_leuart.o
 .debug_line    0x0000000000004461      0x1fe ./device/EFR32_B_1_1_P/gcc/startup_efr32bg1p.o
 .debug_line    0x000000000000465f      0xd7e ./emlib/em_cmu.o
 .debug_line    0x00000000000053dd      0x4e8 ./emlib/em_gpio.o
 .debug_line    0x00000000000058c5      0x5ae ./emlib/em_i2c.o
 .debug_line    0x0000000000005e73      0x45e ./emlib/em_rtcc.o
 .debug_line    0x00000000000062d1      0x37f ./emlib/em_system.o
 .debug_line    0x0000000000006650      0x687 ./emlib/em_usart.o
 .debug_line    0x0000000000006cd7      0x70f ./glib/BRD4100A/dmd_display.o
 .debug_line    0x00000000000073e6      0x4f7 ./glib/BRD4100A/glib.o
 .debug_line    0x00000000000078dd      0x1cb ./glib/BRD4100A/glib_font_narrow_6x8.o
 .debug_line    0x0000000000007aa8      0x1cb ./glib/BRD4100A/glib_font_normal_8x8.o
 .debug_line    0x0000000000007c73      0x35d ./glib/BRD4100A/glib_rectangle.o
 .debug_line    0x0000000000007fd0      0x3dd ./glib/BRD4100A/glib_string.o
 .debug_line    0x00000000000083ad      0x49e ./kit/BRD4100A/bsp_stk_leds.o
 .debug_line    0x000000000000884b      0x44a ./kit/BRD4100A/i2cspm.o
 .debug_line    0x0000000000008c95      0x4a4 ./kit/BRD4100A/si7013.o
 .debug_line    0x0000000000009139      0x516 ./kit/BRD4100A/udelay.o
 .debug_line    0x000000000000964f      0xf57 ./kit_flashpwr/BRD4100A/mx25flash_spi.o
 .debug_line    0x000000000000a5a6      0x2ba ./kit_lcd/BRD4100A/display.o
 .debug_line    0x000000000000a860      0x443 ./kit_lcd/BRD4100A/displayls013b7dh03.o
 .debug_line    0x000000000000aca3      0x5f2 ./kit_lcd/BRD4100A/displaypalemlib.o
 .debug_line    0x000000000000b295      0x601 ./src/InitDevice.o

.debug_str      0x0000000000000000     0xfb03
 .debug_str     0x0000000000000000     0x499d ./advertisement.o
                                       0x4c5e (size before relaxing)
 .debug_str     0x000000000000499d     0x2b6a ./app.o
                                       0x7795 (size before relaxing)
 .debug_str     0x0000000000007507      0x1ba ./app_hw.o
                                        0x444 (size before relaxing)
 .debug_str     0x00000000000076c1      0x211 ./app_ui.o
                                       0x4f6e (size before relaxing)
 .debug_str     0x00000000000078d2       0xa6 ./beacon.o
                                       0x5f2a (size before relaxing)
 .debug_str     0x0000000000007978      0x6c1 ./gatt_db.o
                                        0x8df (size before relaxing)
 .debug_str     0x0000000000008039      0x26c ./graphics.o
                                        0x52b (size before relaxing)
 .debug_str     0x00000000000082a5      0x139 ./htm.o
                                       0x5fb2 (size before relaxing)
 .debug_str     0x00000000000083de       0x13 ./ia.o
                                       0x49d1 (size before relaxing)
 .debug_str     0x00000000000083f1      0x745 ./main.o
                                       0x54e7 (size before relaxing)
 .debug_str     0x0000000000008b36      0x8ab ./bgapi/dmadrv.o
                                       0x117c (size before relaxing)
 .debug_str     0x00000000000093e1     0x262d ./bgapi/em_adc.o
                                       0x2a8c (size before relaxing)
 .debug_str     0x000000000000ba0e      0x126 ./bgapi/em_ldma.o
                                        0xad2 (size before relaxing)
 .debug_str     0x000000000000bb34      0x152 ./bgapi/em_leuart.o
                                        0x738 (size before relaxing)
 .debug_str     0x000000000000bc86      0x105 ./device/EFR32_B_1_1_P/gcc/startup_efr32bg1p.o
                                        0x2ba (size before relaxing)
 .debug_str     0x000000000000bd8b      0xb66 ./emlib/em_cmu.o
                                       0x13e3 (size before relaxing)
 .debug_str     0x000000000000c8f1      0x303 ./emlib/em_gpio.o
                                        0x840 (size before relaxing)
 .debug_str     0x000000000000cbf4      0x32e ./emlib/em_i2c.o
                                        0x808 (size before relaxing)
 .debug_str     0x000000000000cf22      0x5e4 ./emlib/em_rtcc.o
                                        0x808 (size before relaxing)
 .debug_str     0x000000000000d506      0x139 ./emlib/em_system.o
                                        0x30d (size before relaxing)
 .debug_str     0x000000000000d63f      0x8f9 ./emlib/em_usart.o
                                        0xe69 (size before relaxing)
 .debug_str     0x000000000000df38      0x45d ./glib/BRD4100A/dmd_display.o
                                        0x6d7 (size before relaxing)
 .debug_str     0x000000000000e395      0x1df ./glib/BRD4100A/glib.o
                                        0x635 (size before relaxing)
 .debug_str     0x000000000000e574       0xa7 ./glib/BRD4100A/glib_font_narrow_6x8.o
                                        0x32a (size before relaxing)
 .debug_str     0x000000000000e61b       0xa7 ./glib/BRD4100A/glib_font_normal_8x8.o
                                        0x32a (size before relaxing)
 .debug_str     0x000000000000e6c2       0xed ./glib/BRD4100A/glib_rectangle.o
                                        0x52a (size before relaxing)
 .debug_str     0x000000000000e7af      0x101 ./glib/BRD4100A/glib_string.o
                                        0x503 (size before relaxing)
 .debug_str     0x000000000000e8b0       0xfd ./kit/BRD4100A/bsp_stk_leds.o
                                        0x7b3 (size before relaxing)
 .debug_str     0x000000000000e9ad      0x11b ./kit/BRD4100A/i2cspm.o
                                        0x99b (size before relaxing)
 .debug_str     0x000000000000eac8      0x167 ./kit/BRD4100A/si7013.o
                                        0x4dd (size before relaxing)
 .debug_str     0x000000000000ec2f      0x150 ./kit/BRD4100A/udelay.o
                                        0xe00 (size before relaxing)
 .debug_str     0x000000000000ed7f      0x3ae ./kit_flashpwr/BRD4100A/mx25flash_spi.o
                                        0xedb (size before relaxing)
 .debug_str     0x000000000000f12d      0x147 ./kit_lcd/BRD4100A/display.o
                                        0x4af (size before relaxing)
 .debug_str     0x000000000000f274      0x212 ./kit_lcd/BRD4100A/displayls013b7dh03.o
                                        0x680 (size before relaxing)
 .debug_str     0x000000000000f486       0xe0 ./kit_lcd/BRD4100A/displaypalemlib.o
                                        0xd15 (size before relaxing)
 .debug_str     0x000000000000f566      0x59d ./src/InitDevice.o
                                       0x175b (size before relaxing)

.debug_frame    0x0000000000000000     0x2e64
 .debug_frame   0x0000000000000000       0x54 ./advertisement.o
 .debug_frame   0x0000000000000054      0x1a0 ./app.o
 .debug_frame   0x00000000000001f4       0x8c ./app_hw.o
 .debug_frame   0x0000000000000280       0xac ./app_ui.o
 .debug_frame   0x000000000000032c       0x38 ./beacon.o
 .debug_frame   0x0000000000000364       0x74 ./graphics.o
 .debug_frame   0x00000000000003d8       0xa0 ./htm.o
 .debug_frame   0x0000000000000478       0x3c ./ia.o
 .debug_frame   0x00000000000004b4       0x28 ./main.o
 .debug_frame   0x00000000000004dc      0x22c ./bgapi/dmadrv.o
 .debug_frame   0x0000000000000708      0x164 ./bgapi/em_adc.o
 .debug_frame   0x000000000000086c       0xdc ./bgapi/em_ldma.o
 .debug_frame   0x0000000000000948      0x11c ./bgapi/em_leuart.o
 .debug_frame   0x0000000000000a64       0x38 ./device/EFR32_B_1_1_P/gcc/startup_efr32bg1p.o
 .debug_frame   0x0000000000000a9c      0x2fc ./emlib/em_cmu.o
 .debug_frame   0x0000000000000d98       0xa0 ./emlib/em_gpio.o
 .debug_frame   0x0000000000000e38       0xec ./emlib/em_i2c.o
 .debug_frame   0x0000000000000f24       0x8c ./emlib/em_rtcc.o
 .debug_frame   0x0000000000000fb0       0x30 ./emlib/em_system.o
 .debug_frame   0x0000000000000fe0      0x1dc ./emlib/em_usart.o
 .debug_frame   0x00000000000011bc      0x1dc ./glib/BRD4100A/dmd_display.o
 .debug_frame   0x0000000000001398      0x1ec ./glib/BRD4100A/glib.o
 .debug_frame   0x0000000000001584       0x90 ./glib/BRD4100A/glib_rectangle.o
 .debug_frame   0x0000000000001614       0xd0 ./glib/BRD4100A/glib_string.o
 .debug_frame   0x00000000000016e4       0x88 ./kit/BRD4100A/bsp_stk_leds.o
 .debug_frame   0x000000000000176c       0x54 ./kit/BRD4100A/i2cspm.o
 .debug_frame   0x00000000000017c0      0x140 ./kit/BRD4100A/si7013.o
 .debug_frame   0x0000000000001900       0x50 ./kit/BRD4100A/udelay.o
 .debug_frame   0x0000000000001950      0x5f0 ./kit_flashpwr/BRD4100A/mx25flash_spi.o
 .debug_frame   0x0000000000001f40       0x94 ./kit_lcd/BRD4100A/display.o
 .debug_frame   0x0000000000001fd4      0x114 ./kit_lcd/BRD4100A/displayls013b7dh03.o
 .debug_frame   0x00000000000020e8      0x138 ./kit_lcd/BRD4100A/displaypalemlib.o
 .debug_frame   0x0000000000002220      0x1ec ./src/InitDevice.o
 .debug_frame   0x000000000000240c       0x28 /Applications/Simplicity Studio.app/Contents/Eclipse/developer/toolchains/gnu_arm/4.9_2015q3/bin/../lib/gcc/arm-none-eabi/4.9.3/armv7e-m/softfp/libgcc.a(_aeabi_uldivmod.o)
 .debug_frame   0x0000000000002434       0x50 /Applications/Simplicity Studio.app/Contents/Eclipse/developer/toolchains/gnu_arm/4.9_2015q3/bin/../lib/gcc/arm-none-eabi/4.9.3/armv7e-m/softfp/libgcc.a(bpabi.o)
 .debug_frame   0x0000000000002484       0x34 /Applications/Simplicity Studio.app/Contents/Eclipse/developer/toolchains/gnu_arm/4.9_2015q3/bin/../lib/gcc/arm-none-eabi/4.9.3/armv7e-m/softfp/libgcc.a(_divdi3.o)
 .debug_frame   0x00000000000024b8       0x30 /Applications/Simplicity Studio.app/Contents/Eclipse/developer/toolchains/gnu_arm/4.9_2015q3/bin/../lib/gcc/arm-none-eabi/4.9.3/armv7e-m/softfp/libgcc.a(_udivdi3.o)
 .debug_frame   0x00000000000024e8       0x28 /Applications/Simplicity Studio.app/Contents/Eclipse/developer/toolchains/gnu_arm/4.9_2015q3/bin/../lib/gcc/arm-none-eabi/4.9.3/../../../../arm-none-eabi/lib/armv7e-m/softfp/libc.a(lib_a-exit.o)
 .debug_frame   0x0000000000002510       0x2c /Applications/Simplicity Studio.app/Contents/Eclipse/developer/toolchains/gnu_arm/4.9_2015q3/bin/../lib/gcc/arm-none-eabi/4.9.3/../../../../arm-none-eabi/lib/armv7e-m/softfp/libc.a(lib_a-init.o)
 .debug_frame   0x000000000000253c       0x34 /Applications/Simplicity Studio.app/Contents/Eclipse/developer/toolchains/gnu_arm/4.9_2015q3/bin/../lib/gcc/arm-none-eabi/4.9.3/../../../../arm-none-eabi/lib/armv7e-m/softfp/libc.a(lib_a-memset.o)
 .debug_frame   0x0000000000002570       0xd0 /Applications/Simplicity Studio.app/Contents/Eclipse/developer/toolchains/gnu_arm/4.9_2015q3/bin/../lib/gcc/arm-none-eabi/4.9.3/../../../../arm-none-eabi/lib/armv7e-m/softfp/libc.a(lib_a-snprintf.o)
 .debug_frame   0x0000000000002640       0x20 /Applications/Simplicity Studio.app/Contents/Eclipse/developer/toolchains/gnu_arm/4.9_2015q3/bin/../lib/gcc/arm-none-eabi/4.9.3/../../../../arm-none-eabi/lib/armv7e-m/softfp/libc.a(lib_a-strlen.o)
 .debug_frame   0x0000000000002660       0x40 /Applications/Simplicity Studio.app/Contents/Eclipse/developer/toolchains/gnu_arm/4.9_2015q3/bin/../lib/gcc/arm-none-eabi/4.9.3/../../../../arm-none-eabi/lib/armv7e-m/softfp/libc.a(lib_a-svfprintf.o)
 .debug_frame   0x00000000000026a0       0x50 /Applications/Simplicity Studio.app/Contents/Eclipse/developer/toolchains/gnu_arm/4.9_2015q3/bin/../lib/gcc/arm-none-eabi/4.9.3/../../../../arm-none-eabi/lib/armv7e-m/softfp/libc.a(lib_a-__call_atexit.o)
 .debug_frame   0x00000000000026f0       0x20 /Applications/Simplicity Studio.app/Contents/Eclipse/developer/toolchains/gnu_arm/4.9_2015q3/bin/../lib/gcc/arm-none-eabi/4.9.3/../../../../arm-none-eabi/lib/armv7e-m/softfp/libc.a(lib_a-atexit.o)
 .debug_frame   0x0000000000002710       0x88 /Applications/Simplicity Studio.app/Contents/Eclipse/developer/toolchains/gnu_arm/4.9_2015q3/bin/../lib/gcc/arm-none-eabi/4.9.3/../../../../arm-none-eabi/lib/armv7e-m/softfp/libc.a(lib_a-dtoa.o)
 .debug_frame   0x0000000000002798       0x34 /Applications/Simplicity Studio.app/Contents/Eclipse/developer/toolchains/gnu_arm/4.9_2015q3/bin/../lib/gcc/arm-none-eabi/4.9.3/../../../../arm-none-eabi/lib/armv7e-m/softfp/libc.a(lib_a-fini.o)
 .debug_frame   0x00000000000027cc       0x9c /Applications/Simplicity Studio.app/Contents/Eclipse/developer/toolchains/gnu_arm/4.9_2015q3/bin/../lib/gcc/arm-none-eabi/4.9.3/../../../../arm-none-eabi/lib/armv7e-m/softfp/libc.a(lib_a-locale.o)
 .debug_frame   0x0000000000002868       0x58 /Applications/Simplicity Studio.app/Contents/Eclipse/developer/toolchains/gnu_arm/4.9_2015q3/bin/../lib/gcc/arm-none-eabi/4.9.3/../../../../arm-none-eabi/lib/armv7e-m/softfp/libc.a(lib_a-mallocr.o)
 .debug_frame   0x00000000000028c0       0x3c /Applications/Simplicity Studio.app/Contents/Eclipse/developer/toolchains/gnu_arm/4.9_2015q3/bin/../lib/gcc/arm-none-eabi/4.9.3/../../../../arm-none-eabi/lib/armv7e-m/softfp/libc.a(lib_a-memchr.o)
 .debug_frame   0x00000000000028fc       0x30 /Applications/Simplicity Studio.app/Contents/Eclipse/developer/toolchains/gnu_arm/4.9_2015q3/bin/../lib/gcc/arm-none-eabi/4.9.3/../../../../arm-none-eabi/lib/armv7e-m/softfp/libc.a(lib_a-mlock.o)
 .debug_frame   0x000000000000292c      0x268 /Applications/Simplicity Studio.app/Contents/Eclipse/developer/toolchains/gnu_arm/4.9_2015q3/bin/../lib/gcc/arm-none-eabi/4.9.3/../../../../arm-none-eabi/lib/armv7e-m/softfp/libc.a(lib_a-mprec.o)
 .debug_frame   0x0000000000002b94       0x34 /Applications/Simplicity Studio.app/Contents/Eclipse/developer/toolchains/gnu_arm/4.9_2015q3/bin/../lib/gcc/arm-none-eabi/4.9.3/../../../../arm-none-eabi/lib/armv7e-m/softfp/libc.a(lib_a-s_fpclassify.o)
 .debug_frame   0x0000000000002bc8       0x2c /Applications/Simplicity Studio.app/Contents/Eclipse/developer/toolchains/gnu_arm/4.9_2015q3/bin/../lib/gcc/arm-none-eabi/4.9.3/../../../../arm-none-eabi/lib/armv7e-m/softfp/libc.a(lib_a-sbrkr.o)
 .debug_frame   0x0000000000002bf4       0x78 /Applications/Simplicity Studio.app/Contents/Eclipse/developer/toolchains/gnu_arm/4.9_2015q3/bin/../lib/gcc/arm-none-eabi/4.9.3/../../../../arm-none-eabi/lib/armv7e-m/softfp/libc.a(lib_a-svfiprintf.o)
 .debug_frame   0x0000000000002c6c       0x34 /Applications/Simplicity Studio.app/Contents/Eclipse/developer/toolchains/gnu_arm/4.9_2015q3/bin/../lib/gcc/arm-none-eabi/4.9.3/../../../../arm-none-eabi/lib/armv7e-m/softfp/libc.a(lib_a-__atexit.o)
 .debug_frame   0x0000000000002ca0       0x28 /Applications/Simplicity Studio.app/Contents/Eclipse/developer/toolchains/gnu_arm/4.9_2015q3/bin/../lib/gcc/arm-none-eabi/4.9.3/../../../../arm-none-eabi/lib/armv7e-m/softfp/libc.a(lib_a-callocr.o)
 .debug_frame   0x0000000000002cc8       0x74 /Applications/Simplicity Studio.app/Contents/Eclipse/developer/toolchains/gnu_arm/4.9_2015q3/bin/../lib/gcc/arm-none-eabi/4.9.3/../../../../arm-none-eabi/lib/armv7e-m/softfp/libc.a(lib_a-freer.o)
 .debug_frame   0x0000000000002d3c       0x30 /Applications/Simplicity Studio.app/Contents/Eclipse/developer/toolchains/gnu_arm/4.9_2015q3/bin/../lib/gcc/arm-none-eabi/4.9.3/../../../../arm-none-eabi/lib/armv7e-m/softfp/libc.a(lib_a-memmove.o)
 .debug_frame   0x0000000000002d6c       0x60 /Applications/Simplicity Studio.app/Contents/Eclipse/developer/toolchains/gnu_arm/4.9_2015q3/bin/../lib/gcc/arm-none-eabi/4.9.3/../../../../arm-none-eabi/lib/armv7e-m/softfp/libc.a(lib_a-reallocr.o)
 .debug_frame   0x0000000000002dcc       0x58 /Applications/Simplicity Studio.app/Contents/Eclipse/developer/toolchains/gnu_arm/4.9_2015q3/bin/../lib/gcc/arm-none-eabi/4.9.3/../../../../arm-none-eabi/lib/armv7e-m/softfp/libc.a(lib_a-reent.o)
 .debug_frame   0x0000000000002e24       0x20 /Applications/Simplicity Studio.app/Contents/Eclipse/developer/toolchains/gnu_arm/4.9_2015q3/bin/../lib/gcc/arm-none-eabi/4.9.3/../../../../arm-none-eabi/lib/armv7e-m/softfp/libnosys.a(sbrk.o)
 .debug_frame   0x0000000000002e44       0x20 /Applications/Simplicity Studio.app/Contents/Eclipse/developer/toolchains/gnu_arm/4.9_2015q3/bin/../lib/gcc/arm-none-eabi/4.9.3/../../../../arm-none-eabi/lib/armv7e-m/softfp/libnosys.a(_exit.o)
