Archive member included because of file (symbol)

C:/SiliconLabs/SimplicityStudio/v4/developer/sdks/gecko_sdk_suite/v1.0//protocol/bluetooth_2.3/lib/EFR32BG1P/GCC/bgapi.a(gecko_bgapi_hardware.c.obj)
                              ./main.o (gecko_bgapi_class_hardware_init)
C:/SiliconLabs/SimplicityStudio/v4/developer/sdks/gecko_sdk_suite/v1.0//protocol/bluetooth_2.3/lib/EFR32BG1P/GCC/bgapi.a(gecko_bgapi_test.c.obj)
                              ./main.o (gecko_bgapi_class_test_init)
C:/SiliconLabs/SimplicityStudio/v4/developer/sdks/gecko_sdk_suite/v1.0//protocol/bluetooth_2.3/lib/EFR32BG1P/GCC/bgapi.a(gecko_bgapi_util.c.obj)
                              ./main.o (gecko_bgapi_class_util_init)
C:/SiliconLabs/SimplicityStudio/v4/developer/sdks/gecko_sdk_suite/v1.0//protocol/bluetooth_2.3/lib/EFR32BG1P/GCC/bgapi.a(gecko_bgapi_dfu.c.obj)
                              ./main.o (gecko_bgapi_class_dfu_init)
C:/SiliconLabs/SimplicityStudio/v4/developer/sdks/gecko_sdk_suite/v1.0//protocol/bluetooth_2.3/lib/EFR32BG1P/GCC/bgapi.a(gecko_bgapi_gap.c.obj)
                              ./main.o (gecko_bgapi_class_le_gap_init)
C:/SiliconLabs/SimplicityStudio/v4/developer/sdks/gecko_sdk_suite/v1.0//protocol/bluetooth_2.3/lib/EFR32BG1P/GCC/bgapi.a(gecko_bgapi_gatt.c.obj)
                              ./main.o (gecko_bgapi_class_gatt_init)
C:/SiliconLabs/SimplicityStudio/v4/developer/sdks/gecko_sdk_suite/v1.0//protocol/bluetooth_2.3/lib/EFR32BG1P/GCC/bgapi.a(gecko_bgapi_gatt_server.c.obj)
                              ./main.o (gecko_bgapi_class_gatt_server_init)
C:/SiliconLabs/SimplicityStudio/v4/developer/sdks/gecko_sdk_suite/v1.0//protocol/bluetooth_2.3/lib/EFR32BG1P/GCC/bgapi.a(gecko_bgapi_flash.c.obj)
                              ./main.o (gecko_bgapi_class_flash_init)
C:/SiliconLabs/SimplicityStudio/v4/developer/sdks/gecko_sdk_suite/v1.0//protocol/bluetooth_2.3/lib/EFR32BG1P/GCC/bgapi.a(gecko_bgapi_sm.c.obj)
                              ./main.o (gecko_bgapi_class_sm_init)
C:/SiliconLabs/SimplicityStudio/v4/developer/sdks/gecko_sdk_suite/v1.0//protocol/bluetooth_2.3/lib/EFR32BG1P/GCC/bgapi.a(gecko_bgapi_system.c.obj)
                              ./main.o (gecko_bgapi_class_system_init)
C:/SiliconLabs/SimplicityStudio/v4/developer/sdks/gecko_sdk_suite/v1.0//protocol/bluetooth_2.3/lib/EFR32BG1P/GCC/bgapi.a(gecko_bgapi_endpoint.c.obj)
                              ./main.o (gecko_bgapi_class_endpoint_init)
C:/SiliconLabs/SimplicityStudio/v4/developer/sdks/gecko_sdk_suite/v1.0//protocol/bluetooth_2.3/lib/EFR32BG1P/GCC/bgapi.a(gecko_bgapi_le_connection.c.obj)
                              ./main.o (gecko_bgapi_class_le_connection_init)
C:/SiliconLabs/SimplicityStudio/v4/developer/sdks/gecko_sdk_suite/v1.0//protocol/bluetooth_2.3/lib/EFR32BG1P/GCC/bgapi.a(bgapi_hardware_lib.c.obj)
                              C:/SiliconLabs/SimplicityStudio/v4/developer/sdks/gecko_sdk_suite/v1.0//protocol/bluetooth_2.3/lib/EFR32BG1P/GCC/bgapi.a(gecko_bgapi_hardware.c.obj) (gecko_cmd_hardware_read_i2c)
C:/SiliconLabs/SimplicityStudio/v4/developer/sdks/gecko_sdk_suite/v1.0//protocol/bluetooth_2.3/lib/EFR32BG1P/GCC/bgapi.a(bgapi_hardware.c.obj)
                              C:/SiliconLabs/SimplicityStudio/v4/developer/sdks/gecko_sdk_suite/v1.0//protocol/bluetooth_2.3/lib/EFR32BG1P/GCC/bgapi.a(gecko_bgapi_hardware.c.obj) (lib_hardware_handler_init)
C:/SiliconLabs/SimplicityStudio/v4/developer/sdks/gecko_sdk_suite/v1.0//protocol/bluetooth_2.3/lib/EFR32BG1P/GCC/bgapi.a(bgapi_test_lib.c.obj)
                              C:/SiliconLabs/SimplicityStudio/v4/developer/sdks/gecko_sdk_suite/v1.0//protocol/bluetooth_2.3/lib/EFR32BG1P/GCC/bgapi.a(gecko_bgapi_test.c.obj) (lib_test_handler_init)
C:/SiliconLabs/SimplicityStudio/v4/developer/sdks/gecko_sdk_suite/v1.0//protocol/bluetooth_2.3/lib/EFR32BG1P/GCC/bgapi.a(bgapi_util.c.obj)
                              C:/SiliconLabs/SimplicityStudio/v4/developer/sdks/gecko_sdk_suite/v1.0//protocol/bluetooth_2.3/lib/EFR32BG1P/GCC/bgapi.a(gecko_bgapi_util.c.obj) (lib_util_handler_init)
C:/SiliconLabs/SimplicityStudio/v4/developer/sdks/gecko_sdk_suite/v1.0//protocol/bluetooth_2.3/lib/EFR32BG1P/GCC/bgapi.a(bgapi_dfu.c.obj)
                              C:/SiliconLabs/SimplicityStudio/v4/developer/sdks/gecko_sdk_suite/v1.0//protocol/bluetooth_2.3/lib/EFR32BG1P/GCC/bgapi.a(gecko_bgapi_dfu.c.obj) (lib_dfu_handler_init)
C:/SiliconLabs/SimplicityStudio/v4/developer/sdks/gecko_sdk_suite/v1.0//protocol/bluetooth_2.3/lib/EFR32BG1P/GCC/bgapi.a(bgapi_gap.c.obj)
                              C:/SiliconLabs/SimplicityStudio/v4/developer/sdks/gecko_sdk_suite/v1.0//protocol/bluetooth_2.3/lib/EFR32BG1P/GCC/bgapi.a(gecko_bgapi_gap.c.obj) (lib_le_gap_handler_init)
C:/SiliconLabs/SimplicityStudio/v4/developer/sdks/gecko_sdk_suite/v1.0//protocol/bluetooth_2.3/lib/EFR32BG1P/GCC/bgapi.a(bgapi_gatt_lib.c.obj)
                              C:/SiliconLabs/SimplicityStudio/v4/developer/sdks/gecko_sdk_suite/v1.0//protocol/bluetooth_2.3/lib/EFR32BG1P/GCC/bgapi.a(gecko_bgapi_gatt.c.obj) (lib_gatt_handler_init)
C:/SiliconLabs/SimplicityStudio/v4/developer/sdks/gecko_sdk_suite/v1.0//protocol/bluetooth_2.3/lib/EFR32BG1P/GCC/bgapi.a(bgapi_ps.c.obj)
                              C:/SiliconLabs/SimplicityStudio/v4/developer/sdks/gecko_sdk_suite/v1.0//protocol/bluetooth_2.3/lib/EFR32BG1P/GCC/bgapi.a(gecko_bgapi_flash.c.obj) (lib_flash_handler_init)
C:/SiliconLabs/SimplicityStudio/v4/developer/sdks/gecko_sdk_suite/v1.0//protocol/bluetooth_2.3/lib/EFR32BG1P/GCC/bgapi.a(bgapi_sm.c.obj)
                              C:/SiliconLabs/SimplicityStudio/v4/developer/sdks/gecko_sdk_suite/v1.0//protocol/bluetooth_2.3/lib/EFR32BG1P/GCC/bgapi.a(gecko_bgapi_sm.c.obj) (lib_sm_handler_init)
C:/SiliconLabs/SimplicityStudio/v4/developer/sdks/gecko_sdk_suite/v1.0//protocol/bluetooth_2.3/lib/EFR32BG1P/GCC/bgapi.a(bgapi_system.c.obj)
                              C:/SiliconLabs/SimplicityStudio/v4/developer/sdks/gecko_sdk_suite/v1.0//protocol/bluetooth_2.3/lib/EFR32BG1P/GCC/bgapi.a(gecko_bgapi_system.c.obj) (lib_system_handler_init)
C:/SiliconLabs/SimplicityStudio/v4/developer/sdks/gecko_sdk_suite/v1.0//protocol/bluetooth_2.3/lib/EFR32BG1P/GCC/bgapi.a(bgapi_endpoint.c.obj)
                              C:/SiliconLabs/SimplicityStudio/v4/developer/sdks/gecko_sdk_suite/v1.0//protocol/bluetooth_2.3/lib/EFR32BG1P/GCC/bgapi.a(gecko_bgapi_endpoint.c.obj) (lib_endpoint_handler_init)
C:/SiliconLabs/SimplicityStudio/v4/developer/sdks/gecko_sdk_suite/v1.0//protocol/bluetooth_2.3/lib/EFR32BG1P/GCC/bgapi.a(bgapi_le_connection.c.obj)
                              C:/SiliconLabs/SimplicityStudio/v4/developer/sdks/gecko_sdk_suite/v1.0//protocol/bluetooth_2.3/lib/EFR32BG1P/GCC/bgapi.a(gecko_bgapi_le_connection.c.obj) (lib_le_connection_handler_init)
C:/SiliconLabs/SimplicityStudio/v4/developer/sdks/gecko_sdk_suite/v1.0//protocol/bluetooth_2.3/lib/EFR32BG1P/GCC/bgapi.a(uart_endpoint.c.obj)
                              C:/SiliconLabs/SimplicityStudio/v4/developer/sdks/gecko_sdk_suite/v1.0//protocol/bluetooth_2.3/lib/EFR32BG1P/GCC/bgapi.a(bgapi_hardware_lib.c.obj) (init_uart_endpoints)
C:/SiliconLabs/SimplicityStudio/v4/developer/sdks/gecko_sdk_suite/v1.0//protocol/bluetooth_2.3/lib/EFR32BG1P/GCC/bgapi.a(bgapi_endpoint.c.obj)
                              C:/SiliconLabs/SimplicityStudio/v4/developer/sdks/gecko_sdk_suite/v1.0//protocol/bluetooth_2.3/lib/EFR32BG1P/GCC/bgapi.a(bgapi_hardware_lib.c.obj) (init_bgapi_endpoints)
C:/SiliconLabs/SimplicityStudio/v4/developer/sdks/gecko_sdk_suite/v1.0//protocol/bluetooth_2.3/lib/EFR32BG1P/GCC/bgapi.a(adc.c.obj)
                              C:/SiliconLabs/SimplicityStudio/v4/developer/sdks/gecko_sdk_suite/v1.0//protocol/bluetooth_2.3/lib/EFR32BG1P/GCC/bgapi.a(bgapi_hardware_lib.c.obj) (adc_read_channel)
C:/SiliconLabs/SimplicityStudio/v4/developer/sdks/gecko_sdk_suite/v1.0//protocol/bluetooth_2.3/lib/EFR32BG1P/GCC/bgapi.a(gpio.c.obj)
                              C:/SiliconLabs/SimplicityStudio/v4/developer/sdks/gecko_sdk_suite/v1.0//protocol/bluetooth_2.3/lib/EFR32BG1P/GCC/bgapi.a(bgapi_hardware_lib.c.obj) (gpios_init)
C:/SiliconLabs/SimplicityStudio/v4/developer/sdks/gecko_sdk_suite/v1.0//protocol/bluetooth_2.3/lib/EFR32BG1P/GCC/bgapi.a(i2c.c.obj)
                              C:/SiliconLabs/SimplicityStudio/v4/developer/sdks/gecko_sdk_suite/v1.0//protocol/bluetooth_2.3/lib/EFR32BG1P/GCC/bgapi.a(bgapi_hardware_lib.c.obj) (i2c_init)
C:/SiliconLabs/SimplicityStudio/v4/developer/sdks/gecko_sdk_suite/v1.0//protocol/bluetooth_2.3/lib/EFR32BG1P/GCC/bgapi.a(sleep_signal.c.obj)
                              C:/SiliconLabs/SimplicityStudio/v4/developer/sdks/gecko_sdk_suite/v1.0//protocol/bluetooth_2.3/lib/EFR32BG1P/GCC/bgapi.a(bgapi_hardware_lib.c.obj) (sleep_signal_init)
C:/SiliconLabs/SimplicityStudio/v4/developer/sdks/gecko_sdk_suite/v1.0//protocol/bluetooth_2.3/lib/EFR32BG1P/GCC/bgapi.a(uart.c.obj)
                              C:/SiliconLabs/SimplicityStudio/v4/developer/sdks/gecko_sdk_suite/v1.0//protocol/bluetooth_2.3/lib/EFR32BG1P/GCC/bgapi.a(uart_endpoint.c.obj) (uart_update)
c:/siliconlabs/simplicitystudio/v4/developer/toolchains/gnu_arm/4.9_2015q3/bin/../lib/gcc/arm-none-eabi/4.9.3/armv7e-m/softfp\libgcc.a(_arm_addsubdf3.o)
                              ./htm.o (__aeabi_dadd)
c:/siliconlabs/simplicitystudio/v4/developer/toolchains/gnu_arm/4.9_2015q3/bin/../lib/gcc/arm-none-eabi/4.9.3/armv7e-m/softfp\libgcc.a(_arm_muldivdf3.o)
                              ./htm.o (__aeabi_dmul)
c:/siliconlabs/simplicitystudio/v4/developer/toolchains/gnu_arm/4.9_2015q3/bin/../lib/gcc/arm-none-eabi/4.9.3/armv7e-m/softfp\libgcc.a(_arm_truncdfsf2.o)
                              ./htm.o (__aeabi_d2f)
c:/siliconlabs/simplicitystudio/v4/developer/toolchains/gnu_arm/4.9_2015q3/bin/../lib/gcc/arm-none-eabi/4.9.3/armv7e-m/softfp\libgcc.a(_aeabi_uldivmod.o)
                              ./emlib/em_usart.o (__aeabi_uldivmod)
c:/siliconlabs/simplicitystudio/v4/developer/toolchains/gnu_arm/4.9_2015q3/bin/../lib/gcc/arm-none-eabi/4.9.3/armv7e-m/softfp\libgcc.a(bpabi.o)
                              c:/siliconlabs/simplicitystudio/v4/developer/toolchains/gnu_arm/4.9_2015q3/bin/../lib/gcc/arm-none-eabi/4.9.3/armv7e-m/softfp\libgcc.a(_aeabi_uldivmod.o) (__gnu_uldivmod_helper)
c:/siliconlabs/simplicitystudio/v4/developer/toolchains/gnu_arm/4.9_2015q3/bin/../lib/gcc/arm-none-eabi/4.9.3/armv7e-m/softfp\libgcc.a(_dvmd_tls.o)
                              c:/siliconlabs/simplicitystudio/v4/developer/toolchains/gnu_arm/4.9_2015q3/bin/../lib/gcc/arm-none-eabi/4.9.3/armv7e-m/softfp\libgcc.a(_aeabi_uldivmod.o) (__aeabi_ldiv0)
c:/siliconlabs/simplicitystudio/v4/developer/toolchains/gnu_arm/4.9_2015q3/bin/../lib/gcc/arm-none-eabi/4.9.3/armv7e-m/softfp\libgcc.a(_divdi3.o)
                              c:/siliconlabs/simplicitystudio/v4/developer/toolchains/gnu_arm/4.9_2015q3/bin/../lib/gcc/arm-none-eabi/4.9.3/armv7e-m/softfp\libgcc.a(bpabi.o) (__divdi3)
c:/siliconlabs/simplicitystudio/v4/developer/toolchains/gnu_arm/4.9_2015q3/bin/../lib/gcc/arm-none-eabi/4.9.3/armv7e-m/softfp\libgcc.a(_udivdi3.o)
                              c:/siliconlabs/simplicitystudio/v4/developer/toolchains/gnu_arm/4.9_2015q3/bin/../lib/gcc/arm-none-eabi/4.9.3/armv7e-m/softfp\libgcc.a(bpabi.o) (__udivdi3)
c:/siliconlabs/simplicitystudio/v4/developer/toolchains/gnu_arm/4.9_2015q3/bin/../lib/gcc/arm-none-eabi/4.9.3/../../../../arm-none-eabi/lib/armv7e-m/softfp\libc.a(lib_a-exit.o)
                              c:/siliconlabs/simplicitystudio/v4/developer/toolchains/gnu_arm/4.9_2015q3/bin/../lib/gcc/arm-none-eabi/4.9.3/../../../../arm-none-eabi/lib/armv7e-m/softfp/crt0.o (exit)
c:/siliconlabs/simplicitystudio/v4/developer/toolchains/gnu_arm/4.9_2015q3/bin/../lib/gcc/arm-none-eabi/4.9.3/../../../../arm-none-eabi/lib/armv7e-m/softfp\libc.a(lib_a-impure.o)
                              c:/siliconlabs/simplicitystudio/v4/developer/toolchains/gnu_arm/4.9_2015q3/bin/../lib/gcc/arm-none-eabi/4.9.3/../../../../arm-none-eabi/lib/armv7e-m/softfp\libc.a(lib_a-exit.o) (_global_impure_ptr)
c:/siliconlabs/simplicitystudio/v4/developer/toolchains/gnu_arm/4.9_2015q3/bin/../lib/gcc/arm-none-eabi/4.9.3/../../../../arm-none-eabi/lib/armv7e-m/softfp\libc.a(lib_a-init.o)
                              c:/siliconlabs/simplicitystudio/v4/developer/toolchains/gnu_arm/4.9_2015q3/bin/../lib/gcc/arm-none-eabi/4.9.3/../../../../arm-none-eabi/lib/armv7e-m/softfp/crt0.o (__libc_init_array)
c:/siliconlabs/simplicitystudio/v4/developer/toolchains/gnu_arm/4.9_2015q3/bin/../lib/gcc/arm-none-eabi/4.9.3/../../../../arm-none-eabi/lib/armv7e-m/softfp\libc.a(lib_a-memcmp.o)
                              ./app.o (memcmp)
c:/siliconlabs/simplicitystudio/v4/developer/toolchains/gnu_arm/4.9_2015q3/bin/../lib/gcc/arm-none-eabi/4.9.3/../../../../arm-none-eabi/lib/armv7e-m/softfp\libc.a(lib_a-memcpy.o)
                              ./app.o (memcpy)
c:/siliconlabs/simplicitystudio/v4/developer/toolchains/gnu_arm/4.9_2015q3/bin/../lib/gcc/arm-none-eabi/4.9.3/../../../../arm-none-eabi/lib/armv7e-m/softfp\libc.a(lib_a-memset.o)
                              c:/siliconlabs/simplicitystudio/v4/developer/toolchains/gnu_arm/4.9_2015q3/bin/../lib/gcc/arm-none-eabi/4.9.3/../../../../arm-none-eabi/lib/armv7e-m/softfp/crt0.o (memset)
c:/siliconlabs/simplicitystudio/v4/developer/toolchains/gnu_arm/4.9_2015q3/bin/../lib/gcc/arm-none-eabi/4.9.3/../../../../arm-none-eabi/lib/armv7e-m/softfp\libc.a(lib_a-snprintf.o)
                              ./app.o (snprintf)
c:/siliconlabs/simplicitystudio/v4/developer/toolchains/gnu_arm/4.9_2015q3/bin/../lib/gcc/arm-none-eabi/4.9.3/../../../../arm-none-eabi/lib/armv7e-m/softfp\libc.a(lib_a-strlen.o)
                              ./app.o (strlen)
c:/siliconlabs/simplicitystudio/v4/developer/toolchains/gnu_arm/4.9_2015q3/bin/../lib/gcc/arm-none-eabi/4.9.3/../../../../arm-none-eabi/lib/armv7e-m/softfp\libc.a(lib_a-svfprintf.o)
                              c:/siliconlabs/simplicitystudio/v4/developer/toolchains/gnu_arm/4.9_2015q3/bin/../lib/gcc/arm-none-eabi/4.9.3/../../../../arm-none-eabi/lib/armv7e-m/softfp\libc.a(lib_a-snprintf.o) (_svfprintf_r)
c:/siliconlabs/simplicitystudio/v4/developer/toolchains/gnu_arm/4.9_2015q3/bin/../lib/gcc/arm-none-eabi/4.9.3/../../../../arm-none-eabi/lib/armv7e-m/softfp\libc.a(lib_a-__call_atexit.o)
                              c:/siliconlabs/simplicitystudio/v4/developer/toolchains/gnu_arm/4.9_2015q3/bin/../lib/gcc/arm-none-eabi/4.9.3/../../../../arm-none-eabi/lib/armv7e-m/softfp\libc.a(lib_a-exit.o) (__call_exitprocs)
c:/siliconlabs/simplicitystudio/v4/developer/toolchains/gnu_arm/4.9_2015q3/bin/../lib/gcc/arm-none-eabi/4.9.3/../../../../arm-none-eabi/lib/armv7e-m/softfp\libc.a(lib_a-atexit.o)
                              c:/siliconlabs/simplicitystudio/v4/developer/toolchains/gnu_arm/4.9_2015q3/bin/../lib/gcc/arm-none-eabi/4.9.3/../../../../arm-none-eabi/lib/armv7e-m/softfp\libc.a(lib_a-__call_atexit.o) (atexit)
c:/siliconlabs/simplicitystudio/v4/developer/toolchains/gnu_arm/4.9_2015q3/bin/../lib/gcc/arm-none-eabi/4.9.3/../../../../arm-none-eabi/lib/armv7e-m/softfp\libc.a(lib_a-dtoa.o)
                              c:/siliconlabs/simplicitystudio/v4/developer/toolchains/gnu_arm/4.9_2015q3/bin/../lib/gcc/arm-none-eabi/4.9.3/../../../../arm-none-eabi/lib/armv7e-m/softfp\libc.a(lib_a-svfprintf.o) (_dtoa_r)
c:/siliconlabs/simplicitystudio/v4/developer/toolchains/gnu_arm/4.9_2015q3/bin/../lib/gcc/arm-none-eabi/4.9.3/../../../../arm-none-eabi/lib/armv7e-m/softfp\libc.a(lib_a-fini.o)
                              c:/siliconlabs/simplicitystudio/v4/developer/toolchains/gnu_arm/4.9_2015q3/bin/../lib/gcc/arm-none-eabi/4.9.3/../../../../arm-none-eabi/lib/armv7e-m/softfp\libc.a(lib_a-__call_atexit.o) (__libc_fini_array)
c:/siliconlabs/simplicitystudio/v4/developer/toolchains/gnu_arm/4.9_2015q3/bin/../lib/gcc/arm-none-eabi/4.9.3/../../../../arm-none-eabi/lib/armv7e-m/softfp\libc.a(lib_a-locale.o)
                              c:/siliconlabs/simplicitystudio/v4/developer/toolchains/gnu_arm/4.9_2015q3/bin/../lib/gcc/arm-none-eabi/4.9.3/../../../../arm-none-eabi/lib/armv7e-m/softfp\libc.a(lib_a-svfprintf.o) (_localeconv_r)
c:/siliconlabs/simplicitystudio/v4/developer/toolchains/gnu_arm/4.9_2015q3/bin/../lib/gcc/arm-none-eabi/4.9.3/../../../../arm-none-eabi/lib/armv7e-m/softfp\libc.a(lib_a-mallocr.o)
                              c:/siliconlabs/simplicitystudio/v4/developer/toolchains/gnu_arm/4.9_2015q3/bin/../lib/gcc/arm-none-eabi/4.9.3/../../../../arm-none-eabi/lib/armv7e-m/softfp\libc.a(lib_a-svfprintf.o) (_malloc_r)
c:/siliconlabs/simplicitystudio/v4/developer/toolchains/gnu_arm/4.9_2015q3/bin/../lib/gcc/arm-none-eabi/4.9.3/../../../../arm-none-eabi/lib/armv7e-m/softfp\libc.a(lib_a-memchr.o)
                              c:/siliconlabs/simplicitystudio/v4/developer/toolchains/gnu_arm/4.9_2015q3/bin/../lib/gcc/arm-none-eabi/4.9.3/../../../../arm-none-eabi/lib/armv7e-m/softfp\libc.a(lib_a-svfprintf.o) (memchr)
c:/siliconlabs/simplicitystudio/v4/developer/toolchains/gnu_arm/4.9_2015q3/bin/../lib/gcc/arm-none-eabi/4.9.3/../../../../arm-none-eabi/lib/armv7e-m/softfp\libc.a(lib_a-mlock.o)
                              c:/siliconlabs/simplicitystudio/v4/developer/toolchains/gnu_arm/4.9_2015q3/bin/../lib/gcc/arm-none-eabi/4.9.3/../../../../arm-none-eabi/lib/armv7e-m/softfp\libc.a(lib_a-mallocr.o) (__malloc_lock)
c:/siliconlabs/simplicitystudio/v4/developer/toolchains/gnu_arm/4.9_2015q3/bin/../lib/gcc/arm-none-eabi/4.9.3/../../../../arm-none-eabi/lib/armv7e-m/softfp\libc.a(lib_a-mprec.o)
                              c:/siliconlabs/simplicitystudio/v4/developer/toolchains/gnu_arm/4.9_2015q3/bin/../lib/gcc/arm-none-eabi/4.9.3/../../../../arm-none-eabi/lib/armv7e-m/softfp\libc.a(lib_a-dtoa.o) (_Balloc)
c:/siliconlabs/simplicitystudio/v4/developer/toolchains/gnu_arm/4.9_2015q3/bin/../lib/gcc/arm-none-eabi/4.9.3/../../../../arm-none-eabi/lib/armv7e-m/softfp\libc.a(lib_a-s_fpclassify.o)
                              c:/siliconlabs/simplicitystudio/v4/developer/toolchains/gnu_arm/4.9_2015q3/bin/../lib/gcc/arm-none-eabi/4.9.3/../../../../arm-none-eabi/lib/armv7e-m/softfp\libc.a(lib_a-svfprintf.o) (__fpclassifyd)
c:/siliconlabs/simplicitystudio/v4/developer/toolchains/gnu_arm/4.9_2015q3/bin/../lib/gcc/arm-none-eabi/4.9.3/../../../../arm-none-eabi/lib/armv7e-m/softfp\libc.a(lib_a-sbrkr.o)
                              c:/siliconlabs/simplicitystudio/v4/developer/toolchains/gnu_arm/4.9_2015q3/bin/../lib/gcc/arm-none-eabi/4.9.3/../../../../arm-none-eabi/lib/armv7e-m/softfp\libc.a(lib_a-mallocr.o) (_sbrk_r)
c:/siliconlabs/simplicitystudio/v4/developer/toolchains/gnu_arm/4.9_2015q3/bin/../lib/gcc/arm-none-eabi/4.9.3/../../../../arm-none-eabi/lib/armv7e-m/softfp\libc.a(lib_a-strcmp.o)
                              c:/siliconlabs/simplicitystudio/v4/developer/toolchains/gnu_arm/4.9_2015q3/bin/../lib/gcc/arm-none-eabi/4.9.3/../../../../arm-none-eabi/lib/armv7e-m/softfp\libc.a(lib_a-locale.o) (strcmp)
c:/siliconlabs/simplicitystudio/v4/developer/toolchains/gnu_arm/4.9_2015q3/bin/../lib/gcc/arm-none-eabi/4.9.3/../../../../arm-none-eabi/lib/armv7e-m/softfp\libc.a(lib_a-svfiprintf.o)
                              c:/siliconlabs/simplicitystudio/v4/developer/toolchains/gnu_arm/4.9_2015q3/bin/../lib/gcc/arm-none-eabi/4.9.3/../../../../arm-none-eabi/lib/armv7e-m/softfp\libc.a(lib_a-svfprintf.o) (__ssprint_r)
c:/siliconlabs/simplicitystudio/v4/developer/toolchains/gnu_arm/4.9_2015q3/bin/../lib/gcc/arm-none-eabi/4.9.3/../../../../arm-none-eabi/lib/armv7e-m/softfp\libc.a(lib_a-__atexit.o)
                              c:/siliconlabs/simplicitystudio/v4/developer/toolchains/gnu_arm/4.9_2015q3/bin/../lib/gcc/arm-none-eabi/4.9.3/../../../../arm-none-eabi/lib/armv7e-m/softfp\libc.a(lib_a-atexit.o) (__register_exitproc)
c:/siliconlabs/simplicitystudio/v4/developer/toolchains/gnu_arm/4.9_2015q3/bin/../lib/gcc/arm-none-eabi/4.9.3/../../../../arm-none-eabi/lib/armv7e-m/softfp\libc.a(lib_a-callocr.o)
                              c:/siliconlabs/simplicitystudio/v4/developer/toolchains/gnu_arm/4.9_2015q3/bin/../lib/gcc/arm-none-eabi/4.9.3/../../../../arm-none-eabi/lib/armv7e-m/softfp\libc.a(lib_a-mprec.o) (_calloc_r)
c:/siliconlabs/simplicitystudio/v4/developer/toolchains/gnu_arm/4.9_2015q3/bin/../lib/gcc/arm-none-eabi/4.9.3/../../../../arm-none-eabi/lib/armv7e-m/softfp\libc.a(lib_a-freer.o)
                              c:/siliconlabs/simplicitystudio/v4/developer/toolchains/gnu_arm/4.9_2015q3/bin/../lib/gcc/arm-none-eabi/4.9.3/../../../../arm-none-eabi/lib/armv7e-m/softfp\libc.a(lib_a-mallocr.o) (_free_r)
c:/siliconlabs/simplicitystudio/v4/developer/toolchains/gnu_arm/4.9_2015q3/bin/../lib/gcc/arm-none-eabi/4.9.3/../../../../arm-none-eabi/lib/armv7e-m/softfp\libc.a(lib_a-memmove.o)
                              c:/siliconlabs/simplicitystudio/v4/developer/toolchains/gnu_arm/4.9_2015q3/bin/../lib/gcc/arm-none-eabi/4.9.3/../../../../arm-none-eabi/lib/armv7e-m/softfp\libc.a(lib_a-svfiprintf.o) (memmove)
c:/siliconlabs/simplicitystudio/v4/developer/toolchains/gnu_arm/4.9_2015q3/bin/../lib/gcc/arm-none-eabi/4.9.3/../../../../arm-none-eabi/lib/armv7e-m/softfp\libc.a(lib_a-reallocr.o)
                              c:/siliconlabs/simplicitystudio/v4/developer/toolchains/gnu_arm/4.9_2015q3/bin/../lib/gcc/arm-none-eabi/4.9.3/../../../../arm-none-eabi/lib/armv7e-m/softfp\libc.a(lib_a-svfiprintf.o) (_realloc_r)
c:/siliconlabs/simplicitystudio/v4/developer/toolchains/gnu_arm/4.9_2015q3/bin/../lib/gcc/arm-none-eabi/4.9.3/../../../../arm-none-eabi/lib/armv7e-m/softfp\libc.a(lib_a-reent.o)
                              c:/siliconlabs/simplicitystudio/v4/developer/toolchains/gnu_arm/4.9_2015q3/bin/../lib/gcc/arm-none-eabi/4.9.3/../../../../arm-none-eabi/lib/armv7e-m/softfp\libc.a(lib_a-sbrkr.o) (errno)
c:/siliconlabs/simplicitystudio/v4/developer/toolchains/gnu_arm/4.9_2015q3/bin/../lib/gcc/arm-none-eabi/4.9.3/../../../../arm-none-eabi/lib/armv7e-m/softfp\libnosys.a(sbrk.o)
                              c:/siliconlabs/simplicitystudio/v4/developer/toolchains/gnu_arm/4.9_2015q3/bin/../lib/gcc/arm-none-eabi/4.9.3/../../../../arm-none-eabi/lib/armv7e-m/softfp\libc.a(lib_a-sbrkr.o) (_sbrk)
c:/siliconlabs/simplicitystudio/v4/developer/toolchains/gnu_arm/4.9_2015q3/bin/../lib/gcc/arm-none-eabi/4.9.3/../../../../arm-none-eabi/lib/armv7e-m/softfp\libnosys.a(_exit.o)
                              c:/siliconlabs/simplicitystudio/v4/developer/toolchains/gnu_arm/4.9_2015q3/bin/../lib/gcc/arm-none-eabi/4.9.3/../../../../arm-none-eabi/lib/armv7e-m/softfp\libc.a(lib_a-exit.o) (_exit)
c:/siliconlabs/simplicitystudio/v4/developer/toolchains/gnu_arm/4.9_2015q3/bin/../lib/gcc/arm-none-eabi/4.9.3/armv7e-m/softfp\libgcc.a(_arm_cmpdf2.o)
                              c:/siliconlabs/simplicitystudio/v4/developer/toolchains/gnu_arm/4.9_2015q3/bin/../lib/gcc/arm-none-eabi/4.9.3/../../../../arm-none-eabi/lib/armv7e-m/softfp\libc.a(lib_a-svfprintf.o) (__aeabi_dcmpeq)
c:/siliconlabs/simplicitystudio/v4/developer/toolchains/gnu_arm/4.9_2015q3/bin/../lib/gcc/arm-none-eabi/4.9.3/armv7e-m/softfp\libgcc.a(_arm_fixdfsi.o)
                              c:/siliconlabs/simplicitystudio/v4/developer/toolchains/gnu_arm/4.9_2015q3/bin/../lib/gcc/arm-none-eabi/4.9.3/../../../../arm-none-eabi/lib/armv7e-m/softfp\libc.a(lib_a-dtoa.o) (__aeabi_d2iz)

Allocating common symbols
Common symbol       size              file

temp_service_uuid   0x1               ./app.o
errno               0x4               c:/siliconlabs/simplicitystudio/v4/developer/toolchains/gnu_arm/4.9_2015q3/bin/../lib/gcc/arm-none-eabi/4.9.3/../../../../arm-none-eabi/lib/armv7e-m/softfp\libc.a(lib_a-reent.o)
dirtyRows           0x10              ./glib/BRD4100A/dmd_display.o
bmpHeader           0x36              ./glib/BRD4100A/bmp.o
slave_service_uuid  0x1               ./app.o
gpio_events         0x1               C:/SiliconLabs/SimplicityStudio/v4/developer/sdks/gecko_sdk_suite/v1.0//protocol/bluetooth_2.3/lib/EFR32BG1P/GCC/bgapi.a(gpio.c.obj)
bmpPalette          0x8               ./glib/BRD4100A/bmp.o
temp_service_uuid_string
                    0x5               ./app.o
security_mode       0x1               ./app.o
uarts               0xc               C:/SiliconLabs/SimplicityStudio/v4/developer/sdks/gecko_sdk_suite/v1.0//protocol/bluetooth_2.3/lib/EFR32BG1P/GCC/bgapi.a(uart_endpoint.c.obj)
slave_bluetooth_addr
                    0x6               ./app.o
char_rcvd_data      0x1               ./app.o
txsize              0x2               ./app.o
interval            0x2               ./app.o
timeout             0x2               ./app.o
temp_char_uuid      0x1               ./app.o
result              0x2               ./app.o
latency             0x2               ./app.o
fpReadData          0x4               ./glib/BRD4100A/bmp.o
rleInfo             0xc               ./glib/BRD4100A/bmp.o
htmHumidityMeas     0x2               ./app.o
connection          0x1               ./app.o
slave_characteristic_uuid
                    0x1               ./app.o
bluetooth_stack_heap
                    0x18d0            ./main.o

Discarded input sections

 .text          0x00000000        0x0 c:/siliconlabs/simplicitystudio/v4/developer/toolchains/gnu_arm/4.9_2015q3/bin/../lib/gcc/arm-none-eabi/4.9.3/armv7e-m/softfp/crti.o
 .data          0x00000000        0x0 c:/siliconlabs/simplicitystudio/v4/developer/toolchains/gnu_arm/4.9_2015q3/bin/../lib/gcc/arm-none-eabi/4.9.3/armv7e-m/softfp/crti.o
 .bss           0x00000000        0x0 c:/siliconlabs/simplicitystudio/v4/developer/toolchains/gnu_arm/4.9_2015q3/bin/../lib/gcc/arm-none-eabi/4.9.3/armv7e-m/softfp/crti.o
 .data          0x00000000        0x4 c:/siliconlabs/simplicitystudio/v4/developer/toolchains/gnu_arm/4.9_2015q3/bin/../lib/gcc/arm-none-eabi/4.9.3/armv7e-m/softfp/crtbegin.o
 .data          0x00000000        0x0 c:/siliconlabs/simplicitystudio/v4/developer/toolchains/gnu_arm/4.9_2015q3/bin/../lib/gcc/arm-none-eabi/4.9.3/../../../../arm-none-eabi/lib/armv7e-m/softfp/crt0.o
 .bss           0x00000000        0x0 c:/siliconlabs/simplicitystudio/v4/developer/toolchains/gnu_arm/4.9_2015q3/bin/../lib/gcc/arm-none-eabi/4.9.3/../../../../arm-none-eabi/lib/armv7e-m/softfp/crt0.o
 .ARM.extab     0x00000000        0x0 c:/siliconlabs/simplicitystudio/v4/developer/toolchains/gnu_arm/4.9_2015q3/bin/../lib/gcc/arm-none-eabi/4.9.3/../../../../arm-none-eabi/lib/armv7e-m/softfp/crt0.o
 .text          0x00000000        0x0 ./advertisement.o
 .data          0x00000000        0x0 ./advertisement.o
 .bss           0x00000000        0x0 ./advertisement.o
 .text.advSwitchAdvMessage
                0x00000000       0x3c ./advertisement.o
 .text.advConnectionStarted
                0x00000000       0x18 ./advertisement.o
 .text          0x00000000        0x0 ./app.o
 .data          0x00000000        0x0 ./app.o
 .bss           0x00000000        0x0 ./app.o
 .bss.slave_characteristic_properties
                0x00000000        0x1 ./app.o
 .data.slave_addr_to_match
                0x00000000        0x6 ./app.o
 .bss.slave_addr_match
                0x00000000        0x1 ./app.o
 .text.decode_adv_data
                0x00000000       0x74 ./app.o
 .text.format_bluetooth_address
                0x00000000       0x58 ./app.o
 .text.rtcIntCallbackRegister
                0x00000000       0x1c ./app.o
 .text          0x00000000        0x0 ./app_hw.o
 .data          0x00000000        0x0 ./app_hw.o
 .bss           0x00000000        0x0 ./app_hw.o
 .bss.si7013_status
                0x00000000        0x1 ./app_hw.o
 .rodata        0x00000000       0x20 ./app_hw.o
 .text.appHwInit
                0x00000000       0x2c ./app_hw.o
 .text.appHwReadTm
                0x00000000       0x2c ./app_hw.o
 .text.appHwReadHumidity
                0x00000000       0x28 ./app_hw.o
 .text.appHwInitTempSens
                0x00000000       0x28 ./app_hw.o
 .text.appBtnCback
                0x00000000       0x18 ./app_hw.o
 .debug_info    0x00000000      0x319 ./app_hw.o
 .debug_abbrev  0x00000000      0x135 ./app_hw.o
 .debug_loc     0x00000000      0x148 ./app_hw.o
 .debug_aranges
                0x00000000       0x40 ./app_hw.o
 .debug_ranges  0x00000000       0x30 ./app_hw.o
 .debug_line    0x00000000      0x27e ./app_hw.o
 .debug_str     0x00000000      0x3aa ./app_hw.o
 .comment       0x00000000       0x71 ./app_hw.o
 .debug_frame   0x00000000       0xb4 ./app_hw.o
 .ARM.attributes
                0x00000000       0x37 ./app_hw.o
 .text          0x00000000        0x0 ./app_ui.o
 .data          0x00000000        0x0 ./app_ui.o
 .bss           0x00000000        0x0 ./app_ui.o
 .bss.appUiHeaderString
                0x00000000       0x40 ./app_ui.o
 .data.appUiLedSeqLowAlert
                0x00000000       0x20 ./app_ui.o
 .data.appUiLedSeqLowAlertReq
                0x00000000        0x8 ./app_ui.o
 .data.appUiLedSeqHighAlert
                0x00000000        0x8 ./app_ui.o
 .data.appUiLedSeqHighAlertReq
                0x00000000        0x8 ./app_ui.o
 .text.appUiBtnRegister
                0x00000000       0x1c ./app_ui.o
 .text.appUiLedLowAlert
                0x00000000       0x1c ./app_ui.o
 .text.appUiLedHighAlert
                0x00000000       0x1c ./app_ui.o
 .rodata        0x00000000       0x3f ./app_ui.o
 .text.appUiInit
                0x00000000       0x38 ./app_ui.o
 .text          0x00000000        0x0 ./application_properties.o
 .data          0x00000000        0x0 ./application_properties.o
 .bss           0x00000000        0x0 ./application_properties.o
 .rodata.applicationProperties
                0x00000000       0x38 ./application_properties.o
 .debug_info    0x00000000      0x167 ./application_properties.o
 .debug_abbrev  0x00000000       0x95 ./application_properties.o
 .debug_aranges
                0x00000000       0x18 ./application_properties.o
 .debug_line    0x00000000      0x1a6 ./application_properties.o
 .debug_str     0x00000000      0x2aa ./application_properties.o
 .comment       0x00000000       0x71 ./application_properties.o
 .ARM.attributes
                0x00000000       0x37 ./application_properties.o
 .text          0x00000000        0x0 ./beacon.o
 .data          0x00000000        0x0 ./beacon.o
 .bss           0x00000000        0x0 ./beacon.o
 .text          0x00000000        0x0 ./ble-callback-stubs.o
 .data          0x00000000        0x0 ./ble-callback-stubs.o
 .bss           0x00000000        0x0 ./ble-callback-stubs.o
 .debug_line    0x00000000        0x0 ./ble-callback-stubs.o
 .debug_str     0x00000000      0x14b ./ble-callback-stubs.o
 .comment       0x00000000       0x71 ./ble-callback-stubs.o
 .ARM.attributes
                0x00000000       0x37 ./ble-callback-stubs.o
 .text          0x00000000        0x0 ./ble-callbacks.o
 .data          0x00000000        0x0 ./ble-callbacks.o
 .bss           0x00000000        0x0 ./ble-callbacks.o
 .debug_line    0x00000000        0x0 ./ble-callbacks.o
 .debug_str     0x00000000      0x146 ./ble-callbacks.o
 .comment       0x00000000       0x71 ./ble-callbacks.o
 .ARM.attributes
                0x00000000       0x37 ./ble-callbacks.o
 .text          0x00000000        0x0 ./gatt_db.o
 .data          0x00000000        0x0 ./gatt_db.o
 .bss           0x00000000        0x0 ./gatt_db.o
 .data.bg_gattdb
                0x00000000        0x4 ./gatt_db.o
 .text          0x00000000        0x0 ./graphics.o
 .data          0x00000000        0x0 ./graphics.o
 .bss           0x00000000        0x0 ./graphics.o
 .text.graphInit
                0x00000000       0x64 ./graphics.o
 .text          0x00000000        0x0 ./htm.o
 .data          0x00000000        0x0 ./htm.o
 .bss           0x00000000        0x0 ./htm.o
 .text.gecko_cmd_gatt_server_send_characteristic_notification
                0x00000000       0x9c ./htm.o
 .text.gecko_cmd_hardware_set_soft_timer
                0x00000000       0x60 ./htm.o
 .data.htmTempMeas
                0x00000000       0x10 ./htm.o
 .data.htmDateTime
                0x00000000        0x8 ./htm.o
 .data.htmClientConnection
                0x00000000        0x1 ./htm.o
 .bss.e_therm_measure_val
                0x00000000        0x4 ./htm.o
 .text.htmInit  0x00000000       0x24 ./htm.o
 .text.htmTemperatureCharStatusChange
                0x00000000       0x38 ./htm.o
 .text.htmTemperatureMeasure
                0x00000000       0x64 ./htm.o
 .text.htmHumidityMeasure
                0x00000000       0x50 ./htm.o
 .text.htmBuildTempMeas
                0x00000000       0xec ./htm.o
 .rodata        0x00000000       0x21 ./htm.o
 .text.htmProcMsg
                0x00000000      0x178 ./htm.o
 .debug_info    0x00000000     0x4154 ./htm.o
 .debug_abbrev  0x00000000      0x21e ./htm.o
 .debug_loc     0x00000000      0x26a ./htm.o
 .debug_aranges
                0x00000000       0x58 ./htm.o
 .debug_ranges  0x00000000       0x48 ./htm.o
 .debug_line    0x00000000      0x33a ./htm.o
 .debug_str     0x00000000     0x600c ./htm.o
 .comment       0x00000000       0x71 ./htm.o
 .debug_frame   0x00000000      0x134 ./htm.o
 .ARM.attributes
                0x00000000       0x37 ./htm.o
 .text          0x00000000        0x0 ./ia.o
 .data          0x00000000        0x0 ./ia.o
 .bss           0x00000000        0x0 ./ia.o
 .rodata        0x00000000       0x45 ./ia.o
 .text.iaImmediateAlertWrite
                0x00000000       0x4c ./ia.o
 .debug_info    0x00000000     0x38ec ./ia.o
 .debug_abbrev  0x00000000      0x107 ./ia.o
 .debug_loc     0x00000000       0x50 ./ia.o
 .debug_aranges
                0x00000000       0x20 ./ia.o
 .debug_ranges  0x00000000       0x10 ./ia.o
 .debug_line    0x00000000      0x234 ./ia.o
 .debug_str     0x00000000     0x497a ./ia.o
 .comment       0x00000000       0x71 ./ia.o
 .debug_frame   0x00000000       0x34 ./ia.o
 .ARM.attributes
                0x00000000       0x37 ./ia.o
 .text          0x00000000        0x0 ./main.o
 .data          0x00000000        0x0 ./main.o
 .bss           0x00000000        0x0 ./main.o
 .text          0x00000000        0x0 ./bgapi/dmadrv.o
 .data          0x00000000        0x0 ./bgapi/dmadrv.o
 .bss           0x00000000        0x0 ./bgapi/dmadrv.o
 .rodata.xferCfg
                0x00000000       0x10 ./bgapi/dmadrv.o
 .rodata.m2p    0x00000000       0x10 ./bgapi/dmadrv.o
 .rodata.p2m    0x00000000       0x10 ./bgapi/dmadrv.o
 .text.DMADRV_DeInit
                0x00000000       0x7c ./bgapi/dmadrv.o
 .text.DMADRV_FreeChannel
                0x00000000       0x84 ./bgapi/dmadrv.o
 .text.DMADRV_MemoryPeripheralPingPong
                0x00000000       0x44 ./bgapi/dmadrv.o
 .text.DMADRV_PeripheralMemoryPingPong
                0x00000000       0x44 ./bgapi/dmadrv.o
 .text.DMADRV_PauseTransfer
                0x00000000       0x6c ./bgapi/dmadrv.o
 .text.DMADRV_ResumeTransfer
                0x00000000       0x6c ./bgapi/dmadrv.o
 .text.DMADRV_TransferActive
                0x00000000       0x94 ./bgapi/dmadrv.o
 .text.DMADRV_TransferCompletePending
                0x00000000       0x94 ./bgapi/dmadrv.o
 .text.DMADRV_TransferDone
                0x00000000       0x7c ./bgapi/dmadrv.o
 .text          0x00000000        0x0 ./bgapi/em_adc.o
 .data          0x00000000        0x0 ./bgapi/em_adc.o
 .bss           0x00000000        0x0 ./bgapi/em_adc.o
 .text.ADC_ScanInputClear
                0x00000000       0x28 ./bgapi/em_adc.o
 .text.ADC_ScanSingleEndedInputAdd
                0x00000000       0x94 ./bgapi/em_adc.o
 .text.ADC_ScanDifferentialInputAdd
                0x00000000      0x180 ./bgapi/em_adc.o
 .text.ADC_InitScan
                0x00000000      0x114 ./bgapi/em_adc.o
 .text.ADC_DataIdScanGet
                0x00000000       0x2c ./bgapi/em_adc.o
 .text.ADC_Reset
                0x00000000       0x98 ./bgapi/em_adc.o
 .text.ADC_TimebaseCalc
                0x00000000       0x50 ./bgapi/em_adc.o
 .text          0x00000000        0x0 ./bgapi/em_ldma.o
 .data          0x00000000        0x0 ./bgapi/em_ldma.o
 .bss           0x00000000        0x0 ./bgapi/em_ldma.o
 .text.NVIC_DisableIRQ
                0x00000000       0x30 ./bgapi/em_ldma.o
 .text.BUS_RegBitWrite
                0x00000000       0x2c ./bgapi/em_ldma.o
 .text.LDMA_DeInit
                0x00000000       0x28 ./bgapi/em_ldma.o
 .text.LDMA_EnableChannelRequest
                0x00000000       0x2c ./bgapi/em_ldma.o
 .text.LDMA_TransferDone
                0x00000000       0x50 ./bgapi/em_ldma.o
 .text          0x00000000        0x0 ./bgapi/em_leuart.o
 .data          0x00000000        0x0 ./bgapi/em_leuart.o
 .bss           0x00000000        0x0 ./bgapi/em_leuart.o
 .text.LEUART_BaudrateCalc
                0x00000000       0x60 ./bgapi/em_leuart.o
 .text.LEUART_BaudrateGet
                0x00000000       0x40 ./bgapi/em_leuart.o
 .text.LEUART_Reset
                0x00000000       0x5c ./bgapi/em_leuart.o
 .text.LEUART_Rx
                0x00000000       0x28 ./bgapi/em_leuart.o
 .text.LEUART_RxExt
                0x00000000       0x28 ./bgapi/em_leuart.o
 .text.LEUART_Tx
                0x00000000       0x30 ./bgapi/em_leuart.o
 .text.LEUART_TxExt
                0x00000000       0x30 ./bgapi/em_leuart.o
 .text.LEUART_TxDmaInEM2Enable
                0x00000000       0x3c ./bgapi/em_leuart.o
 .text.LEUART_RxDmaInEM2Enable
                0x00000000       0x3c ./bgapi/em_leuart.o
 .text          0x00000000        0x0 ./device/EFR32_B_1_1_P/gcc/startup_efr32bg1p.o
 .data          0x00000000        0x0 ./device/EFR32_B_1_1_P/gcc/startup_efr32bg1p.o
 .bss           0x00000000        0x0 ./device/EFR32_B_1_1_P/gcc/startup_efr32bg1p.o
 .text          0x00000000        0x0 ./emlib/em_cmu.o
 .data          0x00000000        0x0 ./emlib/em_cmu.o
 .bss           0x00000000        0x0 ./emlib/em_cmu.o
 .text.CMU_PrescToLog2
                0x00000000       0x28 ./emlib/em_cmu.o
 .text.CMU_AUXHFRCODevinfoGet
                0x00000000       0xdc ./emlib/em_cmu.o
 .text.CMU_AUXHFRCOBandGet
                0x00000000       0x18 ./emlib/em_cmu.o
 .text.CMU_AUXHFRCOBandSet
                0x00000000       0x98 ./emlib/em_cmu.o
 .text.CMU_Calibrate
                0x00000000       0x88 ./emlib/em_cmu.o
 .text.CMU_CalibrateConfig
                0x00000000       0xd4 ./emlib/em_cmu.o
 .text.CMU_CalibrateCountGet
                0x00000000       0x38 ./emlib/em_cmu.o
 .text.CMU_ClockDivGet
                0x00000000       0x1c ./emlib/em_cmu.o
 .text.CMU_ClockDivSet
                0x00000000       0x1c ./emlib/em_cmu.o
 .text.CMU_ClockPrescGet
                0x00000000      0x120 ./emlib/em_cmu.o
 .text.CMU_ClockPrescSet
                0x00000000      0x1e8 ./emlib/em_cmu.o
 .text.CMU_FreezeEnable
                0x00000000       0x3c ./emlib/em_cmu.o
 .text.CMU_HFRCODevinfoGet
                0x00000000       0xdc ./emlib/em_cmu.o
 .text.CMU_HFRCOBandGet
                0x00000000       0x18 ./emlib/em_cmu.o
 .text.CMU_HFRCOBandSet
                0x00000000       0xec ./emlib/em_cmu.o
 .text.CMU_HFXOAutostartEnable
                0x00000000       0x80 ./emlib/em_cmu.o
 .text.CMU_LCDClkFDIVGet
                0x00000000       0x10 ./emlib/em_cmu.o
 .text.CMU_LCDClkFDIVSet
                0x00000000       0x14 ./emlib/em_cmu.o
 .text.CMU_PCNTClockExternalGet
                0x00000000       0x40 ./emlib/em_cmu.o
 .text.CMU_PCNTClockExternalSet
                0x00000000       0x34 ./emlib/em_cmu.o
 .text          0x00000000        0x0 ./emlib/em_cryotimer.o
 .data          0x00000000        0x0 ./emlib/em_cryotimer.o
 .bss           0x00000000        0x0 ./emlib/em_cryotimer.o
 .text.BUS_RegBitWrite
                0x00000000       0x2c ./emlib/em_cryotimer.o
 .text.CRYOTIMER_EM4WakeupEnable
                0x00000000       0x20 ./emlib/em_cryotimer.o
 .text.CRYOTIMER_Init
                0x00000000       0x4c ./emlib/em_cryotimer.o
 .debug_info    0x00000000      0x3a8 ./emlib/em_cryotimer.o
 .debug_abbrev  0x00000000      0x126 ./emlib/em_cryotimer.o
 .debug_loc     0x00000000       0xfc ./emlib/em_cryotimer.o
 .debug_aranges
                0x00000000       0x30 ./emlib/em_cryotimer.o
 .debug_ranges  0x00000000       0x20 ./emlib/em_cryotimer.o
 .debug_line    0x00000000      0x32b ./emlib/em_cryotimer.o
 .debug_str     0x00000000      0x662 ./emlib/em_cryotimer.o
 .comment       0x00000000       0x71 ./emlib/em_cryotimer.o
 .debug_frame   0x00000000       0x80 ./emlib/em_cryotimer.o
 .ARM.attributes
                0x00000000       0x37 ./emlib/em_cryotimer.o
 .text          0x00000000        0x0 ./emlib/em_gpio.o
 .data          0x00000000        0x0 ./emlib/em_gpio.o
 .bss           0x00000000        0x0 ./emlib/em_gpio.o
 .text.BUS_RegMaskedSet
                0x00000000       0x24 ./emlib/em_gpio.o
 .text.BUS_RegMaskedClear
                0x00000000       0x24 ./emlib/em_gpio.o
 .text.BUS_RegMaskedWrite
                0x00000000       0x24 ./emlib/em_gpio.o
 .text.GPIO_EM4SetPinRetention
                0x00000000       0x3c ./emlib/em_gpio.o
 .text.GPIO_IntClear
                0x00000000       0x20 ./emlib/em_gpio.o
 .text.GPIO_DbgLocationSet
                0x00000000       0x14 ./emlib/em_gpio.o
 .text.GPIO_DriveStrengthSet
                0x00000000       0x60 ./emlib/em_gpio.o
 .text.GPIO_ExtIntConfig
                0x00000000      0x128 ./emlib/em_gpio.o
 .text.GPIO_PinModeGet
                0x00000000       0x84 ./emlib/em_gpio.o
 .text.GPIO_EM4EnablePinWakeup
                0x00000000       0x58 ./emlib/em_gpio.o
 .text          0x00000000        0x0 ./emlib/em_i2c.o
 .data          0x00000000        0x0 ./emlib/em_i2c.o
 .bss           0x00000000        0x0 ./emlib/em_i2c.o
 .bss.i2cTransfer
                0x00000000       0x10 ./emlib/em_i2c.o
 .text.I2C_BusFreqGet
                0x00000000       0x44 ./emlib/em_i2c.o
 .text.I2C_Enable
                0x00000000       0x20 ./emlib/em_i2c.o
 .text.I2C_Reset
                0x00000000       0x3c ./emlib/em_i2c.o
 .text.I2C_Transfer
                0x00000000      0x42c ./emlib/em_i2c.o
 .text.I2C_TransferInit
                0x00000000       0xc0 ./emlib/em_i2c.o
 .text          0x00000000        0x0 ./emlib/em_msc.o
 .data          0x00000000        0x0 ./emlib/em_msc.o
 .bss           0x00000000        0x0 ./emlib/em_msc.o
 .ram           0x00000000      0x3e8 ./emlib/em_msc.o
 .text.MSC_Init
                0x00000000       0x24 ./emlib/em_msc.o
 .text.MSC_Deinit
                0x00000000       0x24 ./emlib/em_msc.o
 .text.MSC_ExecConfigSet
                0x00000000       0x94 ./emlib/em_msc.o
 .debug_info    0x00000000      0x6c3 ./emlib/em_msc.o
 .debug_abbrev  0x00000000      0x201 ./emlib/em_msc.o
 .debug_loc     0x00000000      0x34c ./emlib/em_msc.o
 .debug_aranges
                0x00000000       0x70 ./emlib/em_msc.o
 .debug_ranges  0x00000000       0x60 ./emlib/em_msc.o
 .debug_line    0x00000000      0x4be ./emlib/em_msc.o
 .debug_str     0x00000000      0x533 ./emlib/em_msc.o
 .comment       0x00000000       0x71 ./emlib/em_msc.o
 .debug_frame   0x00000000      0x194 ./emlib/em_msc.o
 .ARM.attributes
                0x00000000       0x37 ./emlib/em_msc.o
 .text          0x00000000        0x0 ./emlib/em_rtcc.o
 .data          0x00000000        0x0 ./emlib/em_rtcc.o
 .bss           0x00000000        0x0 ./emlib/em_rtcc.o
 .text.RTCC_Unlock
                0x00000000       0x18 ./emlib/em_rtcc.o
 .text.BUS_RegBitWrite
                0x00000000       0x2c ./emlib/em_rtcc.o
 .text.RTCC_ChannelInit
                0x00000000       0x58 ./emlib/em_rtcc.o
 .text.RTCC_Enable
                0x00000000       0x20 ./emlib/em_rtcc.o
 .text.RTCC_Reset
                0x00000000       0x94 ./emlib/em_rtcc.o
 .text.RTCC_StatusClear
                0x00000000       0x24 ./emlib/em_rtcc.o
 .text          0x00000000        0x0 ./emlib/em_system.o
 .data          0x00000000        0x0 ./emlib/em_system.o
 .bss           0x00000000        0x0 ./emlib/em_system.o
 .text.SYSTEM_GetCalibrationValue
                0x00000000       0x5c ./emlib/em_system.o
 .text          0x00000000        0x0 ./emlib/em_usart.o
 .data          0x00000000        0x0 ./emlib/em_usart.o
 .bss           0x00000000        0x0 ./emlib/em_usart.o
 .text.USARTn_InitIrDA
                0x00000000       0x70 ./emlib/em_usart.o
 .text.USART_InitI2s
                0x00000000       0x7c ./emlib/em_usart.o
 .text.USART_InitPrsTrigger
                0x00000000       0x64 ./emlib/em_usart.o
 .text.USART_Rx
                0x00000000       0x28 ./emlib/em_usart.o
 .text.USART_RxDouble
                0x00000000       0x28 ./emlib/em_usart.o
 .text.USART_RxDoubleExt
                0x00000000       0x28 ./emlib/em_usart.o
 .text.USART_RxExt
                0x00000000       0x28 ./emlib/em_usart.o
 .text.USART_Tx
                0x00000000       0x2c ./emlib/em_usart.o
 .text.USART_TxDouble
                0x00000000       0x2c ./emlib/em_usart.o
 .text.USART_TxDoubleExt
                0x00000000       0x28 ./emlib/em_usart.o
 .text.USART_TxExt
                0x00000000       0x2c ./emlib/em_usart.o
 .text          0x00000000        0x0 ./glib/BRD4100A/bmp.o
 .data          0x00000000        0x0 ./glib/BRD4100A/bmp.o
 .bss           0x00000000        0x0 ./glib/BRD4100A/bmp.o
 .bss.localCache
                0x00000000       0x80 ./glib/BRD4100A/bmp.o
 .bss.moduleInit
                0x00000000        0x4 ./glib/BRD4100A/bmp.o
 .bss.fileReset
                0x00000000        0x4 ./glib/BRD4100A/bmp.o
 .bss.paletteRead
                0x00000000        0x4 ./glib/BRD4100A/bmp.o
 .bss.bytesInImage
                0x00000000        0x4 ./glib/BRD4100A/bmp.o
 .bss.dataIdx   0x00000000        0x4 ./glib/BRD4100A/bmp.o
 .text.BMP_init
                0x00000000       0x5c ./glib/BRD4100A/bmp.o
 .text.BMP_reset
                0x00000000      0x1bc ./glib/BRD4100A/bmp.o
 .text.BMP_readRgbData
                0x00000000      0x21c ./glib/BRD4100A/bmp.o
 .text.BMP_readRgbDataRLE8
                0x00000000      0x270 ./glib/BRD4100A/bmp.o
 .text.BMP_readRawData8bit
                0x00000000       0xb8 ./glib/BRD4100A/bmp.o
 .text.BMP_readRawData24bit
                0x00000000      0x118 ./glib/BRD4100A/bmp.o
 .text.BMP_readRawDataRLE8
                0x00000000      0x1c0 ./glib/BRD4100A/bmp.o
 .text.BMP_readPaddingBytes
                0x00000000       0x4c ./glib/BRD4100A/bmp.o
 .text.BMP_readRleData
                0x00000000       0xfc ./glib/BRD4100A/bmp.o
 .text.BMP_readRawData
                0x00000000      0x14c ./glib/BRD4100A/bmp.o
 .text.BMP_getWidth
                0x00000000       0x38 ./glib/BRD4100A/bmp.o
 .text.BMP_getHeight
                0x00000000       0x38 ./glib/BRD4100A/bmp.o
 .text.BMP_getBitsPerPixel
                0x00000000       0x3c ./glib/BRD4100A/bmp.o
 .text.BMP_getCompressionType
                0x00000000       0x38 ./glib/BRD4100A/bmp.o
 .text.BMP_getImageDataSize
                0x00000000       0x38 ./glib/BRD4100A/bmp.o
 .text.BMP_getDataOffset
                0x00000000       0x38 ./glib/BRD4100A/bmp.o
 .text.BMP_getFileSize
                0x00000000       0x38 ./glib/BRD4100A/bmp.o
 .debug_info    0x00000000      0x93d ./glib/BRD4100A/bmp.o
 .debug_abbrev  0x00000000      0x18d ./glib/BRD4100A/bmp.o
 .debug_loc     0x00000000      0x50c ./glib/BRD4100A/bmp.o
 .debug_aranges
                0x00000000       0xa0 ./glib/BRD4100A/bmp.o
 .debug_ranges  0x00000000       0x90 ./glib/BRD4100A/bmp.o
 .debug_line    0x00000000      0x635 ./glib/BRD4100A/bmp.o
 .debug_str     0x00000000      0x5bd ./glib/BRD4100A/bmp.o
 .comment       0x00000000       0x71 ./glib/BRD4100A/bmp.o
 .debug_frame   0x00000000      0x260 ./glib/BRD4100A/bmp.o
 .ARM.attributes
                0x00000000       0x37 ./glib/BRD4100A/bmp.o
 COMMON         0x00000000       0x50 ./glib/BRD4100A/bmp.o
 .text          0x00000000        0x0 ./glib/BRD4100A/dmd_display.o
 .data          0x00000000        0x0 ./glib/BRD4100A/dmd_display.o
 .bss           0x00000000        0x0 ./glib/BRD4100A/dmd_display.o
 .text.DMD_init
                0x00000000       0xc8 ./glib/BRD4100A/dmd_display.o
 .text.DMD_getDisplayGeometry
                0x00000000       0x38 ./glib/BRD4100A/dmd_display.o
 .text.DMD_writeData
                0x00000000      0x2a4 ./glib/BRD4100A/dmd_display.o
 .text.DMD_readData
                0x00000000       0x20 ./glib/BRD4100A/dmd_display.o
 .text.DMD_sleep
                0x00000000       0x18 ./glib/BRD4100A/dmd_display.o
 .text.DMD_wakeUp
                0x00000000       0x18 ./glib/BRD4100A/dmd_display.o
 .text.DMD_flipDisplay
                0x00000000       0x18 ./glib/BRD4100A/dmd_display.o
 .text.DMD_allocateFramebuffer
                0x00000000       0x54 ./glib/BRD4100A/dmd_display.o
 .text.DMD_freeFramebuffer
                0x00000000       0x20 ./glib/BRD4100A/dmd_display.o
 .text.DMD_selectFramebuffer
                0x00000000       0x34 ./glib/BRD4100A/dmd_display.o
 .text.DMD_copyFramebuffer
                0x00000000       0x4c ./glib/BRD4100A/dmd_display.o
 .text          0x00000000        0x0 ./glib/BRD4100A/glib.o
 .data          0x00000000        0x0 ./glib/BRD4100A/glib.o
 .bss           0x00000000        0x0 ./glib/BRD4100A/glib.o
 .text.GLIB_contextInit
                0x00000000       0x84 ./glib/BRD4100A/glib.o
 .text.GLIB_displayWakeUp
                0x00000000       0x10 ./glib/BRD4100A/glib.o
 .text.GLIB_displaySleep
                0x00000000       0x10 ./glib/BRD4100A/glib.o
 .text.GLIB_setClippingRegion
                0x00000000       0xa4 ./glib/BRD4100A/glib.o
 .text.GLIB_clearRegion
                0x00000000       0x88 ./glib/BRD4100A/glib.o
 .text.GLIB_resetClippingRegion
                0x00000000       0x44 ./glib/BRD4100A/glib.o
 .text.GLIB_applyClippingRegion
                0x00000000       0x58 ./glib/BRD4100A/glib.o
 .text.GLIB_rgbColor
                0x00000000       0x2c ./glib/BRD4100A/glib.o
 .text.GLIB_drawPixelRGB
                0x00000000       0x60 ./glib/BRD4100A/glib.o
 .text          0x00000000        0x0 ./glib/BRD4100A/glib_bitmap.o
 .data          0x00000000        0x0 ./glib/BRD4100A/glib_bitmap.o
 .bss           0x00000000        0x0 ./glib/BRD4100A/glib_bitmap.o
 .text.GLIB_drawBitmap
                0x00000000       0x5c ./glib/BRD4100A/glib_bitmap.o
 .debug_info    0x00000000      0x35f ./glib/BRD4100A/glib_bitmap.o
 .debug_abbrev  0x00000000       0xf8 ./glib/BRD4100A/glib_bitmap.o
 .debug_loc     0x00000000       0x50 ./glib/BRD4100A/glib_bitmap.o
 .debug_aranges
                0x00000000       0x20 ./glib/BRD4100A/glib_bitmap.o
 .debug_ranges  0x00000000       0x10 ./glib/BRD4100A/glib_bitmap.o
 .debug_line    0x00000000      0x28a ./glib/BRD4100A/glib_bitmap.o
 .debug_str     0x00000000      0x445 ./glib/BRD4100A/glib_bitmap.o
 .comment       0x00000000       0x71 ./glib/BRD4100A/glib_bitmap.o
 .debug_frame   0x00000000       0x34 ./glib/BRD4100A/glib_bitmap.o
 .ARM.attributes
                0x00000000       0x37 ./glib/BRD4100A/glib_bitmap.o
 .text          0x00000000        0x0 ./glib/BRD4100A/glib_circle.o
 .data          0x00000000        0x0 ./glib/BRD4100A/glib_circle.o
 .bss           0x00000000        0x0 ./glib/BRD4100A/glib_circle.o
 .text.GLIB_drawCircle
                0x00000000       0x28 ./glib/BRD4100A/glib_circle.o
 .text.GLIB_drawPartialCircle
                0x00000000       0xd8 ./glib/BRD4100A/glib_circle.o
 .text.GLIB_drawCircleFilled
                0x00000000      0x170 ./glib/BRD4100A/glib_circle.o
 .text.GLIB_drawPartialCirclePoints
                0x00000000       0xe4 ./glib/BRD4100A/glib_circle.o
 .debug_info    0x00000000      0x52d ./glib/BRD4100A/glib_circle.o
 .debug_abbrev  0x00000000      0x131 ./glib/BRD4100A/glib_circle.o
 .debug_loc     0x00000000      0x142 ./glib/BRD4100A/glib_circle.o
 .debug_aranges
                0x00000000       0x38 ./glib/BRD4100A/glib_circle.o
 .debug_ranges  0x00000000       0x28 ./glib/BRD4100A/glib_circle.o
 .debug_line    0x00000000      0x378 ./glib/BRD4100A/glib_circle.o
 .debug_str     0x00000000      0x4b9 ./glib/BRD4100A/glib_circle.o
 .comment       0x00000000       0x71 ./glib/BRD4100A/glib_circle.o
 .debug_frame   0x00000000       0xa8 ./glib/BRD4100A/glib_circle.o
 .ARM.attributes
                0x00000000       0x37 ./glib/BRD4100A/glib_circle.o
 .text          0x00000000        0x0 ./glib/BRD4100A/glib_font_narrow_6x8.o
 .data          0x00000000        0x0 ./glib/BRD4100A/glib_font_narrow_6x8.o
 .bss           0x00000000        0x0 ./glib/BRD4100A/glib_font_narrow_6x8.o
 .rodata.GLIB_FontNarrow6x8PixMap
                0x00000000      0x320 ./glib/BRD4100A/glib_font_narrow_6x8.o
 .rodata.GLIB_FontNarrow6x8
                0x00000000       0x10 ./glib/BRD4100A/glib_font_narrow_6x8.o
 .debug_info    0x00000000      0x19a ./glib/BRD4100A/glib_font_narrow_6x8.o
 .debug_abbrev  0x00000000       0xa7 ./glib/BRD4100A/glib_font_narrow_6x8.o
 .debug_aranges
                0x00000000       0x18 ./glib/BRD4100A/glib_font_narrow_6x8.o
 .debug_line    0x00000000      0x195 ./glib/BRD4100A/glib_font_narrow_6x8.o
 .debug_str     0x00000000      0x318 ./glib/BRD4100A/glib_font_narrow_6x8.o
 .comment       0x00000000       0x71 ./glib/BRD4100A/glib_font_narrow_6x8.o
 .ARM.attributes
                0x00000000       0x37 ./glib/BRD4100A/glib_font_narrow_6x8.o
 .text          0x00000000        0x0 ./glib/BRD4100A/glib_font_normal_8x8.o
 .data          0x00000000        0x0 ./glib/BRD4100A/glib_font_normal_8x8.o
 .bss           0x00000000        0x0 ./glib/BRD4100A/glib_font_normal_8x8.o
 .rodata.GLIB_FontNormal8x8PixMap
                0x00000000      0x320 ./glib/BRD4100A/glib_font_normal_8x8.o
 .rodata.GLIB_FontNormal8x8
                0x00000000       0x10 ./glib/BRD4100A/glib_font_normal_8x8.o
 .debug_info    0x00000000      0x19a ./glib/BRD4100A/glib_font_normal_8x8.o
 .debug_abbrev  0x00000000       0xa7 ./glib/BRD4100A/glib_font_normal_8x8.o
 .debug_aranges
                0x00000000       0x18 ./glib/BRD4100A/glib_font_normal_8x8.o
 .debug_line    0x00000000      0x195 ./glib/BRD4100A/glib_font_normal_8x8.o
 .debug_str     0x00000000      0x318 ./glib/BRD4100A/glib_font_normal_8x8.o
 .comment       0x00000000       0x71 ./glib/BRD4100A/glib_font_normal_8x8.o
 .ARM.attributes
                0x00000000       0x37 ./glib/BRD4100A/glib_font_normal_8x8.o
 .text          0x00000000        0x0 ./glib/BRD4100A/glib_font_number_16x20.o
 .data          0x00000000        0x0 ./glib/BRD4100A/glib_font_number_16x20.o
 .bss           0x00000000        0x0 ./glib/BRD4100A/glib_font_number_16x20.o
 .rodata.GLIB_FontNumber16x20PixMap
                0x00000000      0x1e0 ./glib/BRD4100A/glib_font_number_16x20.o
 .rodata.GLIB_FontNumber16x20
                0x00000000       0x10 ./glib/BRD4100A/glib_font_number_16x20.o
 .debug_info    0x00000000      0x199 ./glib/BRD4100A/glib_font_number_16x20.o
 .debug_abbrev  0x00000000       0xa7 ./glib/BRD4100A/glib_font_number_16x20.o
 .debug_aranges
                0x00000000       0x18 ./glib/BRD4100A/glib_font_number_16x20.o
 .debug_line    0x00000000      0x197 ./glib/BRD4100A/glib_font_number_16x20.o
 .debug_str     0x00000000      0x31e ./glib/BRD4100A/glib_font_number_16x20.o
 .comment       0x00000000       0x71 ./glib/BRD4100A/glib_font_number_16x20.o
 .ARM.attributes
                0x00000000       0x37 ./glib/BRD4100A/glib_font_number_16x20.o
 .text          0x00000000        0x0 ./glib/BRD4100A/glib_line.o
 .data          0x00000000        0x0 ./glib/BRD4100A/glib_line.o
 .bss           0x00000000        0x0 ./glib/BRD4100A/glib_line.o
 .text.GLIB_drawLineH
                0x00000000       0xf0 ./glib/BRD4100A/glib_line.o
 .text.GLIB_drawLineV
                0x00000000       0xf0 ./glib/BRD4100A/glib_line.o
 .text.GLIB_getClipCode
                0x00000000       0x68 ./glib/BRD4100A/glib_line.o
 .text.GLIB_clipLine
                0x00000000      0x1b8 ./glib/BRD4100A/glib_line.o
 .text.GLIB_drawLine
                0x00000000      0x194 ./glib/BRD4100A/glib_line.o
 .debug_info    0x00000000      0x607 ./glib/BRD4100A/glib_line.o
 .debug_abbrev  0x00000000      0x182 ./glib/BRD4100A/glib_line.o
 .debug_loc     0x00000000      0x19d ./glib/BRD4100A/glib_line.o
 .debug_aranges
                0x00000000       0x40 ./glib/BRD4100A/glib_line.o
 .debug_ranges  0x00000000       0x30 ./glib/BRD4100A/glib_line.o
 .debug_line    0x00000000      0x43f ./glib/BRD4100A/glib_line.o
 .debug_str     0x00000000      0x4d7 ./glib/BRD4100A/glib_line.o
 .comment       0x00000000       0x71 ./glib/BRD4100A/glib_line.o
 .debug_frame   0x00000000       0xd8 ./glib/BRD4100A/glib_line.o
 .ARM.attributes
                0x00000000       0x37 ./glib/BRD4100A/glib_line.o
 .text          0x00000000        0x0 ./glib/BRD4100A/glib_polygon.o
 .data          0x00000000        0x0 ./glib/BRD4100A/glib_polygon.o
 .bss           0x00000000        0x0 ./glib/BRD4100A/glib_polygon.o
 .text.GLIB_drawPolygon
                0x00000000       0xe8 ./glib/BRD4100A/glib_polygon.o
 .debug_info    0x00000000      0x3a9 ./glib/BRD4100A/glib_polygon.o
 .debug_abbrev  0x00000000       0xe9 ./glib/BRD4100A/glib_polygon.o
 .debug_loc     0x00000000       0x52 ./glib/BRD4100A/glib_polygon.o
 .debug_aranges
                0x00000000       0x20 ./glib/BRD4100A/glib_polygon.o
 .debug_ranges  0x00000000       0x10 ./glib/BRD4100A/glib_polygon.o
 .debug_line    0x00000000      0x2d9 ./glib/BRD4100A/glib_polygon.o
 .debug_str     0x00000000      0x481 ./glib/BRD4100A/glib_polygon.o
 .comment       0x00000000       0x71 ./glib/BRD4100A/glib_polygon.o
 .debug_frame   0x00000000       0x38 ./glib/BRD4100A/glib_polygon.o
 .ARM.attributes
                0x00000000       0x37 ./glib/BRD4100A/glib_polygon.o
 .text          0x00000000        0x0 ./glib/BRD4100A/glib_rectangle.o
 .data          0x00000000        0x0 ./glib/BRD4100A/glib_rectangle.o
 .bss           0x00000000        0x0 ./glib/BRD4100A/glib_rectangle.o
 .text.GLIB_normalizeRect
                0x00000000       0x54 ./glib/BRD4100A/glib_rectangle.o
 .text.GLIB_drawRect
                0x00000000       0xec ./glib/BRD4100A/glib_rectangle.o
 .text.GLIB_drawRectFilled
                0x00000000       0xe4 ./glib/BRD4100A/glib_rectangle.o
 .text          0x00000000        0x0 ./glib/BRD4100A/glib_string.o
 .data          0x00000000        0x0 ./glib/BRD4100A/glib_string.o
 .bss           0x00000000        0x0 ./glib/BRD4100A/glib_string.o
 .text.GLIB_setFont
                0x00000000       0x44 ./glib/BRD4100A/glib_string.o
 .text          0x00000000        0x0 ./kit/BRD4100A/bsp_bcc.o
 .data          0x00000000        0x0 ./kit/BRD4100A/bsp_bcc.o
 .bss           0x00000000        0x0 ./kit/BRD4100A/bsp_bcc.o
 .bss.rxByteCount
                0x00000000        0x4 ./kit/BRD4100A/bsp_bcc.o
 .bss.txByteCount
                0x00000000        0x4 ./kit/BRD4100A/bsp_bcc.o
 .text.BSP_BccDeInit
                0x00000000       0x40 ./kit/BRD4100A/bsp_bcc.o
 .rodata        0x00000000       0x28 ./kit/BRD4100A/bsp_bcc.o
 .text.BSP_BccInit
                0x00000000       0x78 ./kit/BRD4100A/bsp_bcc.o
 .text.BSP_BccPacketReceive
                0x00000000       0xac ./kit/BRD4100A/bsp_bcc.o
 .text.BSP_BccPacketSend
                0x00000000       0x68 ./kit/BRD4100A/bsp_bcc.o
 .text.BSP_BccPinsEnable
                0x00000000       0x88 ./kit/BRD4100A/bsp_bcc.o
 .text.RxByte   0x00000000       0x3c ./kit/BRD4100A/bsp_bcc.o
 .text.TxByte   0x00000000       0x3c ./kit/BRD4100A/bsp_bcc.o
 .debug_info    0x00000000      0x88d ./kit/BRD4100A/bsp_bcc.o
 .debug_abbrev  0x00000000      0x1c4 ./kit/BRD4100A/bsp_bcc.o
 .debug_loc     0x00000000      0x224 ./kit/BRD4100A/bsp_bcc.o
 .debug_aranges
                0x00000000       0x50 ./kit/BRD4100A/bsp_bcc.o
 .debug_ranges  0x00000000       0x40 ./kit/BRD4100A/bsp_bcc.o
 .debug_line    0x00000000      0x3e9 ./kit/BRD4100A/bsp_bcc.o
 .debug_str     0x00000000      0xa96 ./kit/BRD4100A/bsp_bcc.o
 .comment       0x00000000       0x71 ./kit/BRD4100A/bsp_bcc.o
 .debug_frame   0x00000000      0x114 ./kit/BRD4100A/bsp_bcc.o
 .ARM.attributes
                0x00000000       0x37 ./kit/BRD4100A/bsp_bcc.o
 .text          0x00000000        0x0 ./kit/BRD4100A/bsp_stk.o
 .data          0x00000000        0x0 ./kit/BRD4100A/bsp_stk.o
 .bss           0x00000000        0x0 ./kit/BRD4100A/bsp_stk.o
 .text.BSP_Disable
                0x00000000       0x14 ./kit/BRD4100A/bsp_stk.o
 .text.BSP_EbiInit
                0x00000000       0x14 ./kit/BRD4100A/bsp_stk.o
 .text.BSP_EbiDeInit
                0x00000000       0x14 ./kit/BRD4100A/bsp_stk.o
 .text.BSP_IOExpGetDeviceId
                0x00000000       0x10 ./kit/BRD4100A/bsp_stk.o
 .text.BSP_Init
                0x00000000       0x20 ./kit/BRD4100A/bsp_stk.o
 .text.BSP_PeripheralAccess
                0x00000000       0x1c ./kit/BRD4100A/bsp_stk.o
 .text.BSP_CurrentGet
                0x00000000       0x44 ./kit/BRD4100A/bsp_stk.o
 .text.BSP_VoltageGet
                0x00000000       0x44 ./kit/BRD4100A/bsp_stk.o
 .debug_info    0x00000000      0x2c7 ./kit/BRD4100A/bsp_stk.o
 .debug_abbrev  0x00000000      0x151 ./kit/BRD4100A/bsp_stk.o
 .debug_loc     0x00000000      0x248 ./kit/BRD4100A/bsp_stk.o
 .debug_aranges
                0x00000000       0x58 ./kit/BRD4100A/bsp_stk.o
 .debug_ranges  0x00000000       0x48 ./kit/BRD4100A/bsp_stk.o
 .debug_line    0x00000000      0x2a3 ./kit/BRD4100A/bsp_stk.o
 .debug_str     0x00000000      0x35a ./kit/BRD4100A/bsp_stk.o
 .comment       0x00000000       0x71 ./kit/BRD4100A/bsp_stk.o
 .debug_frame   0x00000000      0x120 ./kit/BRD4100A/bsp_stk.o
 .ARM.attributes
                0x00000000       0x37 ./kit/BRD4100A/bsp_stk.o
 .text          0x00000000        0x0 ./kit/BRD4100A/bsp_stk_leds.o
 .data          0x00000000        0x0 ./kit/BRD4100A/bsp_stk_leds.o
 .bss           0x00000000        0x0 ./kit/BRD4100A/bsp_stk_leds.o
 .text.BUS_RegBitRead
                0x00000000       0x2c ./kit/BRD4100A/bsp_stk_leds.o
 .text.GPIO_PinOutGet
                0x00000000       0x54 ./kit/BRD4100A/bsp_stk_leds.o
 .text.GPIO_PinOutToggle
                0x00000000       0x58 ./kit/BRD4100A/bsp_stk_leds.o
 .text.BSP_LedsInit
                0x00000000       0x5c ./kit/BRD4100A/bsp_stk_leds.o
 .text.BSP_LedsGet
                0x00000000       0x5c ./kit/BRD4100A/bsp_stk_leds.o
 .text.BSP_LedsSet
                0x00000000       0x74 ./kit/BRD4100A/bsp_stk_leds.o
 .text.BSP_LedGet
                0x00000000       0x48 ./kit/BRD4100A/bsp_stk_leds.o
 .text.BSP_LedToggle
                0x00000000       0x44 ./kit/BRD4100A/bsp_stk_leds.o
 .text          0x00000000        0x0 ./kit/BRD4100A/i2cspm.o
 .data          0x00000000        0x0 ./kit/BRD4100A/i2cspm.o
 .bss           0x00000000        0x0 ./kit/BRD4100A/i2cspm.o
 .text.BUS_RegBitWrite
                0x00000000       0x2c ./kit/BRD4100A/i2cspm.o
 .text.GPIO_PinOutClear
                0x00000000       0x50 ./kit/BRD4100A/i2cspm.o
 .text.GPIO_PinOutSet
                0x00000000       0x50 ./kit/BRD4100A/i2cspm.o
 .text.I2CSPM_Init
                0x00000000       0xd8 ./kit/BRD4100A/i2cspm.o
 .text.I2CSPM_Transfer
                0x00000000       0x40 ./kit/BRD4100A/i2cspm.o
 .debug_info    0x00000000      0x952 ./kit/BRD4100A/i2cspm.o
 .debug_abbrev  0x00000000      0x1c4 ./kit/BRD4100A/i2cspm.o
 .debug_loc     0x00000000      0x19c ./kit/BRD4100A/i2cspm.o
 .debug_aranges
                0x00000000       0x40 ./kit/BRD4100A/i2cspm.o
 .debug_ranges  0x00000000       0x30 ./kit/BRD4100A/i2cspm.o
 .debug_line    0x00000000      0x411 ./kit/BRD4100A/i2cspm.o
 .debug_str     0x00000000      0x930 ./kit/BRD4100A/i2cspm.o
 .comment       0x00000000       0x71 ./kit/BRD4100A/i2cspm.o
 .debug_frame   0x00000000       0xc8 ./kit/BRD4100A/i2cspm.o
 .ARM.attributes
                0x00000000       0x37 ./kit/BRD4100A/i2cspm.o
 .text          0x00000000        0x0 ./kit/BRD4100A/si7013.o
 .data          0x00000000        0x0 ./kit/BRD4100A/si7013.o
 .bss           0x00000000        0x0 ./kit/BRD4100A/si7013.o
 .text.Si7013_Measure
                0x00000000       0x70 ./kit/BRD4100A/si7013.o
 .text.Si7013_StartNoHoldMeasure
                0x00000000       0x54 ./kit/BRD4100A/si7013.o
 .text.Si7013_GetFirmwareRevision
                0x00000000       0x64 ./kit/BRD4100A/si7013.o
 .text.Si7013_StartNoHoldMeasureRHAndTemp
                0x00000000       0x24 ./kit/BRD4100A/si7013.o
 .text.Si7013_ReadNoHoldData
                0x00000000       0x64 ./kit/BRD4100A/si7013.o
 .text.Si7013_ReadNoHoldRHAndTemp
                0x00000000       0x84 ./kit/BRD4100A/si7013.o
 .text.Si7013_MeasureRHAndTemp
                0x00000000       0x84 ./kit/BRD4100A/si7013.o
 .text.Si7013_WriteUserReg2
                0x00000000       0x58 ./kit/BRD4100A/si7013.o
 .text.Si7013_MeasureV
                0x00000000       0x4c ./kit/BRD4100A/si7013.o
 .text.Si7013_Detect
                0x00000000       0x64 ./kit/BRD4100A/si7013.o
 .debug_info    0x00000000      0x7af ./kit/BRD4100A/si7013.o
 .debug_abbrev  0x00000000      0x1ce ./kit/BRD4100A/si7013.o
 .debug_loc     0x00000000      0x322 ./kit/BRD4100A/si7013.o
 .debug_aranges
                0x00000000       0x68 ./kit/BRD4100A/si7013.o
 .debug_ranges  0x00000000       0x58 ./kit/BRD4100A/si7013.o
 .debug_line    0x00000000      0x3fd ./kit/BRD4100A/si7013.o
 .debug_str     0x00000000      0x4bb ./kit/BRD4100A/si7013.o
 .comment       0x00000000       0x71 ./kit/BRD4100A/si7013.o
 .debug_frame   0x00000000      0x178 ./kit/BRD4100A/si7013.o
 .ARM.attributes
                0x00000000       0x37 ./kit/BRD4100A/si7013.o
 .text          0x00000000        0x0 ./kit/BRD4100A/tempsens.o
 .data          0x00000000        0x0 ./kit/BRD4100A/tempsens.o
 .bss           0x00000000        0x0 ./kit/BRD4100A/tempsens.o
 .text.TEMPSENS_Celsius2Fahrenheit
                0x00000000       0x88 ./kit/BRD4100A/tempsens.o
 .text.TEMPSENS_RegisterGet
                0x00000000       0x88 ./kit/BRD4100A/tempsens.o
 .text.TEMPSENS_RegisterSet
                0x00000000       0x84 ./kit/BRD4100A/tempsens.o
 .text.TEMPSENS_TemperatureGet
                0x00000000       0xc0 ./kit/BRD4100A/tempsens.o
 .debug_info    0x00000000      0x534 ./kit/BRD4100A/tempsens.o
 .debug_abbrev  0x00000000      0x15c ./kit/BRD4100A/tempsens.o
 .debug_loc     0x00000000      0x14c ./kit/BRD4100A/tempsens.o
 .debug_aranges
                0x00000000       0x38 ./kit/BRD4100A/tempsens.o
 .debug_ranges  0x00000000       0x28 ./kit/BRD4100A/tempsens.o
 .debug_line    0x00000000      0x367 ./kit/BRD4100A/tempsens.o
 .debug_str     0x00000000      0x482 ./kit/BRD4100A/tempsens.o
 .comment       0x00000000       0x71 ./kit/BRD4100A/tempsens.o
 .debug_frame   0x00000000       0xa4 ./kit/BRD4100A/tempsens.o
 .ARM.attributes
                0x00000000       0x37 ./kit/BRD4100A/tempsens.o
 .text          0x00000000        0x0 ./kit/BRD4100A/udelay.o
 .data          0x00000000        0x0 ./kit/BRD4100A/udelay.o
 .bss           0x00000000        0x0 ./kit/BRD4100A/udelay.o
 .text.NVIC_ClearPendingIRQ
                0x00000000       0x30 ./kit/BRD4100A/udelay.o
 .text.RTCC_CounterGet
                0x00000000       0x18 ./kit/BRD4100A/udelay.o
 .data.loops_per_jiffy
                0x00000000        0x4 ./kit/BRD4100A/udelay.o
 .rodata        0x00000000       0x18 ./kit/BRD4100A/udelay.o
 .text.UDELAY_Calibrate
                0x00000000      0x190 ./kit/BRD4100A/udelay.o
 .text.UDELAY_Delay
                0x00000000       0x38 ./kit/BRD4100A/udelay.o
 .text.calibrate_delay
                0x00000000       0xd8 ./kit/BRD4100A/udelay.o
 .text.clock    0x00000000       0x10 ./kit/BRD4100A/udelay.o
 .text._delay   0x00000000       0x18 ./kit/BRD4100A/udelay.o
 .debug_info    0x00000000      0xdcf ./kit/BRD4100A/udelay.o
 .debug_abbrev  0x00000000      0x1e5 ./kit/BRD4100A/udelay.o
 .debug_loc     0x00000000      0x226 ./kit/BRD4100A/udelay.o
 .debug_aranges
                0x00000000       0x50 ./kit/BRD4100A/udelay.o
 .debug_ranges  0x00000000       0x40 ./kit/BRD4100A/udelay.o
 .debug_line    0x00000000      0x446 ./kit/BRD4100A/udelay.o
 .debug_str     0x00000000      0xd2a ./kit/BRD4100A/udelay.o
 .comment       0x00000000       0x71 ./kit/BRD4100A/udelay.o
 .debug_frame   0x00000000      0x110 ./kit/BRD4100A/udelay.o
 .ARM.attributes
                0x00000000       0x37 ./kit/BRD4100A/udelay.o
 .text          0x00000000        0x0 ./kit_flashpwr/BRD4100A/mx25flash_spi.o
 .data          0x00000000        0x0 ./kit_flashpwr/BRD4100A/mx25flash_spi.o
 .bss           0x00000000        0x0 ./kit_flashpwr/BRD4100A/mx25flash_spi.o
 .text.BUS_RegBitRead
                0x00000000       0x2c ./kit_flashpwr/BRD4100A/mx25flash_spi.o
 .text.GPIO_PinInGet
                0x00000000       0x54 ./kit_flashpwr/BRD4100A/mx25flash_spi.o
 .text.InsertDummyCycle
                0x00000000       0x38 ./kit_flashpwr/BRD4100A/mx25flash_spi.o
 .text.GetByte  0x00000000       0x40 ./kit_flashpwr/BRD4100A/mx25flash_spi.o
 .text.WaitFlashReady
                0x00000000       0x34 ./kit_flashpwr/BRD4100A/mx25flash_spi.o
 .text.WaitRYBYReady
                0x00000000       0x38 ./kit_flashpwr/BRD4100A/mx25flash_spi.o
 .text.IsFlashBusy
                0x00000000       0x28 ./kit_flashpwr/BRD4100A/mx25flash_spi.o
 .text.IsFlashQIO
                0x00000000       0x28 ./kit_flashpwr/BRD4100A/mx25flash_spi.o
 .text.IsFlash4Byte
                0x00000000       0x28 ./kit_flashpwr/BRD4100A/mx25flash_spi.o
 .text.SendFlashAddr
                0x00000000       0x5c ./kit_flashpwr/BRD4100A/mx25flash_spi.o
 .text.GetDummyCycle
                0x00000000       0x24 ./kit_flashpwr/BRD4100A/mx25flash_spi.o
 .text.MX25_RDID
                0x00000000       0x5c ./kit_flashpwr/BRD4100A/mx25flash_spi.o
 .text.MX25_RES
                0x00000000       0x38 ./kit_flashpwr/BRD4100A/mx25flash_spi.o
 .text.MX25_REMS
                0x00000000       0x60 ./kit_flashpwr/BRD4100A/mx25flash_spi.o
 .text.MX25_RDSR
                0x00000000       0x34 ./kit_flashpwr/BRD4100A/mx25flash_spi.o
 .text.MX25_WRSR
                0x00000000       0x54 ./kit_flashpwr/BRD4100A/mx25flash_spi.o
 .text.MX25_RDSCUR
                0x00000000       0x34 ./kit_flashpwr/BRD4100A/mx25flash_spi.o
 .text.MX25_WRSCUR
                0x00000000       0x5c ./kit_flashpwr/BRD4100A/mx25flash_spi.o
 .text.MX25_RDCR
                0x00000000       0x34 ./kit_flashpwr/BRD4100A/mx25flash_spi.o
 .text.MX25_READ
                0x00000000       0x80 ./kit_flashpwr/BRD4100A/mx25flash_spi.o
 .text.MX25_2READ
                0x00000000       0x98 ./kit_flashpwr/BRD4100A/mx25flash_spi.o
 .text.MX25_4READ
                0x00000000       0xb0 ./kit_flashpwr/BRD4100A/mx25flash_spi.o
 .text.MX25_DREAD
                0x00000000       0x98 ./kit_flashpwr/BRD4100A/mx25flash_spi.o
 .text.MX25_QREAD
                0x00000000       0xb0 ./kit_flashpwr/BRD4100A/mx25flash_spi.o
 .text.MX25_FASTREAD
                0x00000000       0x98 ./kit_flashpwr/BRD4100A/mx25flash_spi.o
 .text.MX25_RDSFDP
                0x00000000       0x88 ./kit_flashpwr/BRD4100A/mx25flash_spi.o
 .text.MX25_WREN
                0x00000000       0x1c ./kit_flashpwr/BRD4100A/mx25flash_spi.o
 .text.MX25_WRDI
                0x00000000       0x1c ./kit_flashpwr/BRD4100A/mx25flash_spi.o
 .text.MX25_PP  0x00000000       0xa4 ./kit_flashpwr/BRD4100A/mx25flash_spi.o
 .text.MX25_4PP
                0x00000000       0xb8 ./kit_flashpwr/BRD4100A/mx25flash_spi.o
 .text.MX25_SE  0x00000000       0x80 ./kit_flashpwr/BRD4100A/mx25flash_spi.o
 .text.MX25_BE32K
                0x00000000       0x80 ./kit_flashpwr/BRD4100A/mx25flash_spi.o
 .text.MX25_BE  0x00000000       0x80 ./kit_flashpwr/BRD4100A/mx25flash_spi.o
 .text.MX25_CE  0x00000000       0x40 ./kit_flashpwr/BRD4100A/mx25flash_spi.o
 .text.MX25_ENSO
                0x00000000       0x1c ./kit_flashpwr/BRD4100A/mx25flash_spi.o
 .text.MX25_EXSO
                0x00000000       0x1c ./kit_flashpwr/BRD4100A/mx25flash_spi.o
 .text.MX25_SBL
                0x00000000       0x30 ./kit_flashpwr/BRD4100A/mx25flash_spi.o
 .text.MX25_RSTEN
                0x00000000       0x1c ./kit_flashpwr/BRD4100A/mx25flash_spi.o
 .text.MX25_RST
                0x00000000       0x30 ./kit_flashpwr/BRD4100A/mx25flash_spi.o
 .text.MX25_PGM_ERS_S
                0x00000000       0x1c ./kit_flashpwr/BRD4100A/mx25flash_spi.o
 .text.MX25_PGM_ERS_R
                0x00000000       0x1c ./kit_flashpwr/BRD4100A/mx25flash_spi.o
 .text.MX25_NOP
                0x00000000       0x1c ./kit_flashpwr/BRD4100A/mx25flash_spi.o
 .text          0x00000000        0x0 ./kit_lcd/BRD4100A/display.o
 .data          0x00000000        0x0 ./kit_lcd/BRD4100A/display.o
 .bss           0x00000000        0x0 ./kit_lcd/BRD4100A/display.o
 .bss.deviceTable
                0x00000000       0x30 ./kit_lcd/BRD4100A/display.o
 .bss.moduleInitialized
                0x00000000        0x1 ./kit_lcd/BRD4100A/display.o
 .bss.devicesRegistered
                0x00000000        0x4 ./kit_lcd/BRD4100A/display.o
 .data.pDisplayDeviceDriverInitFunctions
                0x00000000        0x8 ./kit_lcd/BRD4100A/display.o
 .text.DISPLAY_Init
                0x00000000       0x54 ./kit_lcd/BRD4100A/display.o
 .text.DISPLAY_DriverRefresh
                0x00000000       0x94 ./kit_lcd/BRD4100A/display.o
 .text.DISPLAY_DeviceGet
                0x00000000       0x60 ./kit_lcd/BRD4100A/display.o
 .text.DISPLAY_DeviceRegister
                0x00000000       0x6c ./kit_lcd/BRD4100A/display.o
 .debug_info    0x00000000      0x428 ./kit_lcd/BRD4100A/display.o
 .debug_abbrev  0x00000000       0xf3 ./kit_lcd/BRD4100A/display.o
 .debug_loc     0x00000000      0x140 ./kit_lcd/BRD4100A/display.o
 .debug_aranges
                0x00000000       0x38 ./kit_lcd/BRD4100A/display.o
 .debug_ranges  0x00000000       0x28 ./kit_lcd/BRD4100A/display.o
 .debug_line    0x00000000      0x205 ./kit_lcd/BRD4100A/display.o
 .debug_str     0x00000000      0x494 ./kit_lcd/BRD4100A/display.o
 .comment       0x00000000       0x71 ./kit_lcd/BRD4100A/display.o
 .debug_frame   0x00000000       0xa0 ./kit_lcd/BRD4100A/display.o
 .ARM.attributes
                0x00000000       0x37 ./kit_lcd/BRD4100A/display.o
 .text          0x00000000        0x0 ./kit_lcd/BRD4100A/displayls013b7dh03.o
 .data          0x00000000        0x0 ./kit_lcd/BRD4100A/displayls013b7dh03.o
 .bss           0x00000000        0x0 ./kit_lcd/BRD4100A/displayls013b7dh03.o
 .bss.lcdPolarity
                0x00000000        0x1 ./kit_lcd/BRD4100A/displayls013b7dh03.o
 .bss.pixelMatrixPoolBase
                0x00000000      0x800 ./kit_lcd/BRD4100A/displayls013b7dh03.o
 .data.pixelMatrixPool
                0x00000000        0x4 ./kit_lcd/BRD4100A/displayls013b7dh03.o
 .rodata        0x00000000       0x15 ./kit_lcd/BRD4100A/displayls013b7dh03.o
 .text.DISPLAY_Ls013b7dh03Init
                0x00000000       0xe8 ./kit_lcd/BRD4100A/displayls013b7dh03.o
 .text.DriverRefresh
                0x00000000       0x20 ./kit_lcd/BRD4100A/displayls013b7dh03.o
 .text.DisplayEnable
                0x00000000       0x40 ./kit_lcd/BRD4100A/displayls013b7dh03.o
 .text.DisplayClear
                0x00000000       0x48 ./kit_lcd/BRD4100A/displayls013b7dh03.o
 .text.DisplayPolarityInverse
                0x00000000       0x14 ./kit_lcd/BRD4100A/displayls013b7dh03.o
 .text.PixelMatrixAllocate
                0x00000000       0x70 ./kit_lcd/BRD4100A/displayls013b7dh03.o
 .text.PixelMatrixFree
                0x00000000       0x1c ./kit_lcd/BRD4100A/displayls013b7dh03.o
 .text.PixelMatrixClear
                0x00000000       0x40 ./kit_lcd/BRD4100A/displayls013b7dh03.o
 .text.PixelMatrixDraw
                0x00000000       0xb8 ./kit_lcd/BRD4100A/displayls013b7dh03.o
 .debug_info    0x00000000      0x635 ./kit_lcd/BRD4100A/displayls013b7dh03.o
 .debug_abbrev  0x00000000      0x16c ./kit_lcd/BRD4100A/displayls013b7dh03.o
 .debug_loc     0x00000000      0x2c6 ./kit_lcd/BRD4100A/displayls013b7dh03.o
 .debug_aranges
                0x00000000       0x60 ./kit_lcd/BRD4100A/displayls013b7dh03.o
 .debug_ranges  0x00000000       0x50 ./kit_lcd/BRD4100A/displayls013b7dh03.o
 .debug_line    0x00000000      0x333 ./kit_lcd/BRD4100A/displayls013b7dh03.o
 .debug_str     0x00000000      0x571 ./kit_lcd/BRD4100A/displayls013b7dh03.o
 .comment       0x00000000       0x71 ./kit_lcd/BRD4100A/displayls013b7dh03.o
 .debug_frame   0x00000000      0x154 ./kit_lcd/BRD4100A/displayls013b7dh03.o
 .ARM.attributes
                0x00000000       0x37 ./kit_lcd/BRD4100A/displayls013b7dh03.o
 .text          0x00000000        0x0 ./kit_lcd/BRD4100A/displaypalemlib.o
 .data          0x00000000        0x0 ./kit_lcd/BRD4100A/displaypalemlib.o
 .bss           0x00000000        0x0 ./kit_lcd/BRD4100A/displaypalemlib.o
 .text.BUS_RegBitWrite
                0x00000000       0x2c ./kit_lcd/BRD4100A/displaypalemlib.o
 .text.GPIO_PinOutClear
                0x00000000       0x50 ./kit_lcd/BRD4100A/displaypalemlib.o
 .text.GPIO_PinOutSet
                0x00000000       0x50 ./kit_lcd/BRD4100A/displaypalemlib.o
 .text.GPIO_PinOutToggle
                0x00000000       0x58 ./kit_lcd/BRD4100A/displaypalemlib.o
 .rodata        0x00000000       0x24 ./kit_lcd/BRD4100A/displaypalemlib.o
 .text.PAL_SpiInit
                0x00000000       0x64 ./kit_lcd/BRD4100A/displaypalemlib.o
 .text.PAL_SpiShutdown
                0x00000000       0x2c ./kit_lcd/BRD4100A/displaypalemlib.o
 .text.PAL_SpiTransmit
                0x00000000       0x74 ./kit_lcd/BRD4100A/displaypalemlib.o
 .text.PAL_TimerInit
                0x00000000       0x18 ./kit_lcd/BRD4100A/displaypalemlib.o
 .text.PAL_TimerShutdown
                0x00000000       0x18 ./kit_lcd/BRD4100A/displaypalemlib.o
 .text.PAL_TimerMicroSecondsDelay
                0x00000000       0x1c ./kit_lcd/BRD4100A/displaypalemlib.o
 .text.PAL_TimerRepeat
                0x00000000       0x30 ./kit_lcd/BRD4100A/displaypalemlib.o
 .text.PAL_GpioInit
                0x00000000       0x20 ./kit_lcd/BRD4100A/displaypalemlib.o
 .text.PAL_GpioShutdown
                0x00000000       0x20 ./kit_lcd/BRD4100A/displaypalemlib.o
 .text.PAL_GpioPinModeSet
                0x00000000       0x3c ./kit_lcd/BRD4100A/displaypalemlib.o
 .text.PAL_GpioPinOutSet
                0x00000000       0x20 ./kit_lcd/BRD4100A/displaypalemlib.o
 .text.PAL_GpioPinOutClear
                0x00000000       0x20 ./kit_lcd/BRD4100A/displaypalemlib.o
 .text.PAL_GpioPinOutToggle
                0x00000000       0x20 ./kit_lcd/BRD4100A/displaypalemlib.o
 .debug_info    0x00000000      0xd29 ./kit_lcd/BRD4100A/displaypalemlib.o
 .debug_abbrev  0x00000000      0x204 ./kit_lcd/BRD4100A/displaypalemlib.o
 .debug_loc     0x00000000      0x574 ./kit_lcd/BRD4100A/displaypalemlib.o
 .debug_aranges
                0x00000000       0xa0 ./kit_lcd/BRD4100A/displaypalemlib.o
 .debug_ranges  0x00000000       0x90 ./kit_lcd/BRD4100A/displaypalemlib.o
 .debug_line    0x00000000      0x543 ./kit_lcd/BRD4100A/displaypalemlib.o
 .debug_str     0x00000000      0xc48 ./kit_lcd/BRD4100A/displaypalemlib.o
 .comment       0x00000000       0x71 ./kit_lcd/BRD4100A/displaypalemlib.o
 .debug_frame   0x00000000      0x284 ./kit_lcd/BRD4100A/displaypalemlib.o
 .ARM.attributes
                0x00000000       0x37 ./kit_lcd/BRD4100A/displaypalemlib.o
 .text          0x00000000        0x0 ./src/InitDevice.o
 .data          0x00000000        0x0 ./src/InitDevice.o
 .bss           0x00000000        0x0 ./src/InitDevice.o
 .text.ADC0_enter_DefaultMode_from_RESET
                0x00000000        0xc ./src/InitDevice.o
 .text.ACMP0_enter_DefaultMode_from_RESET
                0x00000000        0xc ./src/InitDevice.o
 .text.ACMP1_enter_DefaultMode_from_RESET
                0x00000000        0xc ./src/InitDevice.o
 .text.IDAC0_enter_DefaultMode_from_RESET
                0x00000000        0xc ./src/InitDevice.o
 .text.USART0_enter_DefaultMode_from_RESET
                0x00000000        0xc ./src/InitDevice.o
 .text.USART1_enter_DefaultMode_from_RESET
                0x00000000        0xc ./src/InitDevice.o
 .text.LEUART0_enter_DefaultMode_from_RESET
                0x00000000        0xc ./src/InitDevice.o
 .text.WDOG0_enter_DefaultMode_from_RESET
                0x00000000        0xc ./src/InitDevice.o
 .text.TIMER0_enter_DefaultMode_from_RESET
                0x00000000        0xc ./src/InitDevice.o
 .text.TIMER1_enter_DefaultMode_from_RESET
                0x00000000        0xc ./src/InitDevice.o
 .text.LETIMER0_enter_DefaultMode_from_RESET
                0x00000000        0xc ./src/InitDevice.o
 .text.CRYOTIMER_enter_DefaultMode_from_RESET
                0x00000000        0xc ./src/InitDevice.o
 .text.PCNT0_enter_DefaultMode_from_RESET
                0x00000000        0xc ./src/InitDevice.o
 .data          0x00000000        0x0 C:/SiliconLabs/SimplicityStudio/v4/developer/sdks/gecko_sdk_suite/v1.0//protocol/bluetooth_2.3/lib/EFR32BG1P/GCC/bgapi.a(gecko_bgapi_hardware.c.obj)
 .bss           0x00000000        0x0 C:/SiliconLabs/SimplicityStudio/v4/developer/sdks/gecko_sdk_suite/v1.0//protocol/bluetooth_2.3/lib/EFR32BG1P/GCC/bgapi.a(gecko_bgapi_hardware.c.obj)
 .data          0x00000000        0x0 C:/SiliconLabs/SimplicityStudio/v4/developer/sdks/gecko_sdk_suite/v1.0//protocol/bluetooth_2.3/lib/EFR32BG1P/GCC/bgapi.a(gecko_bgapi_test.c.obj)
 .bss           0x00000000        0x0 C:/SiliconLabs/SimplicityStudio/v4/developer/sdks/gecko_sdk_suite/v1.0//protocol/bluetooth_2.3/lib/EFR32BG1P/GCC/bgapi.a(gecko_bgapi_test.c.obj)
 .data          0x00000000        0x0 C:/SiliconLabs/SimplicityStudio/v4/developer/sdks/gecko_sdk_suite/v1.0//protocol/bluetooth_2.3/lib/EFR32BG1P/GCC/bgapi.a(gecko_bgapi_util.c.obj)
 .bss           0x00000000        0x0 C:/SiliconLabs/SimplicityStudio/v4/developer/sdks/gecko_sdk_suite/v1.0//protocol/bluetooth_2.3/lib/EFR32BG1P/GCC/bgapi.a(gecko_bgapi_util.c.obj)
 .data          0x00000000        0x0 C:/SiliconLabs/SimplicityStudio/v4/developer/sdks/gecko_sdk_suite/v1.0//protocol/bluetooth_2.3/lib/EFR32BG1P/GCC/bgapi.a(gecko_bgapi_dfu.c.obj)
 .bss           0x00000000        0x0 C:/SiliconLabs/SimplicityStudio/v4/developer/sdks/gecko_sdk_suite/v1.0//protocol/bluetooth_2.3/lib/EFR32BG1P/GCC/bgapi.a(gecko_bgapi_dfu.c.obj)
 .data          0x00000000        0x0 C:/SiliconLabs/SimplicityStudio/v4/developer/sdks/gecko_sdk_suite/v1.0//protocol/bluetooth_2.3/lib/EFR32BG1P/GCC/bgapi.a(gecko_bgapi_gap.c.obj)
 .bss           0x00000000        0x0 C:/SiliconLabs/SimplicityStudio/v4/developer/sdks/gecko_sdk_suite/v1.0//protocol/bluetooth_2.3/lib/EFR32BG1P/GCC/bgapi.a(gecko_bgapi_gap.c.obj)
 .data          0x00000000        0x0 C:/SiliconLabs/SimplicityStudio/v4/developer/sdks/gecko_sdk_suite/v1.0//protocol/bluetooth_2.3/lib/EFR32BG1P/GCC/bgapi.a(gecko_bgapi_gatt.c.obj)
 .bss           0x00000000        0x0 C:/SiliconLabs/SimplicityStudio/v4/developer/sdks/gecko_sdk_suite/v1.0//protocol/bluetooth_2.3/lib/EFR32BG1P/GCC/bgapi.a(gecko_bgapi_gatt.c.obj)
 .data          0x00000000        0x0 C:/SiliconLabs/SimplicityStudio/v4/developer/sdks/gecko_sdk_suite/v1.0//protocol/bluetooth_2.3/lib/EFR32BG1P/GCC/bgapi.a(gecko_bgapi_gatt_server.c.obj)
 .bss           0x00000000        0x0 C:/SiliconLabs/SimplicityStudio/v4/developer/sdks/gecko_sdk_suite/v1.0//protocol/bluetooth_2.3/lib/EFR32BG1P/GCC/bgapi.a(gecko_bgapi_gatt_server.c.obj)
 .data          0x00000000        0x0 C:/SiliconLabs/SimplicityStudio/v4/developer/sdks/gecko_sdk_suite/v1.0//protocol/bluetooth_2.3/lib/EFR32BG1P/GCC/bgapi.a(gecko_bgapi_flash.c.obj)
 .bss           0x00000000        0x0 C:/SiliconLabs/SimplicityStudio/v4/developer/sdks/gecko_sdk_suite/v1.0//protocol/bluetooth_2.3/lib/EFR32BG1P/GCC/bgapi.a(gecko_bgapi_flash.c.obj)
 .data          0x00000000        0x0 C:/SiliconLabs/SimplicityStudio/v4/developer/sdks/gecko_sdk_suite/v1.0//protocol/bluetooth_2.3/lib/EFR32BG1P/GCC/bgapi.a(gecko_bgapi_sm.c.obj)
 .bss           0x00000000        0x0 C:/SiliconLabs/SimplicityStudio/v4/developer/sdks/gecko_sdk_suite/v1.0//protocol/bluetooth_2.3/lib/EFR32BG1P/GCC/bgapi.a(gecko_bgapi_sm.c.obj)
 .data          0x00000000        0x0 C:/SiliconLabs/SimplicityStudio/v4/developer/sdks/gecko_sdk_suite/v1.0//protocol/bluetooth_2.3/lib/EFR32BG1P/GCC/bgapi.a(gecko_bgapi_system.c.obj)
 .bss           0x00000000        0x0 C:/SiliconLabs/SimplicityStudio/v4/developer/sdks/gecko_sdk_suite/v1.0//protocol/bluetooth_2.3/lib/EFR32BG1P/GCC/bgapi.a(gecko_bgapi_system.c.obj)
 .data          0x00000000        0x0 C:/SiliconLabs/SimplicityStudio/v4/developer/sdks/gecko_sdk_suite/v1.0//protocol/bluetooth_2.3/lib/EFR32BG1P/GCC/bgapi.a(gecko_bgapi_endpoint.c.obj)
 .bss           0x00000000        0x0 C:/SiliconLabs/SimplicityStudio/v4/developer/sdks/gecko_sdk_suite/v1.0//protocol/bluetooth_2.3/lib/EFR32BG1P/GCC/bgapi.a(gecko_bgapi_endpoint.c.obj)
 .data          0x00000000        0x0 C:/SiliconLabs/SimplicityStudio/v4/developer/sdks/gecko_sdk_suite/v1.0//protocol/bluetooth_2.3/lib/EFR32BG1P/GCC/bgapi.a(gecko_bgapi_le_connection.c.obj)
 .bss           0x00000000        0x0 C:/SiliconLabs/SimplicityStudio/v4/developer/sdks/gecko_sdk_suite/v1.0//protocol/bluetooth_2.3/lib/EFR32BG1P/GCC/bgapi.a(gecko_bgapi_le_connection.c.obj)
 .data          0x00000000        0x0 C:/SiliconLabs/SimplicityStudio/v4/developer/sdks/gecko_sdk_suite/v1.0//protocol/bluetooth_2.3/lib/EFR32BG1P/GCC/bgapi.a(bgapi_hardware_lib.c.obj)
 .data          0x00000000        0x0 C:/SiliconLabs/SimplicityStudio/v4/developer/sdks/gecko_sdk_suite/v1.0//protocol/bluetooth_2.3/lib/EFR32BG1P/GCC/bgapi.a(bgapi_hardware.c.obj)
 .data          0x00000000        0x0 C:/SiliconLabs/SimplicityStudio/v4/developer/sdks/gecko_sdk_suite/v1.0//protocol/bluetooth_2.3/lib/EFR32BG1P/GCC/bgapi.a(bgapi_test_lib.c.obj)
 .bss           0x00000000        0x0 C:/SiliconLabs/SimplicityStudio/v4/developer/sdks/gecko_sdk_suite/v1.0//protocol/bluetooth_2.3/lib/EFR32BG1P/GCC/bgapi.a(bgapi_test_lib.c.obj)
 .data          0x00000000        0x0 C:/SiliconLabs/SimplicityStudio/v4/developer/sdks/gecko_sdk_suite/v1.0//protocol/bluetooth_2.3/lib/EFR32BG1P/GCC/bgapi.a(bgapi_util.c.obj)
 .data          0x00000000        0x0 C:/SiliconLabs/SimplicityStudio/v4/developer/sdks/gecko_sdk_suite/v1.0//protocol/bluetooth_2.3/lib/EFR32BG1P/GCC/bgapi.a(bgapi_dfu.c.obj)
 .bss           0x00000000        0x0 C:/SiliconLabs/SimplicityStudio/v4/developer/sdks/gecko_sdk_suite/v1.0//protocol/bluetooth_2.3/lib/EFR32BG1P/GCC/bgapi.a(bgapi_dfu.c.obj)
 .data          0x00000000        0x0 C:/SiliconLabs/SimplicityStudio/v4/developer/sdks/gecko_sdk_suite/v1.0//protocol/bluetooth_2.3/lib/EFR32BG1P/GCC/bgapi.a(bgapi_gap.c.obj)
 .data          0x00000000        0x0 C:/SiliconLabs/SimplicityStudio/v4/developer/sdks/gecko_sdk_suite/v1.0//protocol/bluetooth_2.3/lib/EFR32BG1P/GCC/bgapi.a(bgapi_gatt_lib.c.obj)
 .bss           0x00000000        0x0 C:/SiliconLabs/SimplicityStudio/v4/developer/sdks/gecko_sdk_suite/v1.0//protocol/bluetooth_2.3/lib/EFR32BG1P/GCC/bgapi.a(bgapi_gatt_lib.c.obj)
 .data          0x00000000        0x0 C:/SiliconLabs/SimplicityStudio/v4/developer/sdks/gecko_sdk_suite/v1.0//protocol/bluetooth_2.3/lib/EFR32BG1P/GCC/bgapi.a(bgapi_ps.c.obj)
 .bss           0x00000000        0x0 C:/SiliconLabs/SimplicityStudio/v4/developer/sdks/gecko_sdk_suite/v1.0//protocol/bluetooth_2.3/lib/EFR32BG1P/GCC/bgapi.a(bgapi_ps.c.obj)
 .data          0x00000000        0x0 C:/SiliconLabs/SimplicityStudio/v4/developer/sdks/gecko_sdk_suite/v1.0//protocol/bluetooth_2.3/lib/EFR32BG1P/GCC/bgapi.a(bgapi_sm.c.obj)
 .data          0x00000000        0x0 C:/SiliconLabs/SimplicityStudio/v4/developer/sdks/gecko_sdk_suite/v1.0//protocol/bluetooth_2.3/lib/EFR32BG1P/GCC/bgapi.a(bgapi_system.c.obj)
 .bss           0x00000000        0x0 C:/SiliconLabs/SimplicityStudio/v4/developer/sdks/gecko_sdk_suite/v1.0//protocol/bluetooth_2.3/lib/EFR32BG1P/GCC/bgapi.a(bgapi_system.c.obj)
 .data          0x00000000        0x0 C:/SiliconLabs/SimplicityStudio/v4/developer/sdks/gecko_sdk_suite/v1.0//protocol/bluetooth_2.3/lib/EFR32BG1P/GCC/bgapi.a(bgapi_endpoint.c.obj)
 .bss           0x00000000        0x0 C:/SiliconLabs/SimplicityStudio/v4/developer/sdks/gecko_sdk_suite/v1.0//protocol/bluetooth_2.3/lib/EFR32BG1P/GCC/bgapi.a(bgapi_endpoint.c.obj)
 .data          0x00000000        0x0 C:/SiliconLabs/SimplicityStudio/v4/developer/sdks/gecko_sdk_suite/v1.0//protocol/bluetooth_2.3/lib/EFR32BG1P/GCC/bgapi.a(bgapi_le_connection.c.obj)
 .bss           0x00000000        0x0 C:/SiliconLabs/SimplicityStudio/v4/developer/sdks/gecko_sdk_suite/v1.0//protocol/bluetooth_2.3/lib/EFR32BG1P/GCC/bgapi.a(bgapi_le_connection.c.obj)
 .data          0x00000000        0x0 C:/SiliconLabs/SimplicityStudio/v4/developer/sdks/gecko_sdk_suite/v1.0//protocol/bluetooth_2.3/lib/EFR32BG1P/GCC/bgapi.a(uart_endpoint.c.obj)
 .bss           0x00000000        0x0 C:/SiliconLabs/SimplicityStudio/v4/developer/sdks/gecko_sdk_suite/v1.0//protocol/bluetooth_2.3/lib/EFR32BG1P/GCC/bgapi.a(uart_endpoint.c.obj)
 .data          0x00000000        0x0 C:/SiliconLabs/SimplicityStudio/v4/developer/sdks/gecko_sdk_suite/v1.0//protocol/bluetooth_2.3/lib/EFR32BG1P/GCC/bgapi.a(gpio.c.obj)
 .bss           0x00000000        0x0 C:/SiliconLabs/SimplicityStudio/v4/developer/sdks/gecko_sdk_suite/v1.0//protocol/bluetooth_2.3/lib/EFR32BG1P/GCC/bgapi.a(gpio.c.obj)
 .data          0x00000000        0x0 C:/SiliconLabs/SimplicityStudio/v4/developer/sdks/gecko_sdk_suite/v1.0//protocol/bluetooth_2.3/lib/EFR32BG1P/GCC/bgapi.a(i2c.c.obj)
 .data          0x00000000        0x0 C:/SiliconLabs/SimplicityStudio/v4/developer/sdks/gecko_sdk_suite/v1.0//protocol/bluetooth_2.3/lib/EFR32BG1P/GCC/bgapi.a(sleep_signal.c.obj)
 .data          0x00000000        0x0 C:/SiliconLabs/SimplicityStudio/v4/developer/sdks/gecko_sdk_suite/v1.0//protocol/bluetooth_2.3/lib/EFR32BG1P/GCC/bgapi.a(uart.c.obj)
 .comment       0x00000000       0x6d C:/SiliconLabs/SimplicityStudio/v4/developer/sdks/gecko_sdk_suite/v1.0//protocol/bluetooth_2.3/lib/EFR32BG1P/EABI/stack.a
 .text          0x00000000        0x0 C:/SiliconLabs/SimplicityStudio/v4/developer/sdks/gecko_sdk_suite/v1.0//protocol/bluetooth_2.3/lib/EFR32BG1P/EABI/binstack.o
 .data          0x00000000        0x0 C:/SiliconLabs/SimplicityStudio/v4/developer/sdks/gecko_sdk_suite/v1.0//protocol/bluetooth_2.3/lib/EFR32BG1P/EABI/binstack.o
 .bss           0x00000000        0x0 C:/SiliconLabs/SimplicityStudio/v4/developer/sdks/gecko_sdk_suite/v1.0//protocol/bluetooth_2.3/lib/EFR32BG1P/EABI/binstack.o
 .text          0x00000000        0x0 C:/SiliconLabs/SimplicityStudio/v4/developer/sdks/gecko_sdk_suite/v1.0//protocol/bluetooth_2.3/lib/EFR32BG1P/EABI/binbootloader.o
 .data          0x00000000        0x0 C:/SiliconLabs/SimplicityStudio/v4/developer/sdks/gecko_sdk_suite/v1.0//protocol/bluetooth_2.3/lib/EFR32BG1P/EABI/binbootloader.o
 .bss           0x00000000        0x0 C:/SiliconLabs/SimplicityStudio/v4/developer/sdks/gecko_sdk_suite/v1.0//protocol/bluetooth_2.3/lib/EFR32BG1P/EABI/binbootloader.o
 .data          0x00000000        0x0 c:/siliconlabs/simplicitystudio/v4/developer/toolchains/gnu_arm/4.9_2015q3/bin/../lib/gcc/arm-none-eabi/4.9.3/armv7e-m/softfp\libgcc.a(_arm_addsubdf3.o)
 .bss           0x00000000        0x0 c:/siliconlabs/simplicitystudio/v4/developer/toolchains/gnu_arm/4.9_2015q3/bin/../lib/gcc/arm-none-eabi/4.9.3/armv7e-m/softfp\libgcc.a(_arm_addsubdf3.o)
 .data          0x00000000        0x0 c:/siliconlabs/simplicitystudio/v4/developer/toolchains/gnu_arm/4.9_2015q3/bin/../lib/gcc/arm-none-eabi/4.9.3/armv7e-m/softfp\libgcc.a(_arm_muldivdf3.o)
 .bss           0x00000000        0x0 c:/siliconlabs/simplicitystudio/v4/developer/toolchains/gnu_arm/4.9_2015q3/bin/../lib/gcc/arm-none-eabi/4.9.3/armv7e-m/softfp\libgcc.a(_arm_muldivdf3.o)
 .text          0x00000000       0xa0 c:/siliconlabs/simplicitystudio/v4/developer/toolchains/gnu_arm/4.9_2015q3/bin/../lib/gcc/arm-none-eabi/4.9.3/armv7e-m/softfp\libgcc.a(_arm_truncdfsf2.o)
 .data          0x00000000        0x0 c:/siliconlabs/simplicitystudio/v4/developer/toolchains/gnu_arm/4.9_2015q3/bin/../lib/gcc/arm-none-eabi/4.9.3/armv7e-m/softfp\libgcc.a(_arm_truncdfsf2.o)
 .bss           0x00000000        0x0 c:/siliconlabs/simplicitystudio/v4/developer/toolchains/gnu_arm/4.9_2015q3/bin/../lib/gcc/arm-none-eabi/4.9.3/armv7e-m/softfp\libgcc.a(_arm_truncdfsf2.o)
 .ARM.attributes
                0x00000000       0x22 c:/siliconlabs/simplicitystudio/v4/developer/toolchains/gnu_arm/4.9_2015q3/bin/../lib/gcc/arm-none-eabi/4.9.3/armv7e-m/softfp\libgcc.a(_arm_truncdfsf2.o)
 .data          0x00000000        0x0 c:/siliconlabs/simplicitystudio/v4/developer/toolchains/gnu_arm/4.9_2015q3/bin/../lib/gcc/arm-none-eabi/4.9.3/armv7e-m/softfp\libgcc.a(_aeabi_uldivmod.o)
 .bss           0x00000000        0x0 c:/siliconlabs/simplicitystudio/v4/developer/toolchains/gnu_arm/4.9_2015q3/bin/../lib/gcc/arm-none-eabi/4.9.3/armv7e-m/softfp\libgcc.a(_aeabi_uldivmod.o)
 .data          0x00000000        0x0 c:/siliconlabs/simplicitystudio/v4/developer/toolchains/gnu_arm/4.9_2015q3/bin/../lib/gcc/arm-none-eabi/4.9.3/armv7e-m/softfp\libgcc.a(bpabi.o)
 .bss           0x00000000        0x0 c:/siliconlabs/simplicitystudio/v4/developer/toolchains/gnu_arm/4.9_2015q3/bin/../lib/gcc/arm-none-eabi/4.9.3/armv7e-m/softfp\libgcc.a(bpabi.o)
 .data          0x00000000        0x0 c:/siliconlabs/simplicitystudio/v4/developer/toolchains/gnu_arm/4.9_2015q3/bin/../lib/gcc/arm-none-eabi/4.9.3/armv7e-m/softfp\libgcc.a(_dvmd_tls.o)
 .bss           0x00000000        0x0 c:/siliconlabs/simplicitystudio/v4/developer/toolchains/gnu_arm/4.9_2015q3/bin/../lib/gcc/arm-none-eabi/4.9.3/armv7e-m/softfp\libgcc.a(_dvmd_tls.o)
 .data          0x00000000        0x0 c:/siliconlabs/simplicitystudio/v4/developer/toolchains/gnu_arm/4.9_2015q3/bin/../lib/gcc/arm-none-eabi/4.9.3/armv7e-m/softfp\libgcc.a(_divdi3.o)
 .bss           0x00000000        0x0 c:/siliconlabs/simplicitystudio/v4/developer/toolchains/gnu_arm/4.9_2015q3/bin/../lib/gcc/arm-none-eabi/4.9.3/armv7e-m/softfp\libgcc.a(_divdi3.o)
 .ARM.extab     0x00000000        0x0 c:/siliconlabs/simplicitystudio/v4/developer/toolchains/gnu_arm/4.9_2015q3/bin/../lib/gcc/arm-none-eabi/4.9.3/armv7e-m/softfp\libgcc.a(_divdi3.o)
 .data          0x00000000        0x0 c:/siliconlabs/simplicitystudio/v4/developer/toolchains/gnu_arm/4.9_2015q3/bin/../lib/gcc/arm-none-eabi/4.9.3/armv7e-m/softfp\libgcc.a(_udivdi3.o)
 .bss           0x00000000        0x0 c:/siliconlabs/simplicitystudio/v4/developer/toolchains/gnu_arm/4.9_2015q3/bin/../lib/gcc/arm-none-eabi/4.9.3/armv7e-m/softfp\libgcc.a(_udivdi3.o)
 .ARM.extab     0x00000000        0x0 c:/siliconlabs/simplicitystudio/v4/developer/toolchains/gnu_arm/4.9_2015q3/bin/../lib/gcc/arm-none-eabi/4.9.3/armv7e-m/softfp\libgcc.a(_udivdi3.o)
 .text          0x00000000        0x0 c:/siliconlabs/simplicitystudio/v4/developer/toolchains/gnu_arm/4.9_2015q3/bin/../lib/gcc/arm-none-eabi/4.9.3/../../../../arm-none-eabi/lib/armv7e-m/softfp\libc.a(lib_a-exit.o)
 .data          0x00000000        0x0 c:/siliconlabs/simplicitystudio/v4/developer/toolchains/gnu_arm/4.9_2015q3/bin/../lib/gcc/arm-none-eabi/4.9.3/../../../../arm-none-eabi/lib/armv7e-m/softfp\libc.a(lib_a-exit.o)
 .bss           0x00000000        0x0 c:/siliconlabs/simplicitystudio/v4/developer/toolchains/gnu_arm/4.9_2015q3/bin/../lib/gcc/arm-none-eabi/4.9.3/../../../../arm-none-eabi/lib/armv7e-m/softfp\libc.a(lib_a-exit.o)
 .text          0x00000000        0x0 c:/siliconlabs/simplicitystudio/v4/developer/toolchains/gnu_arm/4.9_2015q3/bin/../lib/gcc/arm-none-eabi/4.9.3/../../../../arm-none-eabi/lib/armv7e-m/softfp\libc.a(lib_a-impure.o)
 .data          0x00000000        0x0 c:/siliconlabs/simplicitystudio/v4/developer/toolchains/gnu_arm/4.9_2015q3/bin/../lib/gcc/arm-none-eabi/4.9.3/../../../../arm-none-eabi/lib/armv7e-m/softfp\libc.a(lib_a-impure.o)
 .bss           0x00000000        0x0 c:/siliconlabs/simplicitystudio/v4/developer/toolchains/gnu_arm/4.9_2015q3/bin/../lib/gcc/arm-none-eabi/4.9.3/../../../../arm-none-eabi/lib/armv7e-m/softfp\libc.a(lib_a-impure.o)
 .text          0x00000000        0x0 c:/siliconlabs/simplicitystudio/v4/developer/toolchains/gnu_arm/4.9_2015q3/bin/../lib/gcc/arm-none-eabi/4.9.3/../../../../arm-none-eabi/lib/armv7e-m/softfp\libc.a(lib_a-init.o)
 .data          0x00000000        0x0 c:/siliconlabs/simplicitystudio/v4/developer/toolchains/gnu_arm/4.9_2015q3/bin/../lib/gcc/arm-none-eabi/4.9.3/../../../../arm-none-eabi/lib/armv7e-m/softfp\libc.a(lib_a-init.o)
 .bss           0x00000000        0x0 c:/siliconlabs/simplicitystudio/v4/developer/toolchains/gnu_arm/4.9_2015q3/bin/../lib/gcc/arm-none-eabi/4.9.3/../../../../arm-none-eabi/lib/armv7e-m/softfp\libc.a(lib_a-init.o)
 .text          0x00000000        0x0 c:/siliconlabs/simplicitystudio/v4/developer/toolchains/gnu_arm/4.9_2015q3/bin/../lib/gcc/arm-none-eabi/4.9.3/../../../../arm-none-eabi/lib/armv7e-m/softfp\libc.a(lib_a-memcmp.o)
 .data          0x00000000        0x0 c:/siliconlabs/simplicitystudio/v4/developer/toolchains/gnu_arm/4.9_2015q3/bin/../lib/gcc/arm-none-eabi/4.9.3/../../../../arm-none-eabi/lib/armv7e-m/softfp\libc.a(lib_a-memcmp.o)
 .bss           0x00000000        0x0 c:/siliconlabs/simplicitystudio/v4/developer/toolchains/gnu_arm/4.9_2015q3/bin/../lib/gcc/arm-none-eabi/4.9.3/../../../../arm-none-eabi/lib/armv7e-m/softfp\libc.a(lib_a-memcmp.o)
 .data          0x00000000        0x0 c:/siliconlabs/simplicitystudio/v4/developer/toolchains/gnu_arm/4.9_2015q3/bin/../lib/gcc/arm-none-eabi/4.9.3/../../../../arm-none-eabi/lib/armv7e-m/softfp\libc.a(lib_a-memcpy.o)
 .bss           0x00000000        0x0 c:/siliconlabs/simplicitystudio/v4/developer/toolchains/gnu_arm/4.9_2015q3/bin/../lib/gcc/arm-none-eabi/4.9.3/../../../../arm-none-eabi/lib/armv7e-m/softfp\libc.a(lib_a-memcpy.o)
 .text          0x00000000        0x0 c:/siliconlabs/simplicitystudio/v4/developer/toolchains/gnu_arm/4.9_2015q3/bin/../lib/gcc/arm-none-eabi/4.9.3/../../../../arm-none-eabi/lib/armv7e-m/softfp\libc.a(lib_a-memset.o)
 .data          0x00000000        0x0 c:/siliconlabs/simplicitystudio/v4/developer/toolchains/gnu_arm/4.9_2015q3/bin/../lib/gcc/arm-none-eabi/4.9.3/../../../../arm-none-eabi/lib/armv7e-m/softfp\libc.a(lib_a-memset.o)
 .bss           0x00000000        0x0 c:/siliconlabs/simplicitystudio/v4/developer/toolchains/gnu_arm/4.9_2015q3/bin/../lib/gcc/arm-none-eabi/4.9.3/../../../../arm-none-eabi/lib/armv7e-m/softfp\libc.a(lib_a-memset.o)
 .text          0x00000000        0x0 c:/siliconlabs/simplicitystudio/v4/developer/toolchains/gnu_arm/4.9_2015q3/bin/../lib/gcc/arm-none-eabi/4.9.3/../../../../arm-none-eabi/lib/armv7e-m/softfp\libc.a(lib_a-snprintf.o)
 .data          0x00000000        0x0 c:/siliconlabs/simplicitystudio/v4/developer/toolchains/gnu_arm/4.9_2015q3/bin/../lib/gcc/arm-none-eabi/4.9.3/../../../../arm-none-eabi/lib/armv7e-m/softfp\libc.a(lib_a-snprintf.o)
 .bss           0x00000000        0x0 c:/siliconlabs/simplicitystudio/v4/developer/toolchains/gnu_arm/4.9_2015q3/bin/../lib/gcc/arm-none-eabi/4.9.3/../../../../arm-none-eabi/lib/armv7e-m/softfp\libc.a(lib_a-snprintf.o)
 .text._snprintf_r
                0x00000000       0x90 c:/siliconlabs/simplicitystudio/v4/developer/toolchains/gnu_arm/4.9_2015q3/bin/../lib/gcc/arm-none-eabi/4.9.3/../../../../arm-none-eabi/lib/armv7e-m/softfp\libc.a(lib_a-snprintf.o)
 .text          0x00000000        0x0 c:/siliconlabs/simplicitystudio/v4/developer/toolchains/gnu_arm/4.9_2015q3/bin/../lib/gcc/arm-none-eabi/4.9.3/../../../../arm-none-eabi/lib/armv7e-m/softfp\libc.a(lib_a-strlen.o)
 .data          0x00000000        0x0 c:/siliconlabs/simplicitystudio/v4/developer/toolchains/gnu_arm/4.9_2015q3/bin/../lib/gcc/arm-none-eabi/4.9.3/../../../../arm-none-eabi/lib/armv7e-m/softfp\libc.a(lib_a-strlen.o)
 .bss           0x00000000        0x0 c:/siliconlabs/simplicitystudio/v4/developer/toolchains/gnu_arm/4.9_2015q3/bin/../lib/gcc/arm-none-eabi/4.9.3/../../../../arm-none-eabi/lib/armv7e-m/softfp\libc.a(lib_a-strlen.o)
 .text          0x00000000        0x0 c:/siliconlabs/simplicitystudio/v4/developer/toolchains/gnu_arm/4.9_2015q3/bin/../lib/gcc/arm-none-eabi/4.9.3/../../../../arm-none-eabi/lib/armv7e-m/softfp\libc.a(lib_a-svfprintf.o)
 .data          0x00000000        0x0 c:/siliconlabs/simplicitystudio/v4/developer/toolchains/gnu_arm/4.9_2015q3/bin/../lib/gcc/arm-none-eabi/4.9.3/../../../../arm-none-eabi/lib/armv7e-m/softfp\libc.a(lib_a-svfprintf.o)
 .bss           0x00000000        0x0 c:/siliconlabs/simplicitystudio/v4/developer/toolchains/gnu_arm/4.9_2015q3/bin/../lib/gcc/arm-none-eabi/4.9.3/../../../../arm-none-eabi/lib/armv7e-m/softfp\libc.a(lib_a-svfprintf.o)
 .text          0x00000000        0x0 c:/siliconlabs/simplicitystudio/v4/developer/toolchains/gnu_arm/4.9_2015q3/bin/../lib/gcc/arm-none-eabi/4.9.3/../../../../arm-none-eabi/lib/armv7e-m/softfp\libc.a(lib_a-__call_atexit.o)
 .data          0x00000000        0x0 c:/siliconlabs/simplicitystudio/v4/developer/toolchains/gnu_arm/4.9_2015q3/bin/../lib/gcc/arm-none-eabi/4.9.3/../../../../arm-none-eabi/lib/armv7e-m/softfp\libc.a(lib_a-__call_atexit.o)
 .bss           0x00000000        0x0 c:/siliconlabs/simplicitystudio/v4/developer/toolchains/gnu_arm/4.9_2015q3/bin/../lib/gcc/arm-none-eabi/4.9.3/../../../../arm-none-eabi/lib/armv7e-m/softfp\libc.a(lib_a-__call_atexit.o)
 .text          0x00000000        0x0 c:/siliconlabs/simplicitystudio/v4/developer/toolchains/gnu_arm/4.9_2015q3/bin/../lib/gcc/arm-none-eabi/4.9.3/../../../../arm-none-eabi/lib/armv7e-m/softfp\libc.a(lib_a-atexit.o)
 .data          0x00000000        0x0 c:/siliconlabs/simplicitystudio/v4/developer/toolchains/gnu_arm/4.9_2015q3/bin/../lib/gcc/arm-none-eabi/4.9.3/../../../../arm-none-eabi/lib/armv7e-m/softfp\libc.a(lib_a-atexit.o)
 .bss           0x00000000        0x0 c:/siliconlabs/simplicitystudio/v4/developer/toolchains/gnu_arm/4.9_2015q3/bin/../lib/gcc/arm-none-eabi/4.9.3/../../../../arm-none-eabi/lib/armv7e-m/softfp\libc.a(lib_a-atexit.o)
 .text          0x00000000        0x0 c:/siliconlabs/simplicitystudio/v4/developer/toolchains/gnu_arm/4.9_2015q3/bin/../lib/gcc/arm-none-eabi/4.9.3/../../../../arm-none-eabi/lib/armv7e-m/softfp\libc.a(lib_a-dtoa.o)
 .data          0x00000000        0x0 c:/siliconlabs/simplicitystudio/v4/developer/toolchains/gnu_arm/4.9_2015q3/bin/../lib/gcc/arm-none-eabi/4.9.3/../../../../arm-none-eabi/lib/armv7e-m/softfp\libc.a(lib_a-dtoa.o)
 .bss           0x00000000        0x0 c:/siliconlabs/simplicitystudio/v4/developer/toolchains/gnu_arm/4.9_2015q3/bin/../lib/gcc/arm-none-eabi/4.9.3/../../../../arm-none-eabi/lib/armv7e-m/softfp\libc.a(lib_a-dtoa.o)
 .text          0x00000000        0x0 c:/siliconlabs/simplicitystudio/v4/developer/toolchains/gnu_arm/4.9_2015q3/bin/../lib/gcc/arm-none-eabi/4.9.3/../../../../arm-none-eabi/lib/armv7e-m/softfp\libc.a(lib_a-fini.o)
 .data          0x00000000        0x0 c:/siliconlabs/simplicitystudio/v4/developer/toolchains/gnu_arm/4.9_2015q3/bin/../lib/gcc/arm-none-eabi/4.9.3/../../../../arm-none-eabi/lib/armv7e-m/softfp\libc.a(lib_a-fini.o)
 .bss           0x00000000        0x0 c:/siliconlabs/simplicitystudio/v4/developer/toolchains/gnu_arm/4.9_2015q3/bin/../lib/gcc/arm-none-eabi/4.9.3/../../../../arm-none-eabi/lib/armv7e-m/softfp\libc.a(lib_a-fini.o)
 .text          0x00000000        0x0 c:/siliconlabs/simplicitystudio/v4/developer/toolchains/gnu_arm/4.9_2015q3/bin/../lib/gcc/arm-none-eabi/4.9.3/../../../../arm-none-eabi/lib/armv7e-m/softfp\libc.a(lib_a-locale.o)
 .data          0x00000000        0x0 c:/siliconlabs/simplicitystudio/v4/developer/toolchains/gnu_arm/4.9_2015q3/bin/../lib/gcc/arm-none-eabi/4.9.3/../../../../arm-none-eabi/lib/armv7e-m/softfp\libc.a(lib_a-locale.o)
 .bss           0x00000000        0x0 c:/siliconlabs/simplicitystudio/v4/developer/toolchains/gnu_arm/4.9_2015q3/bin/../lib/gcc/arm-none-eabi/4.9.3/../../../../arm-none-eabi/lib/armv7e-m/softfp\libc.a(lib_a-locale.o)
 .text._setlocale_r
                0x00000000       0x44 c:/siliconlabs/simplicitystudio/v4/developer/toolchains/gnu_arm/4.9_2015q3/bin/../lib/gcc/arm-none-eabi/4.9.3/../../../../arm-none-eabi/lib/armv7e-m/softfp\libc.a(lib_a-locale.o)
 .text.__locale_charset
                0x00000000        0x8 c:/siliconlabs/simplicitystudio/v4/developer/toolchains/gnu_arm/4.9_2015q3/bin/../lib/gcc/arm-none-eabi/4.9.3/../../../../arm-none-eabi/lib/armv7e-m/softfp\libc.a(lib_a-locale.o)
 .text.__locale_mb_cur_max
                0x00000000        0xc c:/siliconlabs/simplicitystudio/v4/developer/toolchains/gnu_arm/4.9_2015q3/bin/../lib/gcc/arm-none-eabi/4.9.3/../../../../arm-none-eabi/lib/armv7e-m/softfp\libc.a(lib_a-locale.o)
 .text.__locale_msgcharset
                0x00000000        0x8 c:/siliconlabs/simplicitystudio/v4/developer/toolchains/gnu_arm/4.9_2015q3/bin/../lib/gcc/arm-none-eabi/4.9.3/../../../../arm-none-eabi/lib/armv7e-m/softfp\libc.a(lib_a-locale.o)
 .text.__locale_cjk_lang
                0x00000000        0x4 c:/siliconlabs/simplicitystudio/v4/developer/toolchains/gnu_arm/4.9_2015q3/bin/../lib/gcc/arm-none-eabi/4.9.3/../../../../arm-none-eabi/lib/armv7e-m/softfp\libc.a(lib_a-locale.o)
 .text.setlocale
                0x00000000       0x10 c:/siliconlabs/simplicitystudio/v4/developer/toolchains/gnu_arm/4.9_2015q3/bin/../lib/gcc/arm-none-eabi/4.9.3/../../../../arm-none-eabi/lib/armv7e-m/softfp\libc.a(lib_a-locale.o)
 .text.localeconv
                0x00000000        0x8 c:/siliconlabs/simplicitystudio/v4/developer/toolchains/gnu_arm/4.9_2015q3/bin/../lib/gcc/arm-none-eabi/4.9.3/../../../../arm-none-eabi/lib/armv7e-m/softfp\libc.a(lib_a-locale.o)
 .data.lc_message_charset
                0x00000000       0x20 c:/siliconlabs/simplicitystudio/v4/developer/toolchains/gnu_arm/4.9_2015q3/bin/../lib/gcc/arm-none-eabi/4.9.3/../../../../arm-none-eabi/lib/armv7e-m/softfp\libc.a(lib_a-locale.o)
 .bss._PathLocale
                0x00000000        0x4 c:/siliconlabs/simplicitystudio/v4/developer/toolchains/gnu_arm/4.9_2015q3/bin/../lib/gcc/arm-none-eabi/4.9.3/../../../../arm-none-eabi/lib/armv7e-m/softfp\libc.a(lib_a-locale.o)
 .bss.__nlocale_changed
                0x00000000        0x4 c:/siliconlabs/simplicitystudio/v4/developer/toolchains/gnu_arm/4.9_2015q3/bin/../lib/gcc/arm-none-eabi/4.9.3/../../../../arm-none-eabi/lib/armv7e-m/softfp\libc.a(lib_a-locale.o)
 .bss.__mlocale_changed
                0x00000000        0x4 c:/siliconlabs/simplicitystudio/v4/developer/toolchains/gnu_arm/4.9_2015q3/bin/../lib/gcc/arm-none-eabi/4.9.3/../../../../arm-none-eabi/lib/armv7e-m/softfp\libc.a(lib_a-locale.o)
 .data.lc_ctype_charset
                0x00000000       0x20 c:/siliconlabs/simplicitystudio/v4/developer/toolchains/gnu_arm/4.9_2015q3/bin/../lib/gcc/arm-none-eabi/4.9.3/../../../../arm-none-eabi/lib/armv7e-m/softfp\libc.a(lib_a-locale.o)
 .data.__mb_cur_max
                0x00000000        0x4 c:/siliconlabs/simplicitystudio/v4/developer/toolchains/gnu_arm/4.9_2015q3/bin/../lib/gcc/arm-none-eabi/4.9.3/../../../../arm-none-eabi/lib/armv7e-m/softfp\libc.a(lib_a-locale.o)
 .text          0x00000000        0x0 c:/siliconlabs/simplicitystudio/v4/developer/toolchains/gnu_arm/4.9_2015q3/bin/../lib/gcc/arm-none-eabi/4.9.3/../../../../arm-none-eabi/lib/armv7e-m/softfp\libc.a(lib_a-mallocr.o)
 .data          0x00000000        0x0 c:/siliconlabs/simplicitystudio/v4/developer/toolchains/gnu_arm/4.9_2015q3/bin/../lib/gcc/arm-none-eabi/4.9.3/../../../../arm-none-eabi/lib/armv7e-m/softfp\libc.a(lib_a-mallocr.o)
 .bss           0x00000000        0x0 c:/siliconlabs/simplicitystudio/v4/developer/toolchains/gnu_arm/4.9_2015q3/bin/../lib/gcc/arm-none-eabi/4.9.3/../../../../arm-none-eabi/lib/armv7e-m/softfp\libc.a(lib_a-mallocr.o)
 .text          0x00000000        0x0 c:/siliconlabs/simplicitystudio/v4/developer/toolchains/gnu_arm/4.9_2015q3/bin/../lib/gcc/arm-none-eabi/4.9.3/../../../../arm-none-eabi/lib/armv7e-m/softfp\libc.a(lib_a-memchr.o)
 .data          0x00000000        0x0 c:/siliconlabs/simplicitystudio/v4/developer/toolchains/gnu_arm/4.9_2015q3/bin/../lib/gcc/arm-none-eabi/4.9.3/../../../../arm-none-eabi/lib/armv7e-m/softfp\libc.a(lib_a-memchr.o)
 .bss           0x00000000        0x0 c:/siliconlabs/simplicitystudio/v4/developer/toolchains/gnu_arm/4.9_2015q3/bin/../lib/gcc/arm-none-eabi/4.9.3/../../../../arm-none-eabi/lib/armv7e-m/softfp\libc.a(lib_a-memchr.o)
 .text          0x00000000        0x0 c:/siliconlabs/simplicitystudio/v4/developer/toolchains/gnu_arm/4.9_2015q3/bin/../lib/gcc/arm-none-eabi/4.9.3/../../../../arm-none-eabi/lib/armv7e-m/softfp\libc.a(lib_a-mlock.o)
 .data          0x00000000        0x0 c:/siliconlabs/simplicitystudio/v4/developer/toolchains/gnu_arm/4.9_2015q3/bin/../lib/gcc/arm-none-eabi/4.9.3/../../../../arm-none-eabi/lib/armv7e-m/softfp\libc.a(lib_a-mlock.o)
 .bss           0x00000000        0x0 c:/siliconlabs/simplicitystudio/v4/developer/toolchains/gnu_arm/4.9_2015q3/bin/../lib/gcc/arm-none-eabi/4.9.3/../../../../arm-none-eabi/lib/armv7e-m/softfp\libc.a(lib_a-mlock.o)
 .text          0x00000000        0x0 c:/siliconlabs/simplicitystudio/v4/developer/toolchains/gnu_arm/4.9_2015q3/bin/../lib/gcc/arm-none-eabi/4.9.3/../../../../arm-none-eabi/lib/armv7e-m/softfp\libc.a(lib_a-mprec.o)
 .data          0x00000000        0x0 c:/siliconlabs/simplicitystudio/v4/developer/toolchains/gnu_arm/4.9_2015q3/bin/../lib/gcc/arm-none-eabi/4.9.3/../../../../arm-none-eabi/lib/armv7e-m/softfp\libc.a(lib_a-mprec.o)
 .bss           0x00000000        0x0 c:/siliconlabs/simplicitystudio/v4/developer/toolchains/gnu_arm/4.9_2015q3/bin/../lib/gcc/arm-none-eabi/4.9.3/../../../../arm-none-eabi/lib/armv7e-m/softfp\libc.a(lib_a-mprec.o)
 .text.__s2b    0x00000000       0x98 c:/siliconlabs/simplicitystudio/v4/developer/toolchains/gnu_arm/4.9_2015q3/bin/../lib/gcc/arm-none-eabi/4.9.3/../../../../arm-none-eabi/lib/armv7e-m/softfp\libc.a(lib_a-mprec.o)
 .text.__ulp    0x00000000       0x40 c:/siliconlabs/simplicitystudio/v4/developer/toolchains/gnu_arm/4.9_2015q3/bin/../lib/gcc/arm-none-eabi/4.9.3/../../../../arm-none-eabi/lib/armv7e-m/softfp\libc.a(lib_a-mprec.o)
 .text.__b2d    0x00000000       0xc4 c:/siliconlabs/simplicitystudio/v4/developer/toolchains/gnu_arm/4.9_2015q3/bin/../lib/gcc/arm-none-eabi/4.9.3/../../../../arm-none-eabi/lib/armv7e-m/softfp\libc.a(lib_a-mprec.o)
 .text.__ratio  0x00000000       0x58 c:/siliconlabs/simplicitystudio/v4/developer/toolchains/gnu_arm/4.9_2015q3/bin/../lib/gcc/arm-none-eabi/4.9.3/../../../../arm-none-eabi/lib/armv7e-m/softfp\libc.a(lib_a-mprec.o)
 .text._mprec_log10
                0x00000000       0x34 c:/siliconlabs/simplicitystudio/v4/developer/toolchains/gnu_arm/4.9_2015q3/bin/../lib/gcc/arm-none-eabi/4.9.3/../../../../arm-none-eabi/lib/armv7e-m/softfp\libc.a(lib_a-mprec.o)
 .text.__copybits
                0x00000000       0x48 c:/siliconlabs/simplicitystudio/v4/developer/toolchains/gnu_arm/4.9_2015q3/bin/../lib/gcc/arm-none-eabi/4.9.3/../../../../arm-none-eabi/lib/armv7e-m/softfp\libc.a(lib_a-mprec.o)
 .text.__any_on
                0x00000000       0x60 c:/siliconlabs/simplicitystudio/v4/developer/toolchains/gnu_arm/4.9_2015q3/bin/../lib/gcc/arm-none-eabi/4.9.3/../../../../arm-none-eabi/lib/armv7e-m/softfp\libc.a(lib_a-mprec.o)
 .rodata.__mprec_tinytens
                0x00000000       0x28 c:/siliconlabs/simplicitystudio/v4/developer/toolchains/gnu_arm/4.9_2015q3/bin/../lib/gcc/arm-none-eabi/4.9.3/../../../../arm-none-eabi/lib/armv7e-m/softfp\libc.a(lib_a-mprec.o)
 .text          0x00000000        0x0 c:/siliconlabs/simplicitystudio/v4/developer/toolchains/gnu_arm/4.9_2015q3/bin/../lib/gcc/arm-none-eabi/4.9.3/../../../../arm-none-eabi/lib/armv7e-m/softfp\libc.a(lib_a-s_fpclassify.o)
 .data          0x00000000        0x0 c:/siliconlabs/simplicitystudio/v4/developer/toolchains/gnu_arm/4.9_2015q3/bin/../lib/gcc/arm-none-eabi/4.9.3/../../../../arm-none-eabi/lib/armv7e-m/softfp\libc.a(lib_a-s_fpclassify.o)
 .bss           0x00000000        0x0 c:/siliconlabs/simplicitystudio/v4/developer/toolchains/gnu_arm/4.9_2015q3/bin/../lib/gcc/arm-none-eabi/4.9.3/../../../../arm-none-eabi/lib/armv7e-m/softfp\libc.a(lib_a-s_fpclassify.o)
 .text          0x00000000        0x0 c:/siliconlabs/simplicitystudio/v4/developer/toolchains/gnu_arm/4.9_2015q3/bin/../lib/gcc/arm-none-eabi/4.9.3/../../../../arm-none-eabi/lib/armv7e-m/softfp\libc.a(lib_a-sbrkr.o)
 .data          0x00000000        0x0 c:/siliconlabs/simplicitystudio/v4/developer/toolchains/gnu_arm/4.9_2015q3/bin/../lib/gcc/arm-none-eabi/4.9.3/../../../../arm-none-eabi/lib/armv7e-m/softfp\libc.a(lib_a-sbrkr.o)
 .bss           0x00000000        0x0 c:/siliconlabs/simplicitystudio/v4/developer/toolchains/gnu_arm/4.9_2015q3/bin/../lib/gcc/arm-none-eabi/4.9.3/../../../../arm-none-eabi/lib/armv7e-m/softfp\libc.a(lib_a-sbrkr.o)
 .text          0x00000000      0x2dc c:/siliconlabs/simplicitystudio/v4/developer/toolchains/gnu_arm/4.9_2015q3/bin/../lib/gcc/arm-none-eabi/4.9.3/../../../../arm-none-eabi/lib/armv7e-m/softfp\libc.a(lib_a-strcmp.o)
 .data          0x00000000        0x0 c:/siliconlabs/simplicitystudio/v4/developer/toolchains/gnu_arm/4.9_2015q3/bin/../lib/gcc/arm-none-eabi/4.9.3/../../../../arm-none-eabi/lib/armv7e-m/softfp\libc.a(lib_a-strcmp.o)
 .bss           0x00000000        0x0 c:/siliconlabs/simplicitystudio/v4/developer/toolchains/gnu_arm/4.9_2015q3/bin/../lib/gcc/arm-none-eabi/4.9.3/../../../../arm-none-eabi/lib/armv7e-m/softfp\libc.a(lib_a-strcmp.o)
 .text          0x00000000        0x0 c:/siliconlabs/simplicitystudio/v4/developer/toolchains/gnu_arm/4.9_2015q3/bin/../lib/gcc/arm-none-eabi/4.9.3/../../../../arm-none-eabi/lib/armv7e-m/softfp\libc.a(lib_a-svfiprintf.o)
 .data          0x00000000        0x0 c:/siliconlabs/simplicitystudio/v4/developer/toolchains/gnu_arm/4.9_2015q3/bin/../lib/gcc/arm-none-eabi/4.9.3/../../../../arm-none-eabi/lib/armv7e-m/softfp\libc.a(lib_a-svfiprintf.o)
 .bss           0x00000000        0x0 c:/siliconlabs/simplicitystudio/v4/developer/toolchains/gnu_arm/4.9_2015q3/bin/../lib/gcc/arm-none-eabi/4.9.3/../../../../arm-none-eabi/lib/armv7e-m/softfp\libc.a(lib_a-svfiprintf.o)
 .text._svfiprintf_r
                0x00000000      0xaa0 c:/siliconlabs/simplicitystudio/v4/developer/toolchains/gnu_arm/4.9_2015q3/bin/../lib/gcc/arm-none-eabi/4.9.3/../../../../arm-none-eabi/lib/armv7e-m/softfp\libc.a(lib_a-svfiprintf.o)
 .rodata.blanks.6854
                0x00000000       0x10 c:/siliconlabs/simplicitystudio/v4/developer/toolchains/gnu_arm/4.9_2015q3/bin/../lib/gcc/arm-none-eabi/4.9.3/../../../../arm-none-eabi/lib/armv7e-m/softfp\libc.a(lib_a-svfiprintf.o)
 .rodata.str1.4
                0x00000000       0x2f c:/siliconlabs/simplicitystudio/v4/developer/toolchains/gnu_arm/4.9_2015q3/bin/../lib/gcc/arm-none-eabi/4.9.3/../../../../arm-none-eabi/lib/armv7e-m/softfp\libc.a(lib_a-svfiprintf.o)
 .rodata.zeroes.6855
                0x00000000       0x10 c:/siliconlabs/simplicitystudio/v4/developer/toolchains/gnu_arm/4.9_2015q3/bin/../lib/gcc/arm-none-eabi/4.9.3/../../../../arm-none-eabi/lib/armv7e-m/softfp\libc.a(lib_a-svfiprintf.o)
 .text          0x00000000        0x0 c:/siliconlabs/simplicitystudio/v4/developer/toolchains/gnu_arm/4.9_2015q3/bin/../lib/gcc/arm-none-eabi/4.9.3/../../../../arm-none-eabi/lib/armv7e-m/softfp\libc.a(lib_a-__atexit.o)
 .data          0x00000000        0x0 c:/siliconlabs/simplicitystudio/v4/developer/toolchains/gnu_arm/4.9_2015q3/bin/../lib/gcc/arm-none-eabi/4.9.3/../../../../arm-none-eabi/lib/armv7e-m/softfp\libc.a(lib_a-__atexit.o)
 .bss           0x00000000        0x0 c:/siliconlabs/simplicitystudio/v4/developer/toolchains/gnu_arm/4.9_2015q3/bin/../lib/gcc/arm-none-eabi/4.9.3/../../../../arm-none-eabi/lib/armv7e-m/softfp\libc.a(lib_a-__atexit.o)
 .text          0x00000000        0x0 c:/siliconlabs/simplicitystudio/v4/developer/toolchains/gnu_arm/4.9_2015q3/bin/../lib/gcc/arm-none-eabi/4.9.3/../../../../arm-none-eabi/lib/armv7e-m/softfp\libc.a(lib_a-callocr.o)
 .data          0x00000000        0x0 c:/siliconlabs/simplicitystudio/v4/developer/toolchains/gnu_arm/4.9_2015q3/bin/../lib/gcc/arm-none-eabi/4.9.3/../../../../arm-none-eabi/lib/armv7e-m/softfp\libc.a(lib_a-callocr.o)
 .bss           0x00000000        0x0 c:/siliconlabs/simplicitystudio/v4/developer/toolchains/gnu_arm/4.9_2015q3/bin/../lib/gcc/arm-none-eabi/4.9.3/../../../../arm-none-eabi/lib/armv7e-m/softfp\libc.a(lib_a-callocr.o)
 .text          0x00000000        0x0 c:/siliconlabs/simplicitystudio/v4/developer/toolchains/gnu_arm/4.9_2015q3/bin/../lib/gcc/arm-none-eabi/4.9.3/../../../../arm-none-eabi/lib/armv7e-m/softfp\libc.a(lib_a-freer.o)
 .data          0x00000000        0x0 c:/siliconlabs/simplicitystudio/v4/developer/toolchains/gnu_arm/4.9_2015q3/bin/../lib/gcc/arm-none-eabi/4.9.3/../../../../arm-none-eabi/lib/armv7e-m/softfp\libc.a(lib_a-freer.o)
 .bss           0x00000000        0x0 c:/siliconlabs/simplicitystudio/v4/developer/toolchains/gnu_arm/4.9_2015q3/bin/../lib/gcc/arm-none-eabi/4.9.3/../../../../arm-none-eabi/lib/armv7e-m/softfp\libc.a(lib_a-freer.o)
 .text          0x00000000        0x0 c:/siliconlabs/simplicitystudio/v4/developer/toolchains/gnu_arm/4.9_2015q3/bin/../lib/gcc/arm-none-eabi/4.9.3/../../../../arm-none-eabi/lib/armv7e-m/softfp\libc.a(lib_a-memmove.o)
 .data          0x00000000        0x0 c:/siliconlabs/simplicitystudio/v4/developer/toolchains/gnu_arm/4.9_2015q3/bin/../lib/gcc/arm-none-eabi/4.9.3/../../../../arm-none-eabi/lib/armv7e-m/softfp\libc.a(lib_a-memmove.o)
 .bss           0x00000000        0x0 c:/siliconlabs/simplicitystudio/v4/developer/toolchains/gnu_arm/4.9_2015q3/bin/../lib/gcc/arm-none-eabi/4.9.3/../../../../arm-none-eabi/lib/armv7e-m/softfp\libc.a(lib_a-memmove.o)
 .text          0x00000000        0x0 c:/siliconlabs/simplicitystudio/v4/developer/toolchains/gnu_arm/4.9_2015q3/bin/../lib/gcc/arm-none-eabi/4.9.3/../../../../arm-none-eabi/lib/armv7e-m/softfp\libc.a(lib_a-reallocr.o)
 .data          0x00000000        0x0 c:/siliconlabs/simplicitystudio/v4/developer/toolchains/gnu_arm/4.9_2015q3/bin/../lib/gcc/arm-none-eabi/4.9.3/../../../../arm-none-eabi/lib/armv7e-m/softfp\libc.a(lib_a-reallocr.o)
 .bss           0x00000000        0x0 c:/siliconlabs/simplicitystudio/v4/developer/toolchains/gnu_arm/4.9_2015q3/bin/../lib/gcc/arm-none-eabi/4.9.3/../../../../arm-none-eabi/lib/armv7e-m/softfp\libc.a(lib_a-reallocr.o)
 .text          0x00000000        0x0 c:/siliconlabs/simplicitystudio/v4/developer/toolchains/gnu_arm/4.9_2015q3/bin/../lib/gcc/arm-none-eabi/4.9.3/../../../../arm-none-eabi/lib/armv7e-m/softfp\libc.a(lib_a-reent.o)
 .data          0x00000000        0x0 c:/siliconlabs/simplicitystudio/v4/developer/toolchains/gnu_arm/4.9_2015q3/bin/../lib/gcc/arm-none-eabi/4.9.3/../../../../arm-none-eabi/lib/armv7e-m/softfp\libc.a(lib_a-reent.o)
 .bss           0x00000000        0x0 c:/siliconlabs/simplicitystudio/v4/developer/toolchains/gnu_arm/4.9_2015q3/bin/../lib/gcc/arm-none-eabi/4.9.3/../../../../arm-none-eabi/lib/armv7e-m/softfp\libc.a(lib_a-reent.o)
 .text.cleanup_glue
                0x00000000       0x1c c:/siliconlabs/simplicitystudio/v4/developer/toolchains/gnu_arm/4.9_2015q3/bin/../lib/gcc/arm-none-eabi/4.9.3/../../../../arm-none-eabi/lib/armv7e-m/softfp\libc.a(lib_a-reent.o)
 .text._reclaim_reent
                0x00000000       0x88 c:/siliconlabs/simplicitystudio/v4/developer/toolchains/gnu_arm/4.9_2015q3/bin/../lib/gcc/arm-none-eabi/4.9.3/../../../../arm-none-eabi/lib/armv7e-m/softfp\libc.a(lib_a-reent.o)
 .text          0x00000000        0x0 c:/siliconlabs/simplicitystudio/v4/developer/toolchains/gnu_arm/4.9_2015q3/bin/../lib/gcc/arm-none-eabi/4.9.3/../../../../arm-none-eabi/lib/armv7e-m/softfp\libnosys.a(sbrk.o)
 .data          0x00000000        0x0 c:/siliconlabs/simplicitystudio/v4/developer/toolchains/gnu_arm/4.9_2015q3/bin/../lib/gcc/arm-none-eabi/4.9.3/../../../../arm-none-eabi/lib/armv7e-m/softfp\libnosys.a(sbrk.o)
 .bss           0x00000000        0x0 c:/siliconlabs/simplicitystudio/v4/developer/toolchains/gnu_arm/4.9_2015q3/bin/../lib/gcc/arm-none-eabi/4.9.3/../../../../arm-none-eabi/lib/armv7e-m/softfp\libnosys.a(sbrk.o)
 .text          0x00000000        0x0 c:/siliconlabs/simplicitystudio/v4/developer/toolchains/gnu_arm/4.9_2015q3/bin/../lib/gcc/arm-none-eabi/4.9.3/../../../../arm-none-eabi/lib/armv7e-m/softfp\libnosys.a(_exit.o)
 .data          0x00000000        0x0 c:/siliconlabs/simplicitystudio/v4/developer/toolchains/gnu_arm/4.9_2015q3/bin/../lib/gcc/arm-none-eabi/4.9.3/../../../../arm-none-eabi/lib/armv7e-m/softfp\libnosys.a(_exit.o)
 .bss           0x00000000        0x0 c:/siliconlabs/simplicitystudio/v4/developer/toolchains/gnu_arm/4.9_2015q3/bin/../lib/gcc/arm-none-eabi/4.9.3/../../../../arm-none-eabi/lib/armv7e-m/softfp\libnosys.a(_exit.o)
 .data          0x00000000        0x0 c:/siliconlabs/simplicitystudio/v4/developer/toolchains/gnu_arm/4.9_2015q3/bin/../lib/gcc/arm-none-eabi/4.9.3/armv7e-m/softfp\libgcc.a(_arm_cmpdf2.o)
 .bss           0x00000000        0x0 c:/siliconlabs/simplicitystudio/v4/developer/toolchains/gnu_arm/4.9_2015q3/bin/../lib/gcc/arm-none-eabi/4.9.3/armv7e-m/softfp\libgcc.a(_arm_cmpdf2.o)
 .data          0x00000000        0x0 c:/siliconlabs/simplicitystudio/v4/developer/toolchains/gnu_arm/4.9_2015q3/bin/../lib/gcc/arm-none-eabi/4.9.3/armv7e-m/softfp\libgcc.a(_arm_fixdfsi.o)
 .bss           0x00000000        0x0 c:/siliconlabs/simplicitystudio/v4/developer/toolchains/gnu_arm/4.9_2015q3/bin/../lib/gcc/arm-none-eabi/4.9.3/armv7e-m/softfp\libgcc.a(_arm_fixdfsi.o)
 .text          0x00000000        0x0 c:/siliconlabs/simplicitystudio/v4/developer/toolchains/gnu_arm/4.9_2015q3/bin/../lib/gcc/arm-none-eabi/4.9.3/armv7e-m/softfp/crtend.o
 .data          0x00000000        0x0 c:/siliconlabs/simplicitystudio/v4/developer/toolchains/gnu_arm/4.9_2015q3/bin/../lib/gcc/arm-none-eabi/4.9.3/armv7e-m/softfp/crtend.o
 .bss           0x00000000        0x0 c:/siliconlabs/simplicitystudio/v4/developer/toolchains/gnu_arm/4.9_2015q3/bin/../lib/gcc/arm-none-eabi/4.9.3/armv7e-m/softfp/crtend.o
 .text          0x00000000        0x0 c:/siliconlabs/simplicitystudio/v4/developer/toolchains/gnu_arm/4.9_2015q3/bin/../lib/gcc/arm-none-eabi/4.9.3/armv7e-m/softfp/crtn.o
 .data          0x00000000        0x0 c:/siliconlabs/simplicitystudio/v4/developer/toolchains/gnu_arm/4.9_2015q3/bin/../lib/gcc/arm-none-eabi/4.9.3/armv7e-m/softfp/crtn.o
 .bss           0x00000000        0x0 c:/siliconlabs/simplicitystudio/v4/developer/toolchains/gnu_arm/4.9_2015q3/bin/../lib/gcc/arm-none-eabi/4.9.3/armv7e-m/softfp/crtn.o

Memory Configuration

Name             Origin             Length             Attributes
FLASH            0x00000000         0x0003f000         xr
RAM              0x20003000         0x00004bfc         xrw
*default*        0x00000000         0xffffffff

Linker script and memory map

LOAD c:/siliconlabs/simplicitystudio/v4/developer/toolchains/gnu_arm/4.9_2015q3/bin/../lib/gcc/arm-none-eabi/4.9.3/armv7e-m/softfp/crti.o
LOAD c:/siliconlabs/simplicitystudio/v4/developer/toolchains/gnu_arm/4.9_2015q3/bin/../lib/gcc/arm-none-eabi/4.9.3/armv7e-m/softfp/crtbegin.o
LOAD c:/siliconlabs/simplicitystudio/v4/developer/toolchains/gnu_arm/4.9_2015q3/bin/../lib/gcc/arm-none-eabi/4.9.3/../../../../arm-none-eabi/lib/armv7e-m/softfp/crt0.o
LOAD ./advertisement.o
LOAD ./app.o
LOAD ./app_hw.o
LOAD ./app_ui.o
LOAD ./application_properties.o
LOAD ./beacon.o
LOAD ./ble-callback-stubs.o
LOAD ./ble-callbacks.o
LOAD ./gatt_db.o
LOAD ./graphics.o
LOAD ./htm.o
LOAD ./ia.o
LOAD ./main.o
LOAD ./bgapi/dmadrv.o
LOAD ./bgapi/em_adc.o
LOAD ./bgapi/em_ldma.o
LOAD ./bgapi/em_leuart.o
LOAD ./device/EFR32_B_1_1_P/gcc/startup_efr32bg1p.o
LOAD ./emlib/em_cmu.o
LOAD ./emlib/em_cryotimer.o
LOAD ./emlib/em_gpio.o
LOAD ./emlib/em_i2c.o
LOAD ./emlib/em_msc.o
LOAD ./emlib/em_rtcc.o
LOAD ./emlib/em_system.o
LOAD ./emlib/em_usart.o
LOAD ./glib/BRD4100A/bmp.o
LOAD ./glib/BRD4100A/dmd_display.o
LOAD ./glib/BRD4100A/glib.o
LOAD ./glib/BRD4100A/glib_bitmap.o
LOAD ./glib/BRD4100A/glib_circle.o
LOAD ./glib/BRD4100A/glib_font_narrow_6x8.o
LOAD ./glib/BRD4100A/glib_font_normal_8x8.o
LOAD ./glib/BRD4100A/glib_font_number_16x20.o
LOAD ./glib/BRD4100A/glib_line.o
LOAD ./glib/BRD4100A/glib_polygon.o
LOAD ./glib/BRD4100A/glib_rectangle.o
LOAD ./glib/BRD4100A/glib_string.o
LOAD ./kit/BRD4100A/bsp_bcc.o
LOAD ./kit/BRD4100A/bsp_stk.o
LOAD ./kit/BRD4100A/bsp_stk_leds.o
LOAD ./kit/BRD4100A/i2cspm.o
LOAD ./kit/BRD4100A/si7013.o
LOAD ./kit/BRD4100A/tempsens.o
LOAD ./kit/BRD4100A/udelay.o
LOAD ./kit_flashpwr/BRD4100A/mx25flash_spi.o
LOAD ./kit_lcd/BRD4100A/display.o
LOAD ./kit_lcd/BRD4100A/displayls013b7dh03.o
LOAD ./kit_lcd/BRD4100A/displaypalemlib.o
LOAD ./src/InitDevice.o
LOAD C:/SiliconLabs/SimplicityStudio/v4/developer/sdks/gecko_sdk_suite/v1.0//protocol/bluetooth_2.3/lib/EFR32BG1P/GCC/bgapi.a
LOAD C:/SiliconLabs/SimplicityStudio/v4/developer/sdks/gecko_sdk_suite/v1.0//protocol/bluetooth_2.3/lib/EFR32BG1P/EABI/stack.a
LOAD C:/SiliconLabs/SimplicityStudio/v4/developer/sdks/gecko_sdk_suite/v1.0//protocol/bluetooth_2.3/lib/EFR32BG1P/EABI/binstack.o
LOAD C:/SiliconLabs/SimplicityStudio/v4/developer/sdks/gecko_sdk_suite/v1.0//protocol/bluetooth_2.3/lib/EFR32BG1P/EABI/binbootloader.o
LOAD c:/siliconlabs/simplicitystudio/v4/developer/toolchains/gnu_arm/4.9_2015q3/bin/../lib/gcc/arm-none-eabi/4.9.3/../../../../arm-none-eabi/lib/armv7e-m/softfp\libm.a
START GROUP
LOAD c:/siliconlabs/simplicitystudio/v4/developer/toolchains/gnu_arm/4.9_2015q3/bin/../lib/gcc/arm-none-eabi/4.9.3/armv7e-m/softfp\libgcc.a
LOAD c:/siliconlabs/simplicitystudio/v4/developer/toolchains/gnu_arm/4.9_2015q3/bin/../lib/gcc/arm-none-eabi/4.9.3/../../../../arm-none-eabi/lib/armv7e-m/softfp\libc.a
LOAD c:/siliconlabs/simplicitystudio/v4/developer/toolchains/gnu_arm/4.9_2015q3/bin/../lib/gcc/arm-none-eabi/4.9.3/../../../../arm-none-eabi/lib/armv7e-m/softfp\libnosys.a
END GROUP
START GROUP
LOAD c:/siliconlabs/simplicitystudio/v4/developer/toolchains/gnu_arm/4.9_2015q3/bin/../lib/gcc/arm-none-eabi/4.9.3/armv7e-m/softfp\libgcc.a
LOAD c:/siliconlabs/simplicitystudio/v4/developer/toolchains/gnu_arm/4.9_2015q3/bin/../lib/gcc/arm-none-eabi/4.9.3/../../../../arm-none-eabi/lib/armv7e-m/softfp\libg.a
LOAD c:/siliconlabs/simplicitystudio/v4/developer/toolchains/gnu_arm/4.9_2015q3/bin/../lib/gcc/arm-none-eabi/4.9.3/../../../../arm-none-eabi/lib/armv7e-m/softfp\libc.a
END GROUP
LOAD c:/siliconlabs/simplicitystudio/v4/developer/toolchains/gnu_arm/4.9_2015q3/bin/../lib/gcc/arm-none-eabi/4.9.3/armv7e-m/softfp/crtend.o
LOAD c:/siliconlabs/simplicitystudio/v4/developer/toolchains/gnu_arm/4.9_2015q3/bin/../lib/gcc/arm-none-eabi/4.9.3/armv7e-m/softfp/crtn.o

.text_bootloader
                0x00000000     0x4000
 *(.binbootloader*)
 .binbootloader
                0x00000000      0x31c C:/SiliconLabs/SimplicityStudio/v4/developer/sdks/gecko_sdk_suite/v1.0//protocol/bluetooth_2.3/lib/EFR32BG1P/EABI/binbootloader.o
                0x00004000                . = ALIGN (0x4000)
 *fill*         0x0000031c     0x3ce4 

.text_stack_bin
                0x00004000    0x1d000
 *(.binstack*)
 .binstack      0x00004000    0x1cc10 C:/SiliconLabs/SimplicityStudio/v4/developer/sdks/gecko_sdk_suite/v1.0//protocol/bluetooth_2.3/lib/EFR32BG1P/EABI/binstack.o
                0x00021000                . = ALIGN (0x800)
 *fill*         0x00020c10      0x3f0 
                0x00021000                __text_start__ = .

.text_app       0x00021000     0xd31c
 *(.AAT)
 .AAT           0x00021000       0x80 ./main.o
                0x00021000                AppAddressTable
 *(.vectors)
 .vectors       0x00021080       0xc8 ./device/EFR32_B_1_1_P/gcc/startup_efr32bg1p.o
                0x00021080                __Vectors
                0x00021148                __Vectors_End = .
                0x000000c8                __Vectors_Size = (__Vectors_End - __Vectors)
                0x00021148                __end__ = .
 *(.gecko_configuration)
 *(.xo_configuration)
 *(.gatt_header)
 .gatt_header   0x00021148       0x30 ./gatt_db.o
                0x00021148                bg_gattdb_data
 *(.gatt_data)
 .gatt_data     0x00021178      0x2b9 ./gatt_db.o
                0x00021178                bg_gattdb_data_uuidtable_16_map
                0x000211a0                bg_gattdb_data_uuidtable_128_map
                0x000211c0                bg_gattdb_data_attribute_field_29
                0x000211c8                bg_gattdb_data_attribute_field_28
                0x000211d0                bg_gattdb_data_attribute_field_27
                0x000211d4                bg_gattdb_data_attribute_field_26
                0x000211dc                bg_gattdb_data_attribute_field_25
                0x000211e4                bg_gattdb_data_attribute_field_24
                0x000211e8                bg_gattdb_data_attribute_field_23
                0x000211f0                bg_gattdb_data_attribute_field_22
                0x00021208                bg_gattdb_data_attribute_field_21
                0x0002121c                bg_gattdb_data_attribute_field_20
                0x00021224                bg_gattdb_data_attribute_field_19
                0x0002122c                bg_gattdb_data_attribute_field_18
                0x00021230                bg_gattdb_data_attribute_field_17
                0x00021238                bg_gattdb_data_attribute_field_16
                0x00021240                bg_gattdb_data_attribute_field_14
                0x00021248                bg_gattdb_data_attribute_field_13
                0x00021250                bg_gattdb_data_attribute_field_12
                0x00021254                bg_gattdb_data_attribute_field_11
                0x00021264                bg_gattdb_data_attribute_field_10
                0x0002126c                bg_gattdb_data_attribute_field_9
                0x00021270                bg_gattdb_data_attribute_field_8
                0x00021274                bg_gattdb_data_attribute_field_7
                0x0002127c                bg_gattdb_data_attribute_field_6
                0x00021284                bg_gattdb_data_attribute_field_5
                0x0002128c                bg_gattdb_data_attribute_field_4
                0x00021290                bg_gattdb_data_attribute_field_2
                0x00021298                bg_gattdb_data_attribute_field_1
                0x000212a0                bg_gattdb_data_attribute_field_0
                0x000212a4                bg_gattdb_data_attributes_map
                0x00021418                bg_gattdb_data_attributes_dynamic_mapping_map
                0x00021428                bg_gattdb_data_adv_uuid16_map
                0x00021430                bg_gattdb_data_adv_uuid128_map
 *(.text*)
 *fill*         0x00021431        0x3 
 .text          0x00021434       0x5c c:/siliconlabs/simplicitystudio/v4/developer/toolchains/gnu_arm/4.9_2015q3/bin/../lib/gcc/arm-none-eabi/4.9.3/armv7e-m/softfp/crtbegin.o
 .text          0x00021490       0x74 c:/siliconlabs/simplicitystudio/v4/developer/toolchains/gnu_arm/4.9_2015q3/bin/../lib/gcc/arm-none-eabi/4.9.3/../../../../arm-none-eabi/lib/armv7e-m/softfp/crt0.o
                0x00021490                _start
                0x00021490                _mainCRTStartup
 .text.gecko_cmd_le_gap_set_mode
                0x00021504       0x58 ./advertisement.o
 .text.advSetup
                0x0002155c       0x38 ./advertisement.o
                0x0002155c                advSetup
 .text.gecko_cmd_system_reset
                0x00021594       0x40 ./app.o
 .text.gecko_cmd_system_get_bt_address
                0x000215d4       0x38 ./app.o
 .text.gecko_cmd_le_gap_open
                0x0002160c       0x64 ./app.o
 .text.gecko_cmd_le_gap_discover
                0x00021670       0x48 ./app.o
 .text.gecko_cmd_le_gap_end_procedure
                0x000216b8       0x38 ./app.o
 .text.gecko_cmd_le_gap_set_scan_parameters
                0x000216f0       0x60 ./app.o
 .text.gecko_cmd_gatt_discover_primary_services_by_uuid
                0x00021750       0x8c ./app.o
 .text.gecko_cmd_gatt_discover_characteristics_by_uuid
                0x000217dc       0x98 ./app.o
 .text.gecko_cmd_gatt_read_characteristic_value_by_uuid
                0x00021874       0x98 ./app.o
 .text.gecko_cmd_gatt_server_write_attribute_value
                0x0002190c       0x98 ./app.o
 .text.gecko_cmd_gatt_server_send_user_write_response
                0x000219a4       0x64 ./app.o
 .text.gecko_cmd_endpoint_close
                0x00021a08       0x48 ./app.o
 .text.appInit  0x00021a50       0x40 ./app.o
                0x00021a50                appInit
 .text.appHandleEvents
                0x00021a90      0x340 ./app.o
                0x00021a90                appHandleEvents
 .text.gecko_cmd_hardware_set_soft_timer
                0x00021dd0       0x60 ./app_ui.o
 .text.BUS_RegBitRead
                0x00021e30       0x2c ./app_ui.o
 .text.GPIO_PinInGet
                0x00021e5c       0x54 ./app_ui.o
 .text.appUiLedOff
                0x00021eb0       0x1c ./app_ui.o
                0x00021eb0                appUiLedOff
 .text.appUiTick
                0x00021ecc       0x1c ./app_ui.o
                0x00021ecc                appUiTick
 .text.appUiWriteString
                0x00021ee8       0x14 ./app_ui.o
                0x00021ee8                appUiWriteString
 .text.appUiLedTimerCback
                0x00021efc       0xb4 ./app_ui.o
 .text.appUiButtonTimerCallback
                0x00021fb0      0x110 ./app_ui.o
 .text.appUiPushButtonsGet
                0x000220c0       0x4c ./app_ui.o
 .text.appUiBtnSendEvent
                0x0002210c       0x1c ./app_ui.o
 .text.gecko_cmd_le_gap_set_mode
                0x00022128       0x58 ./beacon.o
 .text.gecko_cmd_le_gap_set_adv_data
                0x00022180       0x8c ./beacon.o
 .text.bcnSetupAdvBeaconing
                0x0002220c       0x38 ./beacon.o
                0x0002220c                bcnSetupAdvBeaconing
 .text.graphWriteString
                0x00022244       0x40 ./graphics.o
                0x00022244                graphWriteString
 .text.graphPrintCenter
                0x00022284       0xc0 ./graphics.o
 .text.gecko_init
                0x00022344       0x44 ./main.o
 .text.Clock_SetUp
                0x00022388       0x40 ./main.o
                0x00022388                Clock_SetUp
 .text.main     0x000223c8       0x38 ./main.o
                0x000223c8                main
 .text.DMADRV_AllocateChannel
                0x00022400       0xb4 ./bgapi/dmadrv.o
                0x00022400                DMADRV_AllocateChannel
 .text.DMADRV_Init
                0x000224b4       0x84 ./bgapi/dmadrv.o
                0x000224b4                DMADRV_Init
 .text.DMADRV_MemoryPeripheral
                0x00022538       0x44 ./bgapi/dmadrv.o
                0x00022538                DMADRV_MemoryPeripheral
 .text.DMADRV_PeripheralMemory
                0x0002257c       0x44 ./bgapi/dmadrv.o
                0x0002257c                DMADRV_PeripheralMemory
 .text.DMADRV_StopTransfer
                0x000225c0       0x6c ./bgapi/dmadrv.o
                0x000225c0                DMADRV_StopTransfer
 .text.DMADRV_TransferRemainingCount
                0x0002262c       0x7c ./bgapi/dmadrv.o
                0x0002262c                DMADRV_TransferRemainingCount
 .text.LDMA_IRQHandler
                0x000226a8       0xe0 ./bgapi/dmadrv.o
                0x000226a8                LDMA_IRQHandler
 .text.StartTransfer
                0x00022788      0x250 ./bgapi/dmadrv.o
 .text.ADC_IntClear
                0x000229d8       0x1c ./bgapi/em_adc.o
 .text.BUS_RegBitWrite
                0x000229f4       0x2c ./bgapi/em_adc.o
 .text.BUS_RegMaskedSet
                0x00022a20       0x24 ./bgapi/em_adc.o
 .text.BUS_RegMaskedClear
                0x00022a44       0x24 ./bgapi/em_adc.o
 .text.BUS_RegMaskedWrite
                0x00022a68       0x24 ./bgapi/em_adc.o
 .text.ADC_LoadDevinfoCal
                0x00022a8c      0x190 ./bgapi/em_adc.o
 .text.ADC_Init
                0x00022c1c       0x90 ./bgapi/em_adc.o
                0x00022c1c                ADC_Init
 .text.ADC_InitSingle
                0x00022cac      0x150 ./bgapi/em_adc.o
                0x00022cac                ADC_InitSingle
 .text.ADC_PrescaleCalc
                0x00022dfc       0x64 ./bgapi/em_adc.o
                0x00022dfc                ADC_PrescaleCalc
 .text.NVIC_EnableIRQ
                0x00022e60       0x2c ./bgapi/em_ldma.o
 .text.NVIC_ClearPendingIRQ
                0x00022e8c       0x30 ./bgapi/em_ldma.o
 .text.NVIC_SetPriority
                0x00022ebc       0x4c ./bgapi/em_ldma.o
 .text.BUS_RegMaskedClear
                0x00022f08       0x24 ./bgapi/em_ldma.o
 .text.LDMA_Init
                0x00022f2c       0x70 ./bgapi/em_ldma.o
                0x00022f2c                LDMA_Init
 .text.LDMA_StartTransfer
                0x00022f9c      0x150 ./bgapi/em_ldma.o
                0x00022f9c                LDMA_StartTransfer
 .text.LDMA_StopTransfer
                0x000230ec       0x44 ./bgapi/em_ldma.o
                0x000230ec                LDMA_StopTransfer
 .text.LDMA_TransferRemainingCount
                0x00023130       0x80 ./bgapi/em_ldma.o
                0x00023130                LDMA_TransferRemainingCount
 .text.LEUART_Sync
                0x000231b0       0x30 ./bgapi/em_leuart.o
 .text.LEUART_BaudrateSet
                0x000231e0       0x6c ./bgapi/em_leuart.o
                0x000231e0                LEUART_BaudrateSet
 .text.LEUART_Enable
                0x0002324c       0x3c ./bgapi/em_leuart.o
                0x0002324c                LEUART_Enable
 .text.LEUART_FreezeEnable
                0x00023288       0x34 ./bgapi/em_leuart.o
                0x00023288                LEUART_FreezeEnable
 .text.LEUART_Init
                0x000232bc       0x68 ./bgapi/em_leuart.o
                0x000232bc                LEUART_Init
 .text.Reset_Handler
                0x00023324       0x38 ./device/EFR32_B_1_1_P/gcc/startup_efr32bg1p.o
                0x00023324                Reset_Handler
 .text.Default_Handler
                0x0002335c        0x8 ./device/EFR32_B_1_1_P/gcc/startup_efr32bg1p.o
                0x0002335c                DebugMon_Handler
                0x0002335c                USART0_TX_IRQHandler
                0x0002335c                I2C0_IRQHandler
                0x0002335c                HardFault_Handler
                0x0002335c                SysTick_Handler
                0x0002335c                USART1_RX_IRQHandler
                0x0002335c                PendSV_Handler
                0x0002335c                NMI_Handler
                0x0002335c                SYNTH_IRQHandler
                0x0002335c                WDOG0_IRQHandler
                0x0002335c                USART1_TX_IRQHandler
                0x0002335c                MSC_IRQHandler
                0x0002335c                ADC0_IRQHandler
                0x0002335c                UsageFault_Handler
                0x0002335c                LEUART0_IRQHandler
                0x0002335c                FPUEH_IRQHandler
                0x0002335c                GPIO_EVEN_IRQHandler
                0x0002335c                TIMER0_IRQHandler
                0x0002335c                LETIMER0_IRQHandler
                0x0002335c                TIMER1_IRQHandler
                0x0002335c                RFSENSE_IRQHandler
                0x0002335c                BUFC_IRQHandler
                0x0002335c                MODEM_IRQHandler
                0x0002335c                Default_Handler
                0x0002335c                RAC_SEQ_IRQHandler
                0x0002335c                FRC_PRI_IRQHandler
                0x0002335c                FRC_IRQHandler
                0x0002335c                CRYOTIMER_IRQHandler
                0x0002335c                PCNT0_IRQHandler
                0x0002335c                AGC_IRQHandler
                0x0002335c                ACMP0_IRQHandler
                0x0002335c                USART0_RX_IRQHandler
                0x0002335c                MemManage_Handler
                0x0002335c                SVC_Handler
                0x0002335c                RTCC_IRQHandler
                0x0002335c                CRYPTO_IRQHandler
                0x0002335c                CMU_IRQHandler
                0x0002335c                RAC_RSM_IRQHandler
                0x0002335c                GPIO_ODD_IRQHandler
                0x0002335c                PROTIMER_IRQHandler
                0x0002335c                BusFault_Handler
                0x0002335c                IDAC0_IRQHandler
 .text.BUS_RegBitWrite
                0x00023364       0x2c ./emlib/em_cmu.o
 .text.BUS_RegBitRead
                0x00023390       0x2c ./emlib/em_cmu.o
 .text.BUS_RegMaskedSet
                0x000233bc       0x24 ./emlib/em_cmu.o
 .text.BUS_RegMaskedClear
                0x000233e0       0x24 ./emlib/em_cmu.o
 .text.BUS_RegMaskedWrite
                0x00023404       0x24 ./emlib/em_cmu.o
 .text.BUS_RegMaskedRead
                0x00023428       0x20 ./emlib/em_cmu.o
 .text.CMU_Log2ToDiv
                0x00023448       0x1c ./emlib/em_cmu.o
 .text.setHfLeConfig
                0x00023464       0x3c ./emlib/em_cmu.o
 .text.getHfLeConfig
                0x000234a0       0x2c ./emlib/em_cmu.o
 .text.auxClkGet
                0x000234cc       0x20 ./emlib/em_cmu.o
 .text.dbgClkGet
                0x000234ec       0x3c ./emlib/em_cmu.o
 .text.flashWaitStateControl
                0x00023528       0x78 ./emlib/em_cmu.o
 .text.flashWaitStateMax
                0x000235a0       0x14 ./emlib/em_cmu.o
 .text.getRegIshUpperVal
                0x000235b4       0x38 ./emlib/em_cmu.o
 .text.lfClkGet
                0x000235ec       0xe8 ./emlib/em_cmu.o
 .text.syncReg  0x000236d4       0x38 ./emlib/em_cmu.o
 .text.CMU_ClockEnable
                0x0002370c       0xcc ./emlib/em_cmu.o
                0x0002370c                CMU_ClockEnable
 .text.CMU_ClockFreqGet
                0x000237d8      0x188 ./emlib/em_cmu.o
                0x000237d8                CMU_ClockFreqGet
 .text.CMU_ClockSelectGet
                0x00023960      0x14c ./emlib/em_cmu.o
                0x00023960                CMU_ClockSelectGet
 .text.CMU_ClockSelectSet
                0x00023aac      0x1c4 ./emlib/em_cmu.o
                0x00023aac                CMU_ClockSelectSet
 .text.CMU_HFXOInit
                0x00023c70      0x110 ./emlib/em_cmu.o
                0x00023c70                CMU_HFXOInit
 .text.CMU_LFXOInit
                0x00023d80       0x50 ./emlib/em_cmu.o
                0x00023d80                CMU_LFXOInit
 .text.CMU_OscillatorEnable
                0x00023dd0      0x180 ./emlib/em_cmu.o
                0x00023dd0                CMU_OscillatorEnable
 .text.CMU_OscillatorTuningGet
                0x00023f50       0x74 ./emlib/em_cmu.o
                0x00023f50                CMU_OscillatorTuningGet
 .text.CMU_OscillatorTuningSet
                0x00023fc4       0xfc ./emlib/em_cmu.o
                0x00023fc4                CMU_OscillatorTuningSet
 .text.CMU_OscillatorTuningWait
                0x000240c0       0x8c ./emlib/em_cmu.o
                0x000240c0                CMU_OscillatorTuningWait
 .text.CMU_OscillatorTuningOptimize
                0x0002414c       0x4c ./emlib/em_cmu.o
                0x0002414c                CMU_OscillatorTuningOptimize
 .text.BUS_RegBitWrite
                0x00024198       0x2c ./emlib/em_gpio.o
 .text.GPIO_PinOutClear
                0x000241c4       0x50 ./emlib/em_gpio.o
 .text.GPIO_PinOutSet
                0x00024214       0x50 ./emlib/em_gpio.o
 .text.GPIO_PinModeSet
                0x00024264      0x108 ./emlib/em_gpio.o
                0x00024264                GPIO_PinModeSet
 .text.BUS_RegBitWrite
                0x0002436c       0x2c ./emlib/em_i2c.o
 .text.BUS_RegMaskedSet
                0x00024398       0x24 ./emlib/em_i2c.o
 .text.BUS_RegMaskedClear
                0x000243bc       0x24 ./emlib/em_i2c.o
 .text.BUS_RegMaskedWrite
                0x000243e0       0x24 ./emlib/em_i2c.o
 .text.I2C_BusFreqSet
                0x00024404       0xfc ./emlib/em_i2c.o
                0x00024404                I2C_BusFreqSet
 .text.I2C_Init
                0x00024500       0x5c ./emlib/em_i2c.o
                0x00024500                I2C_Init
 .text.RTCC_Init
                0x0002455c       0x60 ./emlib/em_rtcc.o
                0x0002455c                RTCC_Init
 .text.SYSTEM_ChipRevisionGet
                0x000245bc       0x74 ./emlib/em_system.o
                0x000245bc                SYSTEM_ChipRevisionGet
 .text.BUS_RegMaskedSet
                0x00024630       0x24 ./emlib/em_usart.o
 .text.BUS_RegMaskedClear
                0x00024654       0x24 ./emlib/em_usart.o
 .text.BUS_RegMaskedWrite
                0x00024678       0x24 ./emlib/em_usart.o
 .text.USART_BaudrateAsyncSet
                0x0002469c       0xb0 ./emlib/em_usart.o
                0x0002469c                USART_BaudrateAsyncSet
 .text.USART_BaudrateCalc
                0x0002474c      0x11c ./emlib/em_usart.o
                0x0002474c                USART_BaudrateCalc
 .text.USART_BaudrateGet
                0x00024868       0x50 ./emlib/em_usart.o
                0x00024868                USART_BaudrateGet
 .text.USART_BaudrateSyncSet
                0x000248b8       0x54 ./emlib/em_usart.o
                0x000248b8                USART_BaudrateSyncSet
 .text.USART_Enable
                0x0002490c       0x4c ./emlib/em_usart.o
                0x0002490c                USART_Enable
 .text.USART_InitAsync
                0x00024958       0xbc ./emlib/em_usart.o
                0x00024958                USART_InitAsync
 .text.USART_InitSync
                0x00024a14       0xec ./emlib/em_usart.o
                0x00024a14                USART_InitSync
 .text.USART_Reset
                0x00024b00       0x94 ./emlib/em_usart.o
                0x00024b00                USART_Reset
 .text.USART_SpiTransfer
                0x00024b94       0x40 ./emlib/em_usart.o
                0x00024b94                USART_SpiTransfer
 .text.DMD_setClippingArea
                0x00024bd4       0x8c ./glib/BRD4100A/dmd_display.o
                0x00024bd4                DMD_setClippingArea
 .text.DMD_writeColor
                0x00024c60      0x2a0 ./glib/BRD4100A/dmd_display.o
                0x00024c60                DMD_writeColor
 .text.DMD_updateDisplay
                0x00024f00      0x114 ./glib/BRD4100A/dmd_display.o
                0x00024f00                DMD_updateDisplay
 .text.GLIB_colorTranslate24bppInl
                0x00025014       0x34 ./glib/BRD4100A/glib.o
 .text.GLIB_clear
                0x00025048       0x70 ./glib/BRD4100A/glib.o
                0x00025048                GLIB_clear
 .text.GLIB_resetDisplayClippingArea
                0x000250b8       0x30 ./glib/BRD4100A/glib.o
                0x000250b8                GLIB_resetDisplayClippingArea
 .text.GLIB_colorTranslate24bpp
                0x000250e8       0x20 ./glib/BRD4100A/glib.o
                0x000250e8                GLIB_colorTranslate24bpp
 .text.GLIB_drawPixel
                0x00025108       0x6c ./glib/BRD4100A/glib.o
                0x00025108                GLIB_drawPixel
 .text.GLIB_drawPixelColor
                0x00025174       0x6c ./glib/BRD4100A/glib.o
                0x00025174                GLIB_drawPixelColor
 .text.GLIB_rectContainsPoint
                0x000251e0       0x4c ./glib/BRD4100A/glib_rectangle.o
                0x000251e0                GLIB_rectContainsPoint
 .text.GLIB_drawChar
                0x0002522c      0x1d4 ./glib/BRD4100A/glib_string.o
                0x0002522c                GLIB_drawChar
 .text.GLIB_drawString
                0x00025400       0xd0 ./glib/BRD4100A/glib_string.o
                0x00025400                GLIB_drawString
 .text.BUS_RegBitWrite
                0x000254d0       0x2c ./kit/BRD4100A/bsp_stk_leds.o
 .text.GPIO_PinOutClear
                0x000254fc       0x50 ./kit/BRD4100A/bsp_stk_leds.o
 .text.GPIO_PinOutSet
                0x0002554c       0x50 ./kit/BRD4100A/bsp_stk_leds.o
 .text.BSP_LedClear
                0x0002559c       0x44 ./kit/BRD4100A/bsp_stk_leds.o
                0x0002559c                BSP_LedClear
 .text.BSP_LedSet
                0x000255e0       0x44 ./kit/BRD4100A/bsp_stk_leds.o
                0x000255e0                BSP_LedSet
 .text.BUS_RegBitWrite
                0x00025624       0x2c ./kit_flashpwr/BRD4100A/mx25flash_spi.o
 .text.GPIO_PinOutClear
                0x00025650       0x50 ./kit_flashpwr/BRD4100A/mx25flash_spi.o
 .text.GPIO_PinOutSet
                0x000256a0       0x50 ./kit_flashpwr/BRD4100A/mx25flash_spi.o
 .text.MX25_init
                0x000256f0       0x98 ./kit_flashpwr/BRD4100A/mx25flash_spi.o
                0x000256f0                MX25_init
 .text.Wait_Flash_WarmUp
                0x00025788       0x24 ./kit_flashpwr/BRD4100A/mx25flash_spi.o
                0x00025788                Wait_Flash_WarmUp
 .text.Initial_Spi
                0x000257ac        0xc ./kit_flashpwr/BRD4100A/mx25flash_spi.o
                0x000257ac                Initial_Spi
 .text.CS_Low   0x000257b8       0x10 ./kit_flashpwr/BRD4100A/mx25flash_spi.o
                0x000257b8                CS_Low
 .text.CS_High  0x000257c8       0x10 ./kit_flashpwr/BRD4100A/mx25flash_spi.o
                0x000257c8                CS_High
 .text.SendByte
                0x000257d8       0x3c ./kit_flashpwr/BRD4100A/mx25flash_spi.o
                0x000257d8                SendByte
 .text.MX25_DP  0x00025814       0x1c ./kit_flashpwr/BRD4100A/mx25flash_spi.o
                0x00025814                MX25_DP
 .text.SYSTEM_GetProdRev
                0x00025830       0x1c ./src/InitDevice.o
 .text.CHIP_Init
                0x0002584c       0xa8 ./src/InitDevice.o
 .text.enter_DefaultMode_from_RESET
                0x000258f4       0x30 ./src/InitDevice.o
                0x000258f4                enter_DefaultMode_from_RESET
 .text.EMU_enter_DefaultMode_from_RESET
                0x00025924       0x4c ./src/InitDevice.o
                0x00025924                EMU_enter_DefaultMode_from_RESET
 .text.LFXO_enter_DefaultMode_from_RESET
                0x00025970        0xc ./src/InitDevice.o
                0x00025970                LFXO_enter_DefaultMode_from_RESET
 .text.CMU_enter_DefaultMode_from_RESET
                0x0002597c      0x138 ./src/InitDevice.o
                0x0002597c                CMU_enter_DefaultMode_from_RESET
 .text.RTCC_enter_DefaultMode_from_RESET
                0x00025ab4       0x4c ./src/InitDevice.o
                0x00025ab4                RTCC_enter_DefaultMode_from_RESET
 .text.I2C0_enter_DefaultMode_from_RESET
                0x00025b00       0x74 ./src/InitDevice.o
                0x00025b00                I2C0_enter_DefaultMode_from_RESET
 .text.GPCRC_enter_DefaultMode_from_RESET
                0x00025b74        0xc ./src/InitDevice.o
                0x00025b74                GPCRC_enter_DefaultMode_from_RESET
 .text.LDMA_enter_DefaultMode_from_RESET
                0x00025b80        0xc ./src/InitDevice.o
                0x00025b80                LDMA_enter_DefaultMode_from_RESET
 .text.PRS_enter_DefaultMode_from_RESET
                0x00025b8c       0x20 ./src/InitDevice.o
                0x00025b8c                PRS_enter_DefaultMode_from_RESET
 .text.PORTIO_enter_DefaultMode_from_RESET
                0x00025bac       0x5c ./src/InitDevice.o
                0x00025bac                PORTIO_enter_DefaultMode_from_RESET
 .text          0x00025c08       0x60 C:/SiliconLabs/SimplicityStudio/v4/developer/sdks/gecko_sdk_suite/v1.0//protocol/bluetooth_2.3/lib/EFR32BG1P/GCC/bgapi.a(gecko_bgapi_hardware.c.obj)
                0x00025c50                gecko_bgapi_class_hardware_init
 .text          0x00025c68       0x60 C:/SiliconLabs/SimplicityStudio/v4/developer/sdks/gecko_sdk_suite/v1.0//protocol/bluetooth_2.3/lib/EFR32BG1P/GCC/bgapi.a(gecko_bgapi_test.c.obj)
                0x00025cb0                gecko_bgapi_class_test_init
 .text          0x00025cc8       0x60 C:/SiliconLabs/SimplicityStudio/v4/developer/sdks/gecko_sdk_suite/v1.0//protocol/bluetooth_2.3/lib/EFR32BG1P/GCC/bgapi.a(gecko_bgapi_util.c.obj)
                0x00025d10                gecko_bgapi_class_util_init
 .text          0x00025d28       0x60 C:/SiliconLabs/SimplicityStudio/v4/developer/sdks/gecko_sdk_suite/v1.0//protocol/bluetooth_2.3/lib/EFR32BG1P/GCC/bgapi.a(gecko_bgapi_dfu.c.obj)
                0x00025d70                gecko_bgapi_class_dfu_init
 .text          0x00025d88       0x60 C:/SiliconLabs/SimplicityStudio/v4/developer/sdks/gecko_sdk_suite/v1.0//protocol/bluetooth_2.3/lib/EFR32BG1P/GCC/bgapi.a(gecko_bgapi_gap.c.obj)
                0x00025dd0                gecko_bgapi_class_le_gap_init
 .text          0x00025de8       0x60 C:/SiliconLabs/SimplicityStudio/v4/developer/sdks/gecko_sdk_suite/v1.0//protocol/bluetooth_2.3/lib/EFR32BG1P/GCC/bgapi.a(gecko_bgapi_gatt.c.obj)
                0x00025e30                gecko_bgapi_class_gatt_init
 .text          0x00025e48       0x60 C:/SiliconLabs/SimplicityStudio/v4/developer/sdks/gecko_sdk_suite/v1.0//protocol/bluetooth_2.3/lib/EFR32BG1P/GCC/bgapi.a(gecko_bgapi_gatt_server.c.obj)
                0x00025e90                gecko_bgapi_class_gatt_server_init
 .text          0x00025ea8       0x60 C:/SiliconLabs/SimplicityStudio/v4/developer/sdks/gecko_sdk_suite/v1.0//protocol/bluetooth_2.3/lib/EFR32BG1P/GCC/bgapi.a(gecko_bgapi_flash.c.obj)
                0x00025ef0                gecko_bgapi_class_flash_init
 .text          0x00025f08       0x60 C:/SiliconLabs/SimplicityStudio/v4/developer/sdks/gecko_sdk_suite/v1.0//protocol/bluetooth_2.3/lib/EFR32BG1P/GCC/bgapi.a(gecko_bgapi_sm.c.obj)
                0x00025f50                gecko_bgapi_class_sm_init
 .text          0x00025f68       0x60 C:/SiliconLabs/SimplicityStudio/v4/developer/sdks/gecko_sdk_suite/v1.0//protocol/bluetooth_2.3/lib/EFR32BG1P/GCC/bgapi.a(gecko_bgapi_system.c.obj)
                0x00025fb0                gecko_bgapi_class_system_init
 .text          0x00025fc8       0x60 C:/SiliconLabs/SimplicityStudio/v4/developer/sdks/gecko_sdk_suite/v1.0//protocol/bluetooth_2.3/lib/EFR32BG1P/GCC/bgapi.a(gecko_bgapi_endpoint.c.obj)
                0x00026010                gecko_bgapi_class_endpoint_init
 .text          0x00026028       0x60 C:/SiliconLabs/SimplicityStudio/v4/developer/sdks/gecko_sdk_suite/v1.0//protocol/bluetooth_2.3/lib/EFR32BG1P/GCC/bgapi.a(gecko_bgapi_le_connection.c.obj)
                0x00026070                gecko_bgapi_class_le_connection_init
 .text          0x00026088      0x388 C:/SiliconLabs/SimplicityStudio/v4/developer/sdks/gecko_sdk_suite/v1.0//protocol/bluetooth_2.3/lib/EFR32BG1P/GCC/bgapi.a(bgapi_hardware_lib.c.obj)
                0x00026088                gecko_cmd_hardware_read_i2c
                0x000260f0                gecko_cmd_hardware_write_i2c
                0x00026134                gecko_cmd_hardware_stop_i2c
                0x0002616c                gecko_cmd_hardware_read_adc
                0x000261ac                gecko_cmd_hardware_read_adc_channel
                0x000261dc                gecko_cmd_hardware_config_adc_reference
                0x00026208                gecko_cmd_hardware_configure_gpio
                0x0002623c                gecko_cmd_hardware_write_gpio
                0x000262a0                gecko_cmd_hardware_read_gpio
                0x00026300                gecko_cmd_hardware_set_uart_configuration
                0x00026378                clock_outputs_init
                0x000263c0                bgapi_hardware_init
 .text          0x00026410      0x1d0 C:/SiliconLabs/SimplicityStudio/v4/developer/sdks/gecko_sdk_suite/v1.0//protocol/bluetooth_2.3/lib/EFR32BG1P/GCC/bgapi.a(bgapi_hardware.c.obj)
                0x00026410                soft_timer_comparison
                0x000264a4                bgapi_hardware_soft_timer_listener
                0x000264e4                lib_hardware_handler_init
                0x000264f8                gecko_cmd_hardware_set_soft_timer
                0x00026538                gecko_cmd_hardware_set_lazy_soft_timer
                0x00026578                gecko_cmd_hardware_get_time
                0x000265ac                gecko_cmd_hardware_enable_dcdc
 .text          0x000265e0      0x200 C:/SiliconLabs/SimplicityStudio/v4/developer/sdks/gecko_sdk_suite/v1.0//protocol/bluetooth_2.3/lib/EFR32BG1P/GCC/bgapi.a(bgapi_test_lib.c.obj)
                0x000265e0                lib_test_handler_init
                0x000265e2                disable_interrupts
                0x00026606                gecko_cmd_test_dtm_tx
                0x00026638                gecko_cmd_test_dtm_rx
                0x00026668                gecko_cmd_test_dtm_end
                0x00026694                gecko_cmd_test_debug_command
                0x00026764                gecko_cmd_test_debug_counter
 .text          0x000267e0      0x158 C:/SiliconLabs/SimplicityStudio/v4/developer/sdks/gecko_sdk_suite/v1.0//protocol/bluetooth_2.3/lib/EFR32BG1P/GCC/bgapi.a(bgapi_util.c.obj)
                0x00026818                lib_util_handler_init
                0x0002681a                gecko_cmd_util_atoi
                0x00026870                gecko_cmd_util_itoa
 .text          0x00026938       0x8c C:/SiliconLabs/SimplicityStudio/v4/developer/sdks/gecko_sdk_suite/v1.0//protocol/bluetooth_2.3/lib/EFR32BG1P/GCC/bgapi.a(bgapi_dfu.c.obj)
                0x00026938                lib_dfu_handler_init
                0x0002693a                gecko_cmd_dfu_reset
                0x00026940                gecko_cmd_dfu_flash_set_address
                0x0002696c                gecko_cmd_dfu_flash_upload
                0x00026998                gecko_cmd_dfu_flash_upload_finish
 .text          0x000269c4      0x308 C:/SiliconLabs/SimplicityStudio/v4/developer/sdks/gecko_sdk_suite/v1.0//protocol/bluetooth_2.3/lib/EFR32BG1P/GCC/bgapi.a(bgapi_gap.c.obj)
                0x000269c4                lib_le_gap_handler_init
                0x000269c6                gecko_cmd_le_gap_set_mode
                0x00026a0c                gecko_cmd_le_gap_bt5_set_mode
                0x00026a4c                gecko_cmd_le_gap_set_adv_data
                0x00026a80                gecko_cmd_le_gap_bt5_set_adv_data
                0x00026ab4                gecko_cmd_le_gap_set_adv_timeout
                0x00026b08                gecko_cmd_le_gap_open
                0x00026b70                gecko_cmd_le_gap_discover
                0x00026b9c                gecko_cmd_le_gap_end_procedure
                0x00026bc8                gecko_cmd_le_gap_set_adv_parameters
                0x00026bfc                gecko_cmd_le_gap_bt5_set_adv_parameters
                0x00026c38                gecko_cmd_le_gap_set_scan_parameters
                0x00026c68                gecko_cmd_le_gap_set_conn_parameters
                0x00026ca0                gecko_cmd_le_gap_set_phy
 .text          0x00026ccc      0x644 C:/SiliconLabs/SimplicityStudio/v4/developer/sdks/gecko_sdk_suite/v1.0//protocol/bluetooth_2.3/lib/EFR32BG1P/GCC/bgapi.a(bgapi_gatt_lib.c.obj)
                0x00026ccc                lib_gatt_handler_init
                0x00026cce                lib_gatt_server_handler_init
                0x00026cd0                gecko_cmd_gatt_set_max_mtu
                0x00026d0c                gecko_cmd_gatt_discover_primary_services
                0x00026d3c                gecko_cmd_gatt_discover_primary_services_by_uuid
                0x00026d78                gecko_cmd_gatt_find_included_services
                0x00026dac                gecko_cmd_gatt_discover_characteristics
                0x00026de0                gecko_cmd_gatt_discover_characteristics_by_uuid
                0x00026e20                gecko_cmd_gatt_read_characteristic_value
                0x00026e58                gecko_cmd_gatt_read_characteristic_value_from_offset
                0x00026e94                gecko_cmd_gatt_read_characteristic_value_by_uuid
                0x00026ed4                gecko_cmd_gatt_read_multiple_characteristic_values
                0x00026f08                gecko_cmd_gatt_write_characteristic_value
                0x00026f40                gecko_cmd_gatt_write_characteristic_value_without_response
                0x00026f84                gecko_cmd_gatt_prepare_characteristic_value_write
                0x00026fd4                gecko_cmd_gatt_execute_characteristic_value_write
                0x00027008                gecko_cmd_gatt_set_characteristic_notification
                0x00027040                gecko_cmd_gatt_discover_descriptors
                0x00027074                gecko_cmd_gatt_read_descriptor_value
                0x000270a8                gecko_cmd_gatt_write_descriptor_value
                0x000270e0                gecko_cmd_gatt_server_read_attribute_value
                0x00027128                gecko_cmd_gatt_server_read_attribute_type
                0x0002716c                gecko_cmd_gatt_server_find_attribute
                0x000271a8                gecko_cmd_gatt_server_write_attribute_value
                0x000271dc                gecko_cmd_gatt_server_send_user_read_response
                0x0002722c                gecko_cmd_gatt_server_send_user_write_response
                0x00027264                gecko_cmd_gatt_server_send_characteristic_notification
                0x000272b0                gecko_cmd_gatt_send_characteristic_confirmation
                0x000272e0                gecko_cmd_gatt_server_set_database
 .text          0x00027310      0x17c C:/SiliconLabs/SimplicityStudio/v4/developer/sdks/gecko_sdk_suite/v1.0//protocol/bluetooth_2.3/lib/EFR32BG1P/GCC/bgapi.a(bgapi_ps.c.obj)
                0x00027310                lib_flash_handler_init
                0x00027312                gecko_cmd_flash_ps_dump
                0x000273a8                gecko_cmd_flash_ps_erase_all
                0x000273d8                gecko_cmd_flash_ps_save
                0x00027414                gecko_cmd_flash_ps_load
                0x00027458                gecko_cmd_flash_ps_erase
 .text          0x0002748c      0x3cc C:/SiliconLabs/SimplicityStudio/v4/developer/sdks/gecko_sdk_suite/v1.0//protocol/bluetooth_2.3/lib/EFR32BG1P/GCC/bgapi.a(bgapi_sm.c.obj)
                0x00027554                lib_sm_handler_init
                0x00027568                gecko_cmd_sm_list_all_bondings
                0x000275a0                gecko_cmd_sm_increase_security
                0x000275d0                gecko_cmd_sm_set_bondable_mode
                0x000275fc                gecko_cmd_sm_delete_bonding
                0x0002762c                gecko_cmd_sm_delete_bondings
                0x0002765c                gecko_cmd_sm_configure
                0x0002768c                gecko_cmd_sm_enter_passkey
                0x000276c0                gecko_cmd_sm_set_passkey
                0x000276ec                gecko_cmd_sm_passkey_confirm
                0x00027720                gecko_cmd_sm_set_oob_data
                0x00027750                gecko_cmd_sm_set_sc_remote_oob_data
                0x00027780                gecko_cmd_sm_use_sc_oob
                0x000277c0                gecko_cmd_sm_store_bonding_configuration
                0x000277f4                gecko_cmd_sm_bonding_confirm
                0x00027828                gecko_cmd_sm_set_debug_mode
 .text          0x00027858      0x114 C:/SiliconLabs/SimplicityStudio/v4/developer/sdks/gecko_sdk_suite/v1.0//protocol/bluetooth_2.3/lib/EFR32BG1P/GCC/bgapi.a(bgapi_system.c.obj)
                0x00027858                lib_system_handler_init
                0x0002785a                gecko_cmd_system_get_bt_address
                0x00027890                gecko_cmd_system_get_random_data
                0x000278d8                gecko_cmd_system_halt
                0x0002790c                gecko_cmd_system_set_tx_power
                0x0002793c                gecko_cmd_system_hello
                0x00027964                gecko_cmd_system_reset
 .text          0x0002796c      0x1ac C:/SiliconLabs/SimplicityStudio/v4/developer/sdks/gecko_sdk_suite/v1.0//protocol/bluetooth_2.3/lib/EFR32BG1P/GCC/bgapi.a(bgapi_endpoint.c.obj)
                0x0002796c                lib_endpoint_handler_init
                0x0002796e                gecko_cmd_endpoint_send
                0x00027a18                gecko_cmd_endpoint_set_streaming_destination
                0x00027a70                gecko_cmd_endpoint_close
                0x00027acc                gecko_cmd_endpoint_set_flags
                0x00027ace                gecko_cmd_endpoint_clr_flags
                0x00027ad0                gecko_cmd_endpoint_read_counters
 .text          0x00027b18      0x104 C:/SiliconLabs/SimplicityStudio/v4/developer/sdks/gecko_sdk_suite/v1.0//protocol/bluetooth_2.3/lib/EFR32BG1P/GCC/bgapi.a(bgapi_le_connection.c.obj)
                0x00027b18                lib_le_connection_handler_init
                0x00027b1a                gecko_cmd_le_connection_set_parameters
                0x00027b68                gecko_cmd_le_connection_get_rssi
                0x00027b98                gecko_cmd_le_connection_disable_slave_latency
                0x00027be0                gecko_cmd_le_connection_set_phy
 .text          0x00027c1c      0x220 C:/SiliconLabs/SimplicityStudio/v4/developer/sdks/gecko_sdk_suite/v1.0//protocol/bluetooth_2.3/lib/EFR32BG1P/GCC/bgapi.a(uart_endpoint.c.obj)
                0x00027c7c                uart_output_available
                0x00027c80                uart_transparent_input
                0x00027cbe                uart_endpoint_func
                0x00027d72                uart_change_flags
                0x00027d80                init_uart_endpoints
 .text          0x00027e3c      0x17c C:/SiliconLabs/SimplicityStudio/v4/developer/sdks/gecko_sdk_suite/v1.0//protocol/bluetooth_2.3/lib/EFR32BG1P/GCC/bgapi.a(bgapi_endpoint.c.obj)
                0x00027f68                init_bgapi_endpoints
 .text          0x00027fb8       0xc8 C:/SiliconLabs/SimplicityStudio/v4/developer/sdks/gecko_sdk_suite/v1.0//protocol/bluetooth_2.3/lib/EFR32BG1P/GCC/bgapi.a(adc.c.obj)
                0x00027fb8                adc_read_channel
                0x00027fe8                adc_read_port
                0x00027ff8                adc_config_reference
                0x0002802c                adc_init
 .text          0x00028080      0x160 C:/SiliconLabs/SimplicityStudio/v4/developer/sdks/gecko_sdk_suite/v1.0//protocol/bluetooth_2.3/lib/EFR32BG1P/GCC/bgapi.a(gpio.c.obj)
                0x000280f8                gpio_location_to_port
                0x00028108                gpio_location_to_pin_index
                0x0002811c                gpios_init
 .text          0x000281e0      0x218 C:/SiliconLabs/SimplicityStudio/v4/developer/sdks/gecko_sdk_suite/v1.0//protocol/bluetooth_2.3/lib/EFR32BG1P/GCC/bgapi.a(i2c.c.obj)
                0x000281e0                i2c_init
                0x0002826c                i2c_stop
                0x0002828c                i2c_reset
                0x000282ac                i2c_read
                0x00028358                i2c_write
 .text          0x000283f8      0x160 C:/SiliconLabs/SimplicityStudio/v4/developer/sdks/gecko_sdk_suite/v1.0//protocol/bluetooth_2.3/lib/EFR32BG1P/GCC/bgapi.a(sleep_signal.c.obj)
                0x00028428                sleep_signal_init
                0x00028488                sleep_signal_update
                0x000284f4                host_wakeup_signal_init
                0x00028530                host_wakeup_signal_update
 .text          0x00028558      0x89c C:/SiliconLabs/SimplicityStudio/v4/developer/sdks/gecko_sdk_suite/v1.0//protocol/bluetooth_2.3/lib/EFR32BG1P/GCC/bgapi.a(uart.c.obj)
                0x00028558                LEUART0_IRQGeckoHandler
                0x0002855a                USART1_TX_IRQGeckoHandler
                0x00028684                USART0_TX_IRQGeckoHandler
                0x00028834                USART1_RX_IRQGeckoHandler
                0x00028840                USART0_RX_IRQGeckoHandler
                0x00028860                uart_update
                0x00028878                uart_configure
                0x0002894c                uart_event_register
                0x0002895c                uarts_init
                0x00028ce0                uart_get_flags
                0x00028cf0                uart_write_bgbuf
                0x00028d30                uart_read_bgbuf
                0x00028db8                uart_sleep
 .text          0x00028df4      0x370 c:/siliconlabs/simplicitystudio/v4/developer/toolchains/gnu_arm/4.9_2015q3/bin/../lib/gcc/arm-none-eabi/4.9.3/armv7e-m/softfp\libgcc.a(_arm_addsubdf3.o)
                0x00028df4                __aeabi_drsub
                0x00028dfc                __aeabi_dsub
                0x00028dfc                __subdf3
                0x00028e00                __aeabi_dadd
                0x00028e00                __adddf3
                0x00029078                __floatunsidf
                0x00029078                __aeabi_ui2d
                0x00029098                __floatsidf
                0x00029098                __aeabi_i2d
                0x000290bc                __aeabi_f2d
                0x000290bc                __extendsfdf2
                0x000290f8                __floatundidf
                0x000290f8                __aeabi_ul2d
                0x00029108                __floatdidf
                0x00029108                __aeabi_l2d
 .text          0x00029164      0x424 c:/siliconlabs/simplicitystudio/v4/developer/toolchains/gnu_arm/4.9_2015q3/bin/../lib/gcc/arm-none-eabi/4.9.3/armv7e-m/softfp\libgcc.a(_arm_muldivdf3.o)
                0x00029164                __aeabi_dmul
                0x00029164                __muldf3
                0x000293b8                __divdf3
                0x000293b8                __aeabi_ddiv
 .text          0x00029588       0x30 c:/siliconlabs/simplicitystudio/v4/developer/toolchains/gnu_arm/4.9_2015q3/bin/../lib/gcc/arm-none-eabi/4.9.3/armv7e-m/softfp\libgcc.a(_aeabi_uldivmod.o)
                0x00029588                __aeabi_uldivmod
 .text          0x000295b8       0x60 c:/siliconlabs/simplicitystudio/v4/developer/toolchains/gnu_arm/4.9_2015q3/bin/../lib/gcc/arm-none-eabi/4.9.3/armv7e-m/softfp\libgcc.a(bpabi.o)
                0x000295b8                __gnu_ldivmod_helper
                0x000295e8                __gnu_uldivmod_helper
 .text          0x00029618        0x4 c:/siliconlabs/simplicitystudio/v4/developer/toolchains/gnu_arm/4.9_2015q3/bin/../lib/gcc/arm-none-eabi/4.9.3/armv7e-m/softfp\libgcc.a(_dvmd_tls.o)
                0x00029618                __aeabi_idiv0
                0x00029618                __aeabi_ldiv0
 .text          0x0002961c      0x29c c:/siliconlabs/simplicitystudio/v4/developer/toolchains/gnu_arm/4.9_2015q3/bin/../lib/gcc/arm-none-eabi/4.9.3/armv7e-m/softfp\libgcc.a(_divdi3.o)
                0x0002961c                __divdi3
 .text          0x000298b8      0x26c c:/siliconlabs/simplicitystudio/v4/developer/toolchains/gnu_arm/4.9_2015q3/bin/../lib/gcc/arm-none-eabi/4.9.3/armv7e-m/softfp\libgcc.a(_udivdi3.o)
                0x000298b8                __udivdi3
 .text.exit     0x00029b24       0x20 c:/siliconlabs/simplicitystudio/v4/developer/toolchains/gnu_arm/4.9_2015q3/bin/../lib/gcc/arm-none-eabi/4.9.3/../../../../arm-none-eabi/lib/armv7e-m/softfp\libc.a(lib_a-exit.o)
                0x00029b24                exit
 .text.__libc_init_array
                0x00029b44       0x50 c:/siliconlabs/simplicitystudio/v4/developer/toolchains/gnu_arm/4.9_2015q3/bin/../lib/gcc/arm-none-eabi/4.9.3/../../../../arm-none-eabi/lib/armv7e-m/softfp\libc.a(lib_a-init.o)
                0x00029b44                __libc_init_array
 .text.memcmp   0x00029b94       0x64 c:/siliconlabs/simplicitystudio/v4/developer/toolchains/gnu_arm/4.9_2015q3/bin/../lib/gcc/arm-none-eabi/4.9.3/../../../../arm-none-eabi/lib/armv7e-m/softfp\libc.a(lib_a-memcmp.o)
                0x00029b94                memcmp
 .text          0x00029bf8      0x134 c:/siliconlabs/simplicitystudio/v4/developer/toolchains/gnu_arm/4.9_2015q3/bin/../lib/gcc/arm-none-eabi/4.9.3/../../../../arm-none-eabi/lib/armv7e-m/softfp\libc.a(lib_a-memcpy.o)
                0x00029bf8                memcpy
 .text.memset   0x00029d2c       0x9c c:/siliconlabs/simplicitystudio/v4/developer/toolchains/gnu_arm/4.9_2015q3/bin/../lib/gcc/arm-none-eabi/4.9.3/../../../../arm-none-eabi/lib/armv7e-m/softfp\libc.a(lib_a-memset.o)
                0x00029d2c                memset
 .text.snprintf
                0x00029dc8       0x9c c:/siliconlabs/simplicitystudio/v4/developer/toolchains/gnu_arm/4.9_2015q3/bin/../lib/gcc/arm-none-eabi/4.9.3/../../../../arm-none-eabi/lib/armv7e-m/softfp\libc.a(lib_a-snprintf.o)
                0x00029dc8                snprintf
 .text.strlen   0x00029e64       0x5c c:/siliconlabs/simplicitystudio/v4/developer/toolchains/gnu_arm/4.9_2015q3/bin/../lib/gcc/arm-none-eabi/4.9.3/../../../../arm-none-eabi/lib/armv7e-m/softfp\libc.a(lib_a-strlen.o)
                0x00029e64                strlen
 .text._svfprintf_r
                0x00029ec0     0x14d0 c:/siliconlabs/simplicitystudio/v4/developer/toolchains/gnu_arm/4.9_2015q3/bin/../lib/gcc/arm-none-eabi/4.9.3/../../../../arm-none-eabi/lib/armv7e-m/softfp\libc.a(lib_a-svfprintf.o)
                0x00029ec0                _svfprintf_r
 .text.startup.register_fini
                0x0002b390       0x14 c:/siliconlabs/simplicitystudio/v4/developer/toolchains/gnu_arm/4.9_2015q3/bin/../lib/gcc/arm-none-eabi/4.9.3/../../../../arm-none-eabi/lib/armv7e-m/softfp\libc.a(lib_a-__call_atexit.o)
 .text.__call_exitprocs
                0x0002b3a4       0xd4 c:/siliconlabs/simplicitystudio/v4/developer/toolchains/gnu_arm/4.9_2015q3/bin/../lib/gcc/arm-none-eabi/4.9.3/../../../../arm-none-eabi/lib/armv7e-m/softfp\libc.a(lib_a-__call_atexit.o)
                0x0002b3a4                __call_exitprocs
 .text.atexit   0x0002b478        0xc c:/siliconlabs/simplicitystudio/v4/developer/toolchains/gnu_arm/4.9_2015q3/bin/../lib/gcc/arm-none-eabi/4.9.3/../../../../arm-none-eabi/lib/armv7e-m/softfp\libc.a(lib_a-atexit.o)
                0x0002b478                atexit
 .text.quorem   0x0002b484      0x12c c:/siliconlabs/simplicitystudio/v4/developer/toolchains/gnu_arm/4.9_2015q3/bin/../lib/gcc/arm-none-eabi/4.9.3/../../../../arm-none-eabi/lib/armv7e-m/softfp\libc.a(lib_a-dtoa.o)
 .text._dtoa_r  0x0002b5b0      0xe90 c:/siliconlabs/simplicitystudio/v4/developer/toolchains/gnu_arm/4.9_2015q3/bin/../lib/gcc/arm-none-eabi/4.9.3/../../../../arm-none-eabi/lib/armv7e-m/softfp\libc.a(lib_a-dtoa.o)
                0x0002b5b0                _dtoa_r
 .text.__libc_fini_array
                0x0002c440       0x2c c:/siliconlabs/simplicitystudio/v4/developer/toolchains/gnu_arm/4.9_2015q3/bin/../lib/gcc/arm-none-eabi/4.9.3/../../../../arm-none-eabi/lib/armv7e-m/softfp\libc.a(lib_a-fini.o)
                0x0002c440                __libc_fini_array
 .text._localeconv_r
                0x0002c46c        0x8 c:/siliconlabs/simplicitystudio/v4/developer/toolchains/gnu_arm/4.9_2015q3/bin/../lib/gcc/arm-none-eabi/4.9.3/../../../../arm-none-eabi/lib/armv7e-m/softfp\libc.a(lib_a-locale.o)
                0x0002c46c                _localeconv_r
 .text._malloc_r
                0x0002c474      0x524 c:/siliconlabs/simplicitystudio/v4/developer/toolchains/gnu_arm/4.9_2015q3/bin/../lib/gcc/arm-none-eabi/4.9.3/../../../../arm-none-eabi/lib/armv7e-m/softfp\libc.a(lib_a-mallocr.o)
                0x0002c474                _malloc_r
 .text.memchr   0x0002c998       0x94 c:/siliconlabs/simplicitystudio/v4/developer/toolchains/gnu_arm/4.9_2015q3/bin/../lib/gcc/arm-none-eabi/4.9.3/../../../../arm-none-eabi/lib/armv7e-m/softfp\libc.a(lib_a-memchr.o)
                0x0002c998                memchr
 .text.__malloc_lock
                0x0002ca2c        0x4 c:/siliconlabs/simplicitystudio/v4/developer/toolchains/gnu_arm/4.9_2015q3/bin/../lib/gcc/arm-none-eabi/4.9.3/../../../../arm-none-eabi/lib/armv7e-m/softfp\libc.a(lib_a-mlock.o)
                0x0002ca2c                __malloc_lock
 .text.__malloc_unlock
                0x0002ca30        0x4 c:/siliconlabs/simplicitystudio/v4/developer/toolchains/gnu_arm/4.9_2015q3/bin/../lib/gcc/arm-none-eabi/4.9.3/../../../../arm-none-eabi/lib/armv7e-m/softfp\libc.a(lib_a-mlock.o)
                0x0002ca30                __malloc_unlock
 .text._Balloc  0x0002ca34       0x4c c:/siliconlabs/simplicitystudio/v4/developer/toolchains/gnu_arm/4.9_2015q3/bin/../lib/gcc/arm-none-eabi/4.9.3/../../../../arm-none-eabi/lib/armv7e-m/softfp\libc.a(lib_a-mprec.o)
                0x0002ca34                _Balloc
 .text._Bfree   0x0002ca80       0x14 c:/siliconlabs/simplicitystudio/v4/developer/toolchains/gnu_arm/4.9_2015q3/bin/../lib/gcc/arm-none-eabi/4.9.3/../../../../arm-none-eabi/lib/armv7e-m/softfp\libc.a(lib_a-mprec.o)
                0x0002ca80                _Bfree
 .text.__multadd
                0x0002ca94       0x84 c:/siliconlabs/simplicitystudio/v4/developer/toolchains/gnu_arm/4.9_2015q3/bin/../lib/gcc/arm-none-eabi/4.9.3/../../../../arm-none-eabi/lib/armv7e-m/softfp\libc.a(lib_a-mprec.o)
                0x0002ca94                __multadd
 .text.__hi0bits
                0x0002cb18       0x40 c:/siliconlabs/simplicitystudio/v4/developer/toolchains/gnu_arm/4.9_2015q3/bin/../lib/gcc/arm-none-eabi/4.9.3/../../../../arm-none-eabi/lib/armv7e-m/softfp\libc.a(lib_a-mprec.o)
                0x0002cb18                __hi0bits
 .text.__lo0bits
                0x0002cb58       0x5c c:/siliconlabs/simplicitystudio/v4/developer/toolchains/gnu_arm/4.9_2015q3/bin/../lib/gcc/arm-none-eabi/4.9.3/../../../../arm-none-eabi/lib/armv7e-m/softfp\libc.a(lib_a-mprec.o)
                0x0002cb58                __lo0bits
 .text.__i2b    0x0002cbb4       0x14 c:/siliconlabs/simplicitystudio/v4/developer/toolchains/gnu_arm/4.9_2015q3/bin/../lib/gcc/arm-none-eabi/4.9.3/../../../../arm-none-eabi/lib/armv7e-m/softfp\libc.a(lib_a-mprec.o)
                0x0002cbb4                __i2b
 .text.__multiply
                0x0002cbc8      0x134 c:/siliconlabs/simplicitystudio/v4/developer/toolchains/gnu_arm/4.9_2015q3/bin/../lib/gcc/arm-none-eabi/4.9.3/../../../../arm-none-eabi/lib/armv7e-m/softfp\libc.a(lib_a-mprec.o)
                0x0002cbc8                __multiply
 .text.__pow5mult
                0x0002ccfc       0xa0 c:/siliconlabs/simplicitystudio/v4/developer/toolchains/gnu_arm/4.9_2015q3/bin/../lib/gcc/arm-none-eabi/4.9.3/../../../../arm-none-eabi/lib/armv7e-m/softfp\libc.a(lib_a-mprec.o)
                0x0002ccfc                __pow5mult
 .text.__lshift
                0x0002cd9c       0xac c:/siliconlabs/simplicitystudio/v4/developer/toolchains/gnu_arm/4.9_2015q3/bin/../lib/gcc/arm-none-eabi/4.9.3/../../../../arm-none-eabi/lib/armv7e-m/softfp\libc.a(lib_a-mprec.o)
                0x0002cd9c                __lshift
 .text.__mcmp   0x0002ce48       0x48 c:/siliconlabs/simplicitystudio/v4/developer/toolchains/gnu_arm/4.9_2015q3/bin/../lib/gcc/arm-none-eabi/4.9.3/../../../../arm-none-eabi/lib/armv7e-m/softfp\libc.a(lib_a-mprec.o)
                0x0002ce48                __mcmp
 .text.__mdiff  0x0002ce90       0xd4 c:/siliconlabs/simplicitystudio/v4/developer/toolchains/gnu_arm/4.9_2015q3/bin/../lib/gcc/arm-none-eabi/4.9.3/../../../../arm-none-eabi/lib/armv7e-m/softfp\libc.a(lib_a-mprec.o)
                0x0002ce90                __mdiff
 .text.__d2b    0x0002cf64       0xb8 c:/siliconlabs/simplicitystudio/v4/developer/toolchains/gnu_arm/4.9_2015q3/bin/../lib/gcc/arm-none-eabi/4.9.3/../../../../arm-none-eabi/lib/armv7e-m/softfp\libc.a(lib_a-mprec.o)
                0x0002cf64                __d2b
 .text.__fpclassifyd
                0x0002d01c       0x58 c:/siliconlabs/simplicitystudio/v4/developer/toolchains/gnu_arm/4.9_2015q3/bin/../lib/gcc/arm-none-eabi/4.9.3/../../../../arm-none-eabi/lib/armv7e-m/softfp\libc.a(lib_a-s_fpclassify.o)
                0x0002d01c                __fpclassifyd
 .text._sbrk_r  0x0002d074       0x24 c:/siliconlabs/simplicitystudio/v4/developer/toolchains/gnu_arm/4.9_2015q3/bin/../lib/gcc/arm-none-eabi/4.9.3/../../../../arm-none-eabi/lib/armv7e-m/softfp\libc.a(lib_a-sbrkr.o)
                0x0002d074                _sbrk_r
 .text.__ssprint_r
                0x0002d098      0x104 c:/siliconlabs/simplicitystudio/v4/developer/toolchains/gnu_arm/4.9_2015q3/bin/../lib/gcc/arm-none-eabi/4.9.3/../../../../arm-none-eabi/lib/armv7e-m/softfp\libc.a(lib_a-svfiprintf.o)
                0x0002d098                __ssprint_r
 .text.__register_exitproc
                0x0002d19c       0xa4 c:/siliconlabs/simplicitystudio/v4/developer/toolchains/gnu_arm/4.9_2015q3/bin/../lib/gcc/arm-none-eabi/4.9.3/../../../../arm-none-eabi/lib/armv7e-m/softfp\libc.a(lib_a-__atexit.o)
                0x0002d19c                __register_exitproc
 .text._calloc_r
                0x0002d240       0x60 c:/siliconlabs/simplicitystudio/v4/developer/toolchains/gnu_arm/4.9_2015q3/bin/../lib/gcc/arm-none-eabi/4.9.3/../../../../arm-none-eabi/lib/armv7e-m/softfp\libc.a(lib_a-callocr.o)
                0x0002d240                _calloc_r
 .text._malloc_trim_r
                0x0002d2a0       0x9c c:/siliconlabs/simplicitystudio/v4/developer/toolchains/gnu_arm/4.9_2015q3/bin/../lib/gcc/arm-none-eabi/4.9.3/../../../../arm-none-eabi/lib/armv7e-m/softfp\libc.a(lib_a-freer.o)
                0x0002d2a0                _malloc_trim_r
 .text._free_r  0x0002d33c      0x1b0 c:/siliconlabs/simplicitystudio/v4/developer/toolchains/gnu_arm/4.9_2015q3/bin/../lib/gcc/arm-none-eabi/4.9.3/../../../../arm-none-eabi/lib/armv7e-m/softfp\libc.a(lib_a-freer.o)
                0x0002d33c                _free_r
 .text.memmove  0x0002d4ec       0xc8 c:/siliconlabs/simplicitystudio/v4/developer/toolchains/gnu_arm/4.9_2015q3/bin/../lib/gcc/arm-none-eabi/4.9.3/../../../../arm-none-eabi/lib/armv7e-m/softfp\libc.a(lib_a-memmove.o)
                0x0002d4ec                memmove
 .text._realloc_r
                0x0002d5b4      0x3ec c:/siliconlabs/simplicitystudio/v4/developer/toolchains/gnu_arm/4.9_2015q3/bin/../lib/gcc/arm-none-eabi/4.9.3/../../../../arm-none-eabi/lib/armv7e-m/softfp\libc.a(lib_a-reallocr.o)
                0x0002d5b4                _realloc_r
 .text._sbrk    0x0002d9a0       0x1c c:/siliconlabs/simplicitystudio/v4/developer/toolchains/gnu_arm/4.9_2015q3/bin/../lib/gcc/arm-none-eabi/4.9.3/../../../../arm-none-eabi/lib/armv7e-m/softfp\libnosys.a(sbrk.o)
                0x0002d9a0                _sbrk
 .text._exit    0x0002d9bc        0x4 c:/siliconlabs/simplicitystudio/v4/developer/toolchains/gnu_arm/4.9_2015q3/bin/../lib/gcc/arm-none-eabi/4.9.3/../../../../arm-none-eabi/lib/armv7e-m/softfp\libnosys.a(_exit.o)
                0x0002d9bc                _exit
 .text          0x0002d9c0      0x110 c:/siliconlabs/simplicitystudio/v4/developer/toolchains/gnu_arm/4.9_2015q3/bin/../lib/gcc/arm-none-eabi/4.9.3/armv7e-m/softfp\libgcc.a(_arm_cmpdf2.o)
                0x0002d9c0                __gtdf2
                0x0002d9c0                __gedf2
                0x0002d9c8                __ltdf2
                0x0002d9c8                __ledf2
                0x0002d9d0                __nedf2
                0x0002d9d0                __eqdf2
                0x0002d9d0                __cmpdf2
                0x0002da4c                __aeabi_cdrcmple
                0x0002da5c                __aeabi_cdcmpeq
                0x0002da5c                __aeabi_cdcmple
                0x0002da6c                __aeabi_dcmpeq
                0x0002da80                __aeabi_dcmplt
                0x0002da94                __aeabi_dcmple
                0x0002daa8                __aeabi_dcmpge
                0x0002dabc                __aeabi_dcmpgt
 .text          0x0002dad0       0x50 c:/siliconlabs/simplicitystudio/v4/developer/toolchains/gnu_arm/4.9_2015q3/bin/../lib/gcc/arm-none-eabi/4.9.3/armv7e-m/softfp\libgcc.a(_arm_fixdfsi.o)
                0x0002dad0                __aeabi_d2iz
                0x0002dad0                __fixdfsi
 *(.init)
 .init          0x0002db20        0x4 c:/siliconlabs/simplicitystudio/v4/developer/toolchains/gnu_arm/4.9_2015q3/bin/../lib/gcc/arm-none-eabi/4.9.3/armv7e-m/softfp/crti.o
                0x0002db20                _init
 .init          0x0002db24        0x8 c:/siliconlabs/simplicitystudio/v4/developer/toolchains/gnu_arm/4.9_2015q3/bin/../lib/gcc/arm-none-eabi/4.9.3/armv7e-m/softfp/crtn.o
 *(.fini)
 .fini          0x0002db2c        0x4 c:/siliconlabs/simplicitystudio/v4/developer/toolchains/gnu_arm/4.9_2015q3/bin/../lib/gcc/arm-none-eabi/4.9.3/armv7e-m/softfp/crti.o
                0x0002db2c                _fini
 .fini          0x0002db30        0x8 c:/siliconlabs/simplicitystudio/v4/developer/toolchains/gnu_arm/4.9_2015q3/bin/../lib/gcc/arm-none-eabi/4.9.3/armv7e-m/softfp/crtn.o
 *crtbegin.o(.ctors)
 *crtbegin?.o(.ctors)
 *(EXCLUDE_FILE(*crtend.o *crtend?.o) .ctors)
 *(SORT(.ctors.*))
 *(.ctors)
 *crtbegin.o(.dtors)
 *crtbegin?.o(.dtors)
 *(EXCLUDE_FILE(*crtend.o *crtend?.o) .dtors)
 *(SORT(.dtors.*))
 *(.dtors)
 *(.rodata*)
 .rodata        0x0002db38       0x1f ./advertisement.o
 *fill*         0x0002db57        0x1 
 .rodata        0x0002db58        0x7 ./app.o
 *fill*         0x0002db5f        0x1 
 .rodata        0x0002db60       0x17 ./beacon.o
 *fill*         0x0002db77        0x1 
 .rodata.ptiInit
                0x0002db78       0x24 ./main.o
 .rodata        0x0002db9c        0x4 ./main.o
 .rodata.config
                0x0002dba0       0xe8 ./main.o
 .rodata        0x0002dc88        0x4 ./bgapi/dmadrv.o
 .rodata.i2cNSum
                0x0002dc8c        0x4 ./emlib/em_i2c.o
 .rodata.ledArray
                0x0002dc90       0x10 ./kit/BRD4100A/bsp_stk_leds.o
 .rodata        0x0002dca0       0x24 ./kit_flashpwr/BRD4100A/mx25flash_spi.o
 .rodata        0x0002dcc4       0x60 ./src/InitDevice.o
 .rodata        0x0002dd24       0x78 C:/SiliconLabs/SimplicityStudio/v4/developer/sdks/gecko_sdk_suite/v1.0//protocol/bluetooth_2.3/lib/EFR32BG1P/GCC/bgapi.a(gecko_bgapi_hardware.c.obj)
 .rodata        0x0002dd9c       0x30 C:/SiliconLabs/SimplicityStudio/v4/developer/sdks/gecko_sdk_suite/v1.0//protocol/bluetooth_2.3/lib/EFR32BG1P/GCC/bgapi.a(gecko_bgapi_test.c.obj)
 .rodata        0x0002ddcc       0x18 C:/SiliconLabs/SimplicityStudio/v4/developer/sdks/gecko_sdk_suite/v1.0//protocol/bluetooth_2.3/lib/EFR32BG1P/GCC/bgapi.a(gecko_bgapi_util.c.obj)
 .rodata        0x0002dde4       0x28 C:/SiliconLabs/SimplicityStudio/v4/developer/sdks/gecko_sdk_suite/v1.0//protocol/bluetooth_2.3/lib/EFR32BG1P/GCC/bgapi.a(gecko_bgapi_dfu.c.obj)
 .rodata        0x0002de0c       0x70 C:/SiliconLabs/SimplicityStudio/v4/developer/sdks/gecko_sdk_suite/v1.0//protocol/bluetooth_2.3/lib/EFR32BG1P/GCC/bgapi.a(gecko_bgapi_gap.c.obj)
 .rodata        0x0002de7c       0xa0 C:/SiliconLabs/SimplicityStudio/v4/developer/sdks/gecko_sdk_suite/v1.0//protocol/bluetooth_2.3/lib/EFR32BG1P/GCC/bgapi.a(gecko_bgapi_gatt.c.obj)
 .rodata        0x0002df1c       0x48 C:/SiliconLabs/SimplicityStudio/v4/developer/sdks/gecko_sdk_suite/v1.0//protocol/bluetooth_2.3/lib/EFR32BG1P/GCC/bgapi.a(gecko_bgapi_gatt_server.c.obj)
 .rodata        0x0002df64       0x30 C:/SiliconLabs/SimplicityStudio/v4/developer/sdks/gecko_sdk_suite/v1.0//protocol/bluetooth_2.3/lib/EFR32BG1P/GCC/bgapi.a(gecko_bgapi_flash.c.obj)
 .rodata        0x0002df94       0x80 C:/SiliconLabs/SimplicityStudio/v4/developer/sdks/gecko_sdk_suite/v1.0//protocol/bluetooth_2.3/lib/EFR32BG1P/GCC/bgapi.a(gecko_bgapi_sm.c.obj)
 .rodata        0x0002e014       0x38 C:/SiliconLabs/SimplicityStudio/v4/developer/sdks/gecko_sdk_suite/v1.0//protocol/bluetooth_2.3/lib/EFR32BG1P/GCC/bgapi.a(gecko_bgapi_system.c.obj)
 .rodata        0x0002e04c       0x38 C:/SiliconLabs/SimplicityStudio/v4/developer/sdks/gecko_sdk_suite/v1.0//protocol/bluetooth_2.3/lib/EFR32BG1P/GCC/bgapi.a(gecko_bgapi_endpoint.c.obj)
 .rodata        0x0002e084       0x28 C:/SiliconLabs/SimplicityStudio/v4/developer/sdks/gecko_sdk_suite/v1.0//protocol/bluetooth_2.3/lib/EFR32BG1P/GCC/bgapi.a(gecko_bgapi_le_connection.c.obj)
 .rodata        0x0002e0ac       0x18 C:/SiliconLabs/SimplicityStudio/v4/developer/sdks/gecko_sdk_suite/v1.0//protocol/bluetooth_2.3/lib/EFR32BG1P/GCC/bgapi.a(bgapi_sm.c.obj)
 .rodata        0x0002e0c4       0x18 C:/SiliconLabs/SimplicityStudio/v4/developer/sdks/gecko_sdk_suite/v1.0//protocol/bluetooth_2.3/lib/EFR32BG1P/GCC/bgapi.a(adc.c.obj)
 .rodata        0x0002e0dc       0x40 C:/SiliconLabs/SimplicityStudio/v4/developer/sdks/gecko_sdk_suite/v1.0//protocol/bluetooth_2.3/lib/EFR32BG1P/GCC/bgapi.a(gpio.c.obj)
 .rodata        0x0002e11c       0x10 C:/SiliconLabs/SimplicityStudio/v4/developer/sdks/gecko_sdk_suite/v1.0//protocol/bluetooth_2.3/lib/EFR32BG1P/GCC/bgapi.a(i2c.c.obj)
 .rodata        0x0002e12c       0x60 C:/SiliconLabs/SimplicityStudio/v4/developer/sdks/gecko_sdk_suite/v1.0//protocol/bluetooth_2.3/lib/EFR32BG1P/GCC/bgapi.a(uart.c.obj)
 .rodata.str1.4
                0x0002e18c        0x2 c:/siliconlabs/simplicitystudio/v4/developer/toolchains/gnu_arm/4.9_2015q3/bin/../lib/gcc/arm-none-eabi/4.9.3/../../../../arm-none-eabi/lib/armv7e-m/softfp\libc.a(lib_a-impure.o)
 *fill*         0x0002e18e        0x2 
 .rodata._global_impure_ptr
                0x0002e190        0x4 c:/siliconlabs/simplicitystudio/v4/developer/toolchains/gnu_arm/4.9_2015q3/bin/../lib/gcc/arm-none-eabi/4.9.3/../../../../arm-none-eabi/lib/armv7e-m/softfp\libc.a(lib_a-impure.o)
                0x0002e190                _global_impure_ptr
 .rodata.zeroes.6911
                0x0002e194       0x10 c:/siliconlabs/simplicitystudio/v4/developer/toolchains/gnu_arm/4.9_2015q3/bin/../lib/gcc/arm-none-eabi/4.9.3/../../../../arm-none-eabi/lib/armv7e-m/softfp\libc.a(lib_a-svfprintf.o)
 .rodata.blanks.6910
                0x0002e1a4       0x10 c:/siliconlabs/simplicitystudio/v4/developer/toolchains/gnu_arm/4.9_2015q3/bin/../lib/gcc/arm-none-eabi/4.9.3/../../../../arm-none-eabi/lib/armv7e-m/softfp\libc.a(lib_a-svfprintf.o)
 .rodata.str1.4
                0x0002e1b4       0x42 c:/siliconlabs/simplicitystudio/v4/developer/toolchains/gnu_arm/4.9_2015q3/bin/../lib/gcc/arm-none-eabi/4.9.3/../../../../arm-none-eabi/lib/armv7e-m/softfp\libc.a(lib_a-svfprintf.o)
 *fill*         0x0002e1f6        0x2 
 .rodata.str1.4
                0x0002e1f8       0x10 c:/siliconlabs/simplicitystudio/v4/developer/toolchains/gnu_arm/4.9_2015q3/bin/../lib/gcc/arm-none-eabi/4.9.3/../../../../arm-none-eabi/lib/armv7e-m/softfp\libc.a(lib_a-dtoa.o)
                                 0x12 (size before relaxing)
 .rodata.str1.4
                0x0002e208        0xc c:/siliconlabs/simplicitystudio/v4/developer/toolchains/gnu_arm/4.9_2015q3/bin/../lib/gcc/arm-none-eabi/4.9.3/../../../../arm-none-eabi/lib/armv7e-m/softfp\libc.a(lib_a-locale.o)
                                 0x12 (size before relaxing)
 *fill*         0x0002e214        0x4 
 .rodata.__mprec_tens
                0x0002e218       0xc8 c:/siliconlabs/simplicitystudio/v4/developer/toolchains/gnu_arm/4.9_2015q3/bin/../lib/gcc/arm-none-eabi/4.9.3/../../../../arm-none-eabi/lib/armv7e-m/softfp\libc.a(lib_a-mprec.o)
                0x0002e218                __mprec_tens
 .rodata.p05.5302
                0x0002e2e0        0xc c:/siliconlabs/simplicitystudio/v4/developer/toolchains/gnu_arm/4.9_2015q3/bin/../lib/gcc/arm-none-eabi/4.9.3/../../../../arm-none-eabi/lib/armv7e-m/softfp\libc.a(lib_a-mprec.o)
 *fill*         0x0002e2ec        0x4 
 .rodata.__mprec_bigtens
                0x0002e2f0       0x28 c:/siliconlabs/simplicitystudio/v4/developer/toolchains/gnu_arm/4.9_2015q3/bin/../lib/gcc/arm-none-eabi/4.9.3/../../../../arm-none-eabi/lib/armv7e-m/softfp\libc.a(lib_a-mprec.o)
                0x0002e2f0                __mprec_bigtens
 *(.eh_frame*)
 .eh_frame      0x0002e318        0x0 c:/siliconlabs/simplicitystudio/v4/developer/toolchains/gnu_arm/4.9_2015q3/bin/../lib/gcc/arm-none-eabi/4.9.3/armv7e-m/softfp/crtbegin.o
 .eh_frame      0x0002e318        0x0 c:/siliconlabs/simplicitystudio/v4/developer/toolchains/gnu_arm/4.9_2015q3/bin/../lib/gcc/arm-none-eabi/4.9.3/../../../../arm-none-eabi/lib/armv7e-m/softfp\libc.a(lib_a-strcmp.o)
                                 0x70 (size before relaxing)
 .eh_frame      0x0002e318        0x4 c:/siliconlabs/simplicitystudio/v4/developer/toolchains/gnu_arm/4.9_2015q3/bin/../lib/gcc/arm-none-eabi/4.9.3/armv7e-m/softfp/crtend.o
                0x0002e31c                . = ALIGN (0x4)

.glue_7         0x0002e31c        0x0
 .glue_7        0x00000000        0x0 linker stubs

.glue_7t        0x0002e31c        0x0
 .glue_7t       0x00000000        0x0 linker stubs

.vfp11_veneer   0x0002e31c        0x0
 .vfp11_veneer  0x00000000        0x0 linker stubs

.v4_bx          0x0002e31c        0x0
 .v4_bx         0x00000000        0x0 linker stubs

.iplt           0x0002e31c        0x0
 .iplt          0x00000000        0x0 c:/siliconlabs/simplicitystudio/v4/developer/toolchains/gnu_arm/4.9_2015q3/bin/../lib/gcc/arm-none-eabi/4.9.3/armv7e-m/softfp/crtbegin.o

.igot.plt       0x0002e31c        0x0
 .igot.plt      0x00000000        0x0 c:/siliconlabs/simplicitystudio/v4/developer/toolchains/gnu_arm/4.9_2015q3/bin/../lib/gcc/arm-none-eabi/4.9.3/armv7e-m/softfp/crtbegin.o

.text_app_ARM.extab
 *(.ARM.extab* .gnu.linkonce.armextab.*)
                0x0002e31c                __exidx_start = .

.text_app_ARM.exidx
                0x0002e31c        0x8
 *(.ARM.exidx* .gnu.linkonce.armexidx.*)
 .ARM.exidx     0x0002e31c        0x8 c:/siliconlabs/simplicitystudio/v4/developer/toolchains/gnu_arm/4.9_2015q3/bin/../lib/gcc/arm-none-eabi/4.9.3/../../../../arm-none-eabi/lib/armv7e-m/softfp/crt0.o
 .ARM.exidx     0x0002e324        0x0 c:/siliconlabs/simplicitystudio/v4/developer/toolchains/gnu_arm/4.9_2015q3/bin/../lib/gcc/arm-none-eabi/4.9.3/armv7e-m/softfp\libgcc.a(_divdi3.o)
                                  0x8 (size before relaxing)
 .ARM.exidx     0x0002e324        0x0 c:/siliconlabs/simplicitystudio/v4/developer/toolchains/gnu_arm/4.9_2015q3/bin/../lib/gcc/arm-none-eabi/4.9.3/armv7e-m/softfp\libgcc.a(_udivdi3.o)
                                  0x8 (size before relaxing)
                0x0002e324                __exidx_end = .
                0x0002e324                __etext = .

.rel.dyn        0x0002e324        0x0
 .rel.iplt      0x00000000        0x0 c:/siliconlabs/simplicitystudio/v4/developer/toolchains/gnu_arm/4.9_2015q3/bin/../lib/gcc/arm-none-eabi/4.9.3/armv7e-m/softfp/crtbegin.o

.text_app_data  0x20003000      0x904 load address 0x0002e324
                0x20003000                __data_start__ = .
 *(vtable)
 *(.data*)
 .data.advConnectableMode
                0x20003000        0x1 ./advertisement.o
 *fill*         0x20003001        0x3 
 .data.state    0x20003004        0x4 ./app.o
 .data.appUiLedSeqOffReq
                0x20003008        0x8 ./app_ui.o
 .data.activeReq.9130
                0x20003010        0x4 ./app_ui.o
 .data.button0Released.9134
                0x20003014        0x1 ./app_ui.o
 .data.button1Released.9135
                0x20003015        0x1 ./app_ui.o
 *fill*         0x20003016        0x2 
 .data.bcnBeaconAdvData
                0x20003018       0x1e ./beacon.o
 *fill*         0x20003036        0x2 
 .data.bg_gattdb_data_attribute_field_26_data
                0x20003038        0x1 ./gatt_db.o
                0x20003038                bg_gattdb_data_attribute_field_26_data
 *fill*         0x20003039        0x3 
 .data.bg_gattdb_data_attribute_field_17_data
                0x2000303c        0x1 ./gatt_db.o
                0x2000303c                bg_gattdb_data_attribute_field_17_data
 *fill*         0x2000303d        0x3 
 .data.bg_gattdb_data_attribute_field_6_data
                0x20003040        0x5 ./gatt_db.o
                0x20003040                bg_gattdb_data_attribute_field_6_data
 *fill*         0x20003045        0x3 
 .data.auxHfrcoFreq
                0x20003048        0x4 ./emlib/em_cmu.o
 .data          0x2000304c        0x1 C:/SiliconLabs/SimplicityStudio/v4/developer/sdks/gecko_sdk_suite/v1.0//protocol/bluetooth_2.3/lib/EFR32BG1P/GCC/bgapi.a(bgapi_endpoint.c.obj)
 *fill*         0x2000304d        0x3 
 .data          0x20003050       0x30 C:/SiliconLabs/SimplicityStudio/v4/developer/sdks/gecko_sdk_suite/v1.0//protocol/bluetooth_2.3/lib/EFR32BG1P/GCC/bgapi.a(adc.c.obj)
 .data.impure_data
                0x20003080      0x428 c:/siliconlabs/simplicitystudio/v4/developer/toolchains/gnu_arm/4.9_2015q3/bin/../lib/gcc/arm-none-eabi/4.9.3/../../../../arm-none-eabi/lib/armv7e-m/softfp\libc.a(lib_a-impure.o)
 .data._impure_ptr
                0x200034a8        0x4 c:/siliconlabs/simplicitystudio/v4/developer/toolchains/gnu_arm/4.9_2015q3/bin/../lib/gcc/arm-none-eabi/4.9.3/../../../../arm-none-eabi/lib/armv7e-m/softfp\libc.a(lib_a-impure.o)
                0x200034a8                _impure_ptr
 .data.lconv    0x200034ac       0x38 c:/siliconlabs/simplicitystudio/v4/developer/toolchains/gnu_arm/4.9_2015q3/bin/../lib/gcc/arm-none-eabi/4.9.3/../../../../arm-none-eabi/lib/armv7e-m/softfp\libc.a(lib_a-locale.o)
 .data.__malloc_av_
                0x200034e4      0x408 c:/siliconlabs/simplicitystudio/v4/developer/toolchains/gnu_arm/4.9_2015q3/bin/../lib/gcc/arm-none-eabi/4.9.3/../../../../arm-none-eabi/lib/armv7e-m/softfp\libc.a(lib_a-mallocr.o)
                0x200034e4                __malloc_av_
 .data.__malloc_trim_threshold
                0x200038ec        0x4 c:/siliconlabs/simplicitystudio/v4/developer/toolchains/gnu_arm/4.9_2015q3/bin/../lib/gcc/arm-none-eabi/4.9.3/../../../../arm-none-eabi/lib/armv7e-m/softfp\libc.a(lib_a-mallocr.o)
                0x200038ec                __malloc_trim_threshold
 .data.__malloc_sbrk_base
                0x200038f0        0x4 c:/siliconlabs/simplicitystudio/v4/developer/toolchains/gnu_arm/4.9_2015q3/bin/../lib/gcc/arm-none-eabi/4.9.3/../../../../arm-none-eabi/lib/armv7e-m/softfp\libc.a(lib_a-mallocr.o)
                0x200038f0                __malloc_sbrk_base
                0x200038f4                . = ALIGN (0x4)
 *(.ram)
                0x200038f4                . = ALIGN (0x4)
                0x200038f4                PROVIDE (__preinit_array_start, .)
 *(.preinit_array)
                0x200038f4                PROVIDE (__preinit_array_end, .)
                0x200038f4                . = ALIGN (0x4)
                0x200038f4                PROVIDE (__init_array_start, .)
 *(SORT(.init_array.*))
 .init_array.00000
                0x200038f4        0x4 c:/siliconlabs/simplicitystudio/v4/developer/toolchains/gnu_arm/4.9_2015q3/bin/../lib/gcc/arm-none-eabi/4.9.3/../../../../arm-none-eabi/lib/armv7e-m/softfp\libc.a(lib_a-__call_atexit.o)
 *(.init_array)
 .init_array    0x200038f8        0x4 c:/siliconlabs/simplicitystudio/v4/developer/toolchains/gnu_arm/4.9_2015q3/bin/../lib/gcc/arm-none-eabi/4.9.3/armv7e-m/softfp/crtbegin.o
                0x200038fc                PROVIDE (__init_array_end, .)
                0x200038fc                . = ALIGN (0x4)
                0x200038fc                PROVIDE (__fini_array_start, .)
 *(SORT(.fini_array.*))
 *(.fini_array)
 .fini_array    0x200038fc        0x4 c:/siliconlabs/simplicitystudio/v4/developer/toolchains/gnu_arm/4.9_2015q3/bin/../lib/gcc/arm-none-eabi/4.9.3/armv7e-m/softfp/crtbegin.o
                0x20003900                PROVIDE (__fini_array_end, .)
 *(.jcr*)
 .jcr           0x20003900        0x0 c:/siliconlabs/simplicitystudio/v4/developer/toolchains/gnu_arm/4.9_2015q3/bin/../lib/gcc/arm-none-eabi/4.9.3/armv7e-m/softfp/crtbegin.o
 .jcr           0x20003900        0x4 c:/siliconlabs/simplicitystudio/v4/developer/toolchains/gnu_arm/4.9_2015q3/bin/../lib/gcc/arm-none-eabi/4.9.3/armv7e-m/softfp/crtend.o
                0x20003904                . = ALIGN (0x4)
                0x20003904                __data_end__ = .

.bss            0x20003904     0x1d9c load address 0x0002ec28
                0x20003904                . = ALIGN (0x4)
                0x20003904                __bss_start__ = .
 *(.bss*)
 .bss           0x20003904       0x1c c:/siliconlabs/simplicitystudio/v4/developer/toolchains/gnu_arm/4.9_2015q3/bin/../lib/gcc/arm-none-eabi/4.9.3/armv7e-m/softfp/crtbegin.o
 .bss.advIsConnected
                0x20003920        0x1 ./advertisement.o
 .bss.slave_bluetooth_addr_type
                0x20003921        0x1 ./app.o
                0x20003921                slave_bluetooth_addr_type
 .bss.slave_conn_handle
                0x20003922        0x1 ./app.o
                0x20003922                slave_conn_handle
 *fill*         0x20003923        0x1 
 .bss.slave_service_handle
                0x20003924        0x4 ./app.o
                0x20003924                slave_service_handle
 .bss.slave_characteristic_handle
                0x20003928        0x2 ./app.o
                0x20003928                slave_characteristic_handle
 .bss.slave_characteristic_connection
                0x2000392a        0x1 ./app.o
                0x2000392a                slave_characteristic_connection
 .bss.boot_to_dfu.9220
                0x2000392b        0x1 ./app.o
 .bss.appUiBtn  0x2000392c        0x4 ./app_ui.o
 .bss.appUiLedSeqOff
                0x20003930        0x2 ./app_ui.o
 *fill*         0x20003932        0x2 
 .bss.appUiLedSeqReq
                0x20003934        0x4 ./app_ui.o
 .bss.pos.9129  0x20003938        0x1 ./app_ui.o
 *fill*         0x20003939        0x1 
 .bss.button0Time.9136
                0x2000393a        0x2 ./app_ui.o
 .bss.button1Time.9137
                0x2000393c        0x2 ./app_ui.o
 *fill*         0x2000393e        0x2 
 .bss.bg_gattdb_data_attribute_field_29_data
                0x20003940        0x2 ./gatt_db.o
                0x20003940                bg_gattdb_data_attribute_field_29_data
 *fill*         0x20003942        0x2 
 .bss.bg_gattdb_data_attribute_field_20_data
                0x20003944        0x1 ./gatt_db.o
                0x20003944                bg_gattdb_data_attribute_field_20_data
 *fill*         0x20003945        0x3 
 .bss.bg_gattdb_data_attribute_field_14_data
                0x20003948        0xd ./gatt_db.o
                0x20003948                bg_gattdb_data_attribute_field_14_data
 *fill*         0x20003955        0x3 
 .bss.bg_gattdb_data_attribute_field_2_data
                0x20003958        0x4 ./gatt_db.o
                0x20003958                bg_gattdb_data_attribute_field_2_data
 .bss.glibContext
                0x2000395c       0x2c ./graphics.o
 .bss.graphLineNum
                0x20003988        0x1 ./graphics.o
 *fill*         0x20003989        0x3 
 .bss.deviceHeader
                0x2000398c        0x4 ./graphics.o
 .bss.initialized
                0x20003990        0x1 ./bgapi/dmadrv.o
 *fill*         0x20003991        0x3 
 .bss.chTable   0x20003994       0xa0 ./bgapi/dmadrv.o
 .bss.dmaXfer   0x20003a34      0x100 ./bgapi/dmadrv.o
 .bss.moduleInitialized
                0x20003b34        0x1 ./glib/BRD4100A/dmd_display.o
 *fill*         0x20003b35        0x3 
 .bss.displayDevice
                0x20003b38       0x30 ./glib/BRD4100A/dmd_display.o
 .bss.pixelMatrixBuffer
                0x20003b68        0x4 ./glib/BRD4100A/dmd_display.o
 .bss.dimensions
                0x20003b6c        0xc ./glib/BRD4100A/dmd_display.o
 .bss           0x20003b78      0x100 C:/SiliconLabs/SimplicityStudio/v4/developer/sdks/gecko_sdk_suite/v1.0//protocol/bluetooth_2.3/lib/EFR32BG1P/GCC/bgapi.a(bgapi_hardware_lib.c.obj)
 .bss           0x20003c78        0x4 C:/SiliconLabs/SimplicityStudio/v4/developer/sdks/gecko_sdk_suite/v1.0//protocol/bluetooth_2.3/lib/EFR32BG1P/GCC/bgapi.a(bgapi_hardware.c.obj)
 .bss           0x20003c7c       0x10 C:/SiliconLabs/SimplicityStudio/v4/developer/sdks/gecko_sdk_suite/v1.0//protocol/bluetooth_2.3/lib/EFR32BG1P/GCC/bgapi.a(bgapi_util.c.obj)
 .bss           0x20003c8c        0x2 C:/SiliconLabs/SimplicityStudio/v4/developer/sdks/gecko_sdk_suite/v1.0//protocol/bluetooth_2.3/lib/EFR32BG1P/GCC/bgapi.a(bgapi_gap.c.obj)
                0x20003c8c                legacy_maxadv_events
 *fill*         0x20003c8e        0x2 
 .bss           0x20003c90        0x4 C:/SiliconLabs/SimplicityStudio/v4/developer/sdks/gecko_sdk_suite/v1.0//protocol/bluetooth_2.3/lib/EFR32BG1P/GCC/bgapi.a(bgapi_sm.c.obj)
 .bss           0x20003c94        0xc C:/SiliconLabs/SimplicityStudio/v4/developer/sdks/gecko_sdk_suite/v1.0//protocol/bluetooth_2.3/lib/EFR32BG1P/GCC/bgapi.a(bgapi_endpoint.c.obj)
 .bss           0x20003ca0        0x4 C:/SiliconLabs/SimplicityStudio/v4/developer/sdks/gecko_sdk_suite/v1.0//protocol/bluetooth_2.3/lib/EFR32BG1P/GCC/bgapi.a(adc.c.obj)
 .bss           0x20003ca4        0x2 C:/SiliconLabs/SimplicityStudio/v4/developer/sdks/gecko_sdk_suite/v1.0//protocol/bluetooth_2.3/lib/EFR32BG1P/GCC/bgapi.a(i2c.c.obj)
 *fill*         0x20003ca6        0x2 
 .bss           0x20003ca8       0x2c C:/SiliconLabs/SimplicityStudio/v4/developer/sdks/gecko_sdk_suite/v1.0//protocol/bluetooth_2.3/lib/EFR32BG1P/GCC/bgapi.a(sleep_signal.c.obj)
                0x20003cbc                sleep_signal_mask
                0x20003cd0                host_wakeup_signal_mask
 .bss           0x20003cd4       0x70 C:/SiliconLabs/SimplicityStudio/v4/developer/sdks/gecko_sdk_suite/v1.0//protocol/bluetooth_2.3/lib/EFR32BG1P/GCC/bgapi.a(uart.c.obj)
 .bss.__malloc_max_total_mem
                0x20003d44        0x4 c:/siliconlabs/simplicitystudio/v4/developer/toolchains/gnu_arm/4.9_2015q3/bin/../lib/gcc/arm-none-eabi/4.9.3/../../../../arm-none-eabi/lib/armv7e-m/softfp\libc.a(lib_a-mallocr.o)
                0x20003d44                __malloc_max_total_mem
 .bss.__malloc_max_sbrked_mem
                0x20003d48        0x4 c:/siliconlabs/simplicitystudio/v4/developer/toolchains/gnu_arm/4.9_2015q3/bin/../lib/gcc/arm-none-eabi/4.9.3/../../../../arm-none-eabi/lib/armv7e-m/softfp\libc.a(lib_a-mallocr.o)
                0x20003d48                __malloc_max_sbrked_mem
 .bss.__malloc_top_pad
                0x20003d4c        0x4 c:/siliconlabs/simplicitystudio/v4/developer/toolchains/gnu_arm/4.9_2015q3/bin/../lib/gcc/arm-none-eabi/4.9.3/../../../../arm-none-eabi/lib/armv7e-m/softfp\libc.a(lib_a-mallocr.o)
                0x20003d4c                __malloc_top_pad
 .bss.__malloc_current_mallinfo
                0x20003d50       0x28 c:/siliconlabs/simplicitystudio/v4/developer/toolchains/gnu_arm/4.9_2015q3/bin/../lib/gcc/arm-none-eabi/4.9.3/../../../../arm-none-eabi/lib/armv7e-m/softfp\libc.a(lib_a-mallocr.o)
                0x20003d50                __malloc_current_mallinfo
 .bss.heap_end.4079
                0x20003d78        0x4 c:/siliconlabs/simplicitystudio/v4/developer/toolchains/gnu_arm/4.9_2015q3/bin/../lib/gcc/arm-none-eabi/4.9.3/../../../../arm-none-eabi/lib/armv7e-m/softfp\libnosys.a(sbrk.o)
 *(COMMON)
 COMMON         0x20003d7c       0x2d ./app.o
                0x20003d7c                temp_service_uuid
                0x20003d80                slave_service_uuid
                0x20003d84                temp_service_uuid_string
                0x20003d89                security_mode
                0x20003d8c                slave_bluetooth_addr
                0x20003d92                char_rcvd_data
                0x20003d94                txsize
                0x20003d96                interval
                0x20003d98                timeout
                0x20003d9c                temp_char_uuid
                0x20003d9e                result
                0x20003da0                latency
                0x20003da4                htmHumidityMeas
                0x20003da6                connection
                0x20003da8                slave_characteristic_uuid
 *fill*         0x20003da9        0x3 
 COMMON         0x20003dac     0x18d0 ./main.o
                0x20003dac                bluetooth_stack_heap
 COMMON         0x2000567c       0x10 ./glib/BRD4100A/dmd_display.o
                0x2000567c                dirtyRows
 COMMON         0x2000568c        0xc C:/SiliconLabs/SimplicityStudio/v4/developer/sdks/gecko_sdk_suite/v1.0//protocol/bluetooth_2.3/lib/EFR32BG1P/GCC/bgapi.a(uart_endpoint.c.obj)
                0x2000568c                uarts
 COMMON         0x20005698        0x1 C:/SiliconLabs/SimplicityStudio/v4/developer/sdks/gecko_sdk_suite/v1.0//protocol/bluetooth_2.3/lib/EFR32BG1P/GCC/bgapi.a(gpio.c.obj)
                0x20005698                gpio_events
 *fill*         0x20005699        0x3 
 COMMON         0x2000569c        0x4 c:/siliconlabs/simplicitystudio/v4/developer/toolchains/gnu_arm/4.9_2015q3/bin/../lib/gcc/arm-none-eabi/4.9.3/../../../../arm-none-eabi/lib/armv7e-m/softfp\libc.a(lib_a-reent.o)
                0x2000569c                errno
                0x200056a0                . = ALIGN (0x4)
                0x200056a0                __bss_end__ = .

.heap           0x200056a0      0xc00
                0x200056a0                __HeapBase = .
                0x200056a0                __end__ = .
                0x200056a0                end = __end__
                0x200056a0                _end = __end__
 *(.heap*)
 .heap          0x200056a0      0xc00 ./device/EFR32_B_1_1_P/gcc/startup_efr32bg1p.o
                0x200062a0                __HeapLimit = .

.stack_dummy    0x200062a0      0x400
 *(.stack*)
 .stack         0x200062a0      0x400 ./device/EFR32_B_1_1_P/gcc/startup_efr32bg1p.o
                0x20007bfc                __StackTop = (ORIGIN (RAM) + 0x4bfc)
                0x200077fc                __StackLimit = (__StackTop - SIZEOF (.stack_dummy))
                0x20007bfc                PROVIDE (__stack, __StackTop)
                0x00000001                ASSERT ((__StackLimit >= __HeapLimit), region RAM overflowed with stack)
OUTPUT(BlueGecko_Temperature_LED_HandsOn.axf elf32-littlearm)

.ARM.attributes
                0x00000000       0x2e
 .ARM.attributes
                0x00000000       0x22 c:/siliconlabs/simplicitystudio/v4/developer/toolchains/gnu_arm/4.9_2015q3/bin/../lib/gcc/arm-none-eabi/4.9.3/armv7e-m/softfp/crti.o
 .ARM.attributes
                0x00000022       0x32 c:/siliconlabs/simplicitystudio/v4/developer/toolchains/gnu_arm/4.9_2015q3/bin/../lib/gcc/arm-none-eabi/4.9.3/armv7e-m/softfp/crtbegin.o
 .ARM.attributes
                0x00000054       0x20 c:/siliconlabs/simplicitystudio/v4/developer/toolchains/gnu_arm/4.9_2015q3/bin/../lib/gcc/arm-none-eabi/4.9.3/../../../../arm-none-eabi/lib/armv7e-m/softfp/crt0.o
 .ARM.attributes
                0x00000074       0x37 ./advertisement.o
 .ARM.attributes
                0x000000ab       0x37 ./app.o
 .ARM.attributes
                0x000000e2       0x37 ./app_ui.o
 .ARM.attributes
                0x00000119       0x37 ./beacon.o
 .ARM.attributes
                0x00000150       0x37 ./gatt_db.o
 .ARM.attributes
                0x00000187       0x37 ./graphics.o
 .ARM.attributes
                0x000001be       0x37 ./main.o
 .ARM.attributes
                0x000001f5       0x37 ./bgapi/dmadrv.o
 .ARM.attributes
                0x0000022c       0x37 ./bgapi/em_adc.o
 .ARM.attributes
                0x00000263       0x37 ./bgapi/em_ldma.o
 .ARM.attributes
                0x0000029a       0x37 ./bgapi/em_leuart.o
 .ARM.attributes
                0x000002d1       0x37 ./device/EFR32_B_1_1_P/gcc/startup_efr32bg1p.o
 .ARM.attributes
                0x00000308       0x37 ./emlib/em_cmu.o
 .ARM.attributes
                0x0000033f       0x37 ./emlib/em_gpio.o
 .ARM.attributes
                0x00000376       0x37 ./emlib/em_i2c.o
 .ARM.attributes
                0x000003ad       0x37 ./emlib/em_rtcc.o
 .ARM.attributes
                0x000003e4       0x37 ./emlib/em_system.o
 .ARM.attributes
                0x0000041b       0x37 ./emlib/em_usart.o
 .ARM.attributes
                0x00000452       0x37 ./glib/BRD4100A/dmd_display.o
 .ARM.attributes
                0x00000489       0x37 ./glib/BRD4100A/glib.o
 .ARM.attributes
                0x000004c0       0x37 ./glib/BRD4100A/glib_rectangle.o
 .ARM.attributes
                0x000004f7       0x37 ./glib/BRD4100A/glib_string.o
 .ARM.attributes
                0x0000052e       0x37 ./kit/BRD4100A/bsp_stk_leds.o
 .ARM.attributes
                0x00000565       0x37 ./kit_flashpwr/BRD4100A/mx25flash_spi.o
 .ARM.attributes
                0x0000059c       0x37 ./src/InitDevice.o
 .ARM.attributes
                0x000005d3       0x37 C:/SiliconLabs/SimplicityStudio/v4/developer/sdks/gecko_sdk_suite/v1.0//protocol/bluetooth_2.3/lib/EFR32BG1P/GCC/bgapi.a(gecko_bgapi_hardware.c.obj)
 .ARM.attributes
                0x0000060a       0x37 C:/SiliconLabs/SimplicityStudio/v4/developer/sdks/gecko_sdk_suite/v1.0//protocol/bluetooth_2.3/lib/EFR32BG1P/GCC/bgapi.a(gecko_bgapi_test.c.obj)
 .ARM.attributes
                0x00000641       0x37 C:/SiliconLabs/SimplicityStudio/v4/developer/sdks/gecko_sdk_suite/v1.0//protocol/bluetooth_2.3/lib/EFR32BG1P/GCC/bgapi.a(gecko_bgapi_util.c.obj)
 .ARM.attributes
                0x00000678       0x37 C:/SiliconLabs/SimplicityStudio/v4/developer/sdks/gecko_sdk_suite/v1.0//protocol/bluetooth_2.3/lib/EFR32BG1P/GCC/bgapi.a(gecko_bgapi_dfu.c.obj)
 .ARM.attributes
                0x000006af       0x37 C:/SiliconLabs/SimplicityStudio/v4/developer/sdks/gecko_sdk_suite/v1.0//protocol/bluetooth_2.3/lib/EFR32BG1P/GCC/bgapi.a(gecko_bgapi_gap.c.obj)
 .ARM.attributes
                0x000006e6       0x37 C:/SiliconLabs/SimplicityStudio/v4/developer/sdks/gecko_sdk_suite/v1.0//protocol/bluetooth_2.3/lib/EFR32BG1P/GCC/bgapi.a(gecko_bgapi_gatt.c.obj)
 .ARM.attributes
                0x0000071d       0x37 C:/SiliconLabs/SimplicityStudio/v4/developer/sdks/gecko_sdk_suite/v1.0//protocol/bluetooth_2.3/lib/EFR32BG1P/GCC/bgapi.a(gecko_bgapi_gatt_server.c.obj)
 .ARM.attributes
                0x00000754       0x37 C:/SiliconLabs/SimplicityStudio/v4/developer/sdks/gecko_sdk_suite/v1.0//protocol/bluetooth_2.3/lib/EFR32BG1P/GCC/bgapi.a(gecko_bgapi_flash.c.obj)
 .ARM.attributes
                0x0000078b       0x37 C:/SiliconLabs/SimplicityStudio/v4/developer/sdks/gecko_sdk_suite/v1.0//protocol/bluetooth_2.3/lib/EFR32BG1P/GCC/bgapi.a(gecko_bgapi_sm.c.obj)
 .ARM.attributes
                0x000007c2       0x37 C:/SiliconLabs/SimplicityStudio/v4/developer/sdks/gecko_sdk_suite/v1.0//protocol/bluetooth_2.3/lib/EFR32BG1P/GCC/bgapi.a(gecko_bgapi_system.c.obj)
 .ARM.attributes
                0x000007f9       0x37 C:/SiliconLabs/SimplicityStudio/v4/developer/sdks/gecko_sdk_suite/v1.0//protocol/bluetooth_2.3/lib/EFR32BG1P/GCC/bgapi.a(gecko_bgapi_endpoint.c.obj)
 .ARM.attributes
                0x00000830       0x37 C:/SiliconLabs/SimplicityStudio/v4/developer/sdks/gecko_sdk_suite/v1.0//protocol/bluetooth_2.3/lib/EFR32BG1P/GCC/bgapi.a(gecko_bgapi_le_connection.c.obj)
 .ARM.attributes
                0x00000867       0x37 C:/SiliconLabs/SimplicityStudio/v4/developer/sdks/gecko_sdk_suite/v1.0//protocol/bluetooth_2.3/lib/EFR32BG1P/GCC/bgapi.a(bgapi_hardware_lib.c.obj)
 .ARM.attributes
                0x0000089e       0x37 C:/SiliconLabs/SimplicityStudio/v4/developer/sdks/gecko_sdk_suite/v1.0//protocol/bluetooth_2.3/lib/EFR32BG1P/GCC/bgapi.a(bgapi_hardware.c.obj)
 .ARM.attributes
                0x000008d5       0x37 C:/SiliconLabs/SimplicityStudio/v4/developer/sdks/gecko_sdk_suite/v1.0//protocol/bluetooth_2.3/lib/EFR32BG1P/GCC/bgapi.a(bgapi_test_lib.c.obj)
 .ARM.attributes
                0x0000090c       0x37 C:/SiliconLabs/SimplicityStudio/v4/developer/sdks/gecko_sdk_suite/v1.0//protocol/bluetooth_2.3/lib/EFR32BG1P/GCC/bgapi.a(bgapi_util.c.obj)
 .ARM.attributes
                0x00000943       0x37 C:/SiliconLabs/SimplicityStudio/v4/developer/sdks/gecko_sdk_suite/v1.0//protocol/bluetooth_2.3/lib/EFR32BG1P/GCC/bgapi.a(bgapi_dfu.c.obj)
 .ARM.attributes
                0x0000097a       0x37 C:/SiliconLabs/SimplicityStudio/v4/developer/sdks/gecko_sdk_suite/v1.0//protocol/bluetooth_2.3/lib/EFR32BG1P/GCC/bgapi.a(bgapi_gap.c.obj)
 .ARM.attributes
                0x000009b1       0x37 C:/SiliconLabs/SimplicityStudio/v4/developer/sdks/gecko_sdk_suite/v1.0//protocol/bluetooth_2.3/lib/EFR32BG1P/GCC/bgapi.a(bgapi_gatt_lib.c.obj)
 .ARM.attributes
                0x000009e8       0x37 C:/SiliconLabs/SimplicityStudio/v4/developer/sdks/gecko_sdk_suite/v1.0//protocol/bluetooth_2.3/lib/EFR32BG1P/GCC/bgapi.a(bgapi_ps.c.obj)
 .ARM.attributes
                0x00000a1f       0x37 C:/SiliconLabs/SimplicityStudio/v4/developer/sdks/gecko_sdk_suite/v1.0//protocol/bluetooth_2.3/lib/EFR32BG1P/GCC/bgapi.a(bgapi_sm.c.obj)
 .ARM.attributes
                0x00000a56       0x37 C:/SiliconLabs/SimplicityStudio/v4/developer/sdks/gecko_sdk_suite/v1.0//protocol/bluetooth_2.3/lib/EFR32BG1P/GCC/bgapi.a(bgapi_system.c.obj)
 .ARM.attributes
                0x00000a8d       0x37 C:/SiliconLabs/SimplicityStudio/v4/developer/sdks/gecko_sdk_suite/v1.0//protocol/bluetooth_2.3/lib/EFR32BG1P/GCC/bgapi.a(bgapi_endpoint.c.obj)
 .ARM.attributes
                0x00000ac4       0x37 C:/SiliconLabs/SimplicityStudio/v4/developer/sdks/gecko_sdk_suite/v1.0//protocol/bluetooth_2.3/lib/EFR32BG1P/GCC/bgapi.a(bgapi_le_connection.c.obj)
 .ARM.attributes
                0x00000afb       0x37 C:/SiliconLabs/SimplicityStudio/v4/developer/sdks/gecko_sdk_suite/v1.0//protocol/bluetooth_2.3/lib/EFR32BG1P/GCC/bgapi.a(uart_endpoint.c.obj)
 .ARM.attributes
                0x00000b32       0x37 C:/SiliconLabs/SimplicityStudio/v4/developer/sdks/gecko_sdk_suite/v1.0//protocol/bluetooth_2.3/lib/EFR32BG1P/GCC/bgapi.a(bgapi_endpoint.c.obj)
 .ARM.attributes
                0x00000b69       0x37 C:/SiliconLabs/SimplicityStudio/v4/developer/sdks/gecko_sdk_suite/v1.0//protocol/bluetooth_2.3/lib/EFR32BG1P/GCC/bgapi.a(adc.c.obj)
 .ARM.attributes
                0x00000ba0       0x37 C:/SiliconLabs/SimplicityStudio/v4/developer/sdks/gecko_sdk_suite/v1.0//protocol/bluetooth_2.3/lib/EFR32BG1P/GCC/bgapi.a(gpio.c.obj)
 .ARM.attributes
                0x00000bd7       0x37 C:/SiliconLabs/SimplicityStudio/v4/developer/sdks/gecko_sdk_suite/v1.0//protocol/bluetooth_2.3/lib/EFR32BG1P/GCC/bgapi.a(i2c.c.obj)
 .ARM.attributes
                0x00000c0e       0x37 C:/SiliconLabs/SimplicityStudio/v4/developer/sdks/gecko_sdk_suite/v1.0//protocol/bluetooth_2.3/lib/EFR32BG1P/GCC/bgapi.a(sleep_signal.c.obj)
 .ARM.attributes
                0x00000c45       0x37 C:/SiliconLabs/SimplicityStudio/v4/developer/sdks/gecko_sdk_suite/v1.0//protocol/bluetooth_2.3/lib/EFR32BG1P/GCC/bgapi.a(uart.c.obj)
 .ARM.attributes
                0x00000c7c       0x1c C:/SiliconLabs/SimplicityStudio/v4/developer/sdks/gecko_sdk_suite/v1.0//protocol/bluetooth_2.3/lib/EFR32BG1P/EABI/binstack.o
 .ARM.attributes
                0x00000c98       0x1c C:/SiliconLabs/SimplicityStudio/v4/developer/sdks/gecko_sdk_suite/v1.0//protocol/bluetooth_2.3/lib/EFR32BG1P/EABI/binbootloader.o
 .ARM.attributes
                0x00000cb4       0x22 c:/siliconlabs/simplicitystudio/v4/developer/toolchains/gnu_arm/4.9_2015q3/bin/../lib/gcc/arm-none-eabi/4.9.3/armv7e-m/softfp\libgcc.a(_arm_addsubdf3.o)
 .ARM.attributes
                0x00000cd6       0x22 c:/siliconlabs/simplicitystudio/v4/developer/toolchains/gnu_arm/4.9_2015q3/bin/../lib/gcc/arm-none-eabi/4.9.3/armv7e-m/softfp\libgcc.a(_arm_muldivdf3.o)
 .ARM.attributes
                0x00000cf8       0x22 c:/siliconlabs/simplicitystudio/v4/developer/toolchains/gnu_arm/4.9_2015q3/bin/../lib/gcc/arm-none-eabi/4.9.3/armv7e-m/softfp\libgcc.a(_aeabi_uldivmod.o)
 .ARM.attributes
                0x00000d1a       0x32 c:/siliconlabs/simplicitystudio/v4/developer/toolchains/gnu_arm/4.9_2015q3/bin/../lib/gcc/arm-none-eabi/4.9.3/armv7e-m/softfp\libgcc.a(bpabi.o)
 .ARM.attributes
                0x00000d4c       0x22 c:/siliconlabs/simplicitystudio/v4/developer/toolchains/gnu_arm/4.9_2015q3/bin/../lib/gcc/arm-none-eabi/4.9.3/armv7e-m/softfp\libgcc.a(_dvmd_tls.o)
 .ARM.attributes
                0x00000d6e       0x32 c:/siliconlabs/simplicitystudio/v4/developer/toolchains/gnu_arm/4.9_2015q3/bin/../lib/gcc/arm-none-eabi/4.9.3/armv7e-m/softfp\libgcc.a(_divdi3.o)
 .ARM.attributes
                0x00000da0       0x32 c:/siliconlabs/simplicitystudio/v4/developer/toolchains/gnu_arm/4.9_2015q3/bin/../lib/gcc/arm-none-eabi/4.9.3/armv7e-m/softfp\libgcc.a(_udivdi3.o)
 .ARM.attributes
                0x00000dd2       0x32 c:/siliconlabs/simplicitystudio/v4/developer/toolchains/gnu_arm/4.9_2015q3/bin/../lib/gcc/arm-none-eabi/4.9.3/../../../../arm-none-eabi/lib/armv7e-m/softfp\libc.a(lib_a-exit.o)
 .ARM.attributes
                0x00000e04       0x32 c:/siliconlabs/simplicitystudio/v4/developer/toolchains/gnu_arm/4.9_2015q3/bin/../lib/gcc/arm-none-eabi/4.9.3/../../../../arm-none-eabi/lib/armv7e-m/softfp\libc.a(lib_a-impure.o)
 .ARM.attributes
                0x00000e36       0x32 c:/siliconlabs/simplicitystudio/v4/developer/toolchains/gnu_arm/4.9_2015q3/bin/../lib/gcc/arm-none-eabi/4.9.3/../../../../arm-none-eabi/lib/armv7e-m/softfp\libc.a(lib_a-init.o)
 .ARM.attributes
                0x00000e68       0x32 c:/siliconlabs/simplicitystudio/v4/developer/toolchains/gnu_arm/4.9_2015q3/bin/../lib/gcc/arm-none-eabi/4.9.3/../../../../arm-none-eabi/lib/armv7e-m/softfp\libc.a(lib_a-memcmp.o)
 .ARM.attributes
                0x00000e9a       0x20 c:/siliconlabs/simplicitystudio/v4/developer/toolchains/gnu_arm/4.9_2015q3/bin/../lib/gcc/arm-none-eabi/4.9.3/../../../../arm-none-eabi/lib/armv7e-m/softfp\libc.a(lib_a-memcpy.o)
 .ARM.attributes
                0x00000eba       0x32 c:/siliconlabs/simplicitystudio/v4/developer/toolchains/gnu_arm/4.9_2015q3/bin/../lib/gcc/arm-none-eabi/4.9.3/../../../../arm-none-eabi/lib/armv7e-m/softfp\libc.a(lib_a-memset.o)
 .ARM.attributes
                0x00000eec       0x32 c:/siliconlabs/simplicitystudio/v4/developer/toolchains/gnu_arm/4.9_2015q3/bin/../lib/gcc/arm-none-eabi/4.9.3/../../../../arm-none-eabi/lib/armv7e-m/softfp\libc.a(lib_a-snprintf.o)
 .ARM.attributes
                0x00000f1e       0x32 c:/siliconlabs/simplicitystudio/v4/developer/toolchains/gnu_arm/4.9_2015q3/bin/../lib/gcc/arm-none-eabi/4.9.3/../../../../arm-none-eabi/lib/armv7e-m/softfp\libc.a(lib_a-strlen.o)
 .ARM.attributes
                0x00000f50       0x32 c:/siliconlabs/simplicitystudio/v4/developer/toolchains/gnu_arm/4.9_2015q3/bin/../lib/gcc/arm-none-eabi/4.9.3/../../../../arm-none-eabi/lib/armv7e-m/softfp\libc.a(lib_a-svfprintf.o)
 .ARM.attributes
                0x00000f82       0x32 c:/siliconlabs/simplicitystudio/v4/developer/toolchains/gnu_arm/4.9_2015q3/bin/../lib/gcc/arm-none-eabi/4.9.3/../../../../arm-none-eabi/lib/armv7e-m/softfp\libc.a(lib_a-__call_atexit.o)
 .ARM.attributes
                0x00000fb4       0x32 c:/siliconlabs/simplicitystudio/v4/developer/toolchains/gnu_arm/4.9_2015q3/bin/../lib/gcc/arm-none-eabi/4.9.3/../../../../arm-none-eabi/lib/armv7e-m/softfp\libc.a(lib_a-atexit.o)
 .ARM.attributes
                0x00000fe6       0x32 c:/siliconlabs/simplicitystudio/v4/developer/toolchains/gnu_arm/4.9_2015q3/bin/../lib/gcc/arm-none-eabi/4.9.3/../../../../arm-none-eabi/lib/armv7e-m/softfp\libc.a(lib_a-dtoa.o)
 .ARM.attributes
                0x00001018       0x32 c:/siliconlabs/simplicitystudio/v4/developer/toolchains/gnu_arm/4.9_2015q3/bin/../lib/gcc/arm-none-eabi/4.9.3/../../../../arm-none-eabi/lib/armv7e-m/softfp\libc.a(lib_a-fini.o)
 .ARM.attributes
                0x0000104a       0x32 c:/siliconlabs/simplicitystudio/v4/developer/toolchains/gnu_arm/4.9_2015q3/bin/../lib/gcc/arm-none-eabi/4.9.3/../../../../arm-none-eabi/lib/armv7e-m/softfp\libc.a(lib_a-locale.o)
 .ARM.attributes
                0x0000107c       0x32 c:/siliconlabs/simplicitystudio/v4/developer/toolchains/gnu_arm/4.9_2015q3/bin/../lib/gcc/arm-none-eabi/4.9.3/../../../../arm-none-eabi/lib/armv7e-m/softfp\libc.a(lib_a-mallocr.o)
 .ARM.attributes
                0x000010ae       0x32 c:/siliconlabs/simplicitystudio/v4/developer/toolchains/gnu_arm/4.9_2015q3/bin/../lib/gcc/arm-none-eabi/4.9.3/../../../../arm-none-eabi/lib/armv7e-m/softfp\libc.a(lib_a-memchr.o)
 .ARM.attributes
                0x000010e0       0x32 c:/siliconlabs/simplicitystudio/v4/developer/toolchains/gnu_arm/4.9_2015q3/bin/../lib/gcc/arm-none-eabi/4.9.3/../../../../arm-none-eabi/lib/armv7e-m/softfp\libc.a(lib_a-mlock.o)
 .ARM.attributes
                0x00001112       0x32 c:/siliconlabs/simplicitystudio/v4/developer/toolchains/gnu_arm/4.9_2015q3/bin/../lib/gcc/arm-none-eabi/4.9.3/../../../../arm-none-eabi/lib/armv7e-m/softfp\libc.a(lib_a-mprec.o)
 .ARM.attributes
                0x00001144       0x32 c:/siliconlabs/simplicitystudio/v4/developer/toolchains/gnu_arm/4.9_2015q3/bin/../lib/gcc/arm-none-eabi/4.9.3/../../../../arm-none-eabi/lib/armv7e-m/softfp\libc.a(lib_a-s_fpclassify.o)
 .ARM.attributes
                0x00001176       0x32 c:/siliconlabs/simplicitystudio/v4/developer/toolchains/gnu_arm/4.9_2015q3/bin/../lib/gcc/arm-none-eabi/4.9.3/../../../../arm-none-eabi/lib/armv7e-m/softfp\libc.a(lib_a-sbrkr.o)
 .ARM.attributes
                0x000011a8       0x20 c:/siliconlabs/simplicitystudio/v4/developer/toolchains/gnu_arm/4.9_2015q3/bin/../lib/gcc/arm-none-eabi/4.9.3/../../../../arm-none-eabi/lib/armv7e-m/softfp\libc.a(lib_a-strcmp.o)
 .ARM.attributes
                0x000011c8       0x32 c:/siliconlabs/simplicitystudio/v4/developer/toolchains/gnu_arm/4.9_2015q3/bin/../lib/gcc/arm-none-eabi/4.9.3/../../../../arm-none-eabi/lib/armv7e-m/softfp\libc.a(lib_a-svfiprintf.o)
 .ARM.attributes
                0x000011fa       0x32 c:/siliconlabs/simplicitystudio/v4/developer/toolchains/gnu_arm/4.9_2015q3/bin/../lib/gcc/arm-none-eabi/4.9.3/../../../../arm-none-eabi/lib/armv7e-m/softfp\libc.a(lib_a-__atexit.o)
 .ARM.attributes
                0x0000122c       0x32 c:/siliconlabs/simplicitystudio/v4/developer/toolchains/gnu_arm/4.9_2015q3/bin/../lib/gcc/arm-none-eabi/4.9.3/../../../../arm-none-eabi/lib/armv7e-m/softfp\libc.a(lib_a-callocr.o)
 .ARM.attributes
                0x0000125e       0x32 c:/siliconlabs/simplicitystudio/v4/developer/toolchains/gnu_arm/4.9_2015q3/bin/../lib/gcc/arm-none-eabi/4.9.3/../../../../arm-none-eabi/lib/armv7e-m/softfp\libc.a(lib_a-freer.o)
 .ARM.attributes
                0x00001290       0x32 c:/siliconlabs/simplicitystudio/v4/developer/toolchains/gnu_arm/4.9_2015q3/bin/../lib/gcc/arm-none-eabi/4.9.3/../../../../arm-none-eabi/lib/armv7e-m/softfp\libc.a(lib_a-memmove.o)
 .ARM.attributes
                0x000012c2       0x32 c:/siliconlabs/simplicitystudio/v4/developer/toolchains/gnu_arm/4.9_2015q3/bin/../lib/gcc/arm-none-eabi/4.9.3/../../../../arm-none-eabi/lib/armv7e-m/softfp\libc.a(lib_a-reallocr.o)
 .ARM.attributes
                0x000012f4       0x32 c:/siliconlabs/simplicitystudio/v4/developer/toolchains/gnu_arm/4.9_2015q3/bin/../lib/gcc/arm-none-eabi/4.9.3/../../../../arm-none-eabi/lib/armv7e-m/softfp\libc.a(lib_a-reent.o)
 .ARM.attributes
                0x00001326       0x32 c:/siliconlabs/simplicitystudio/v4/developer/toolchains/gnu_arm/4.9_2015q3/bin/../lib/gcc/arm-none-eabi/4.9.3/../../../../arm-none-eabi/lib/armv7e-m/softfp\libnosys.a(sbrk.o)
 .ARM.attributes
                0x00001358       0x32 c:/siliconlabs/simplicitystudio/v4/developer/toolchains/gnu_arm/4.9_2015q3/bin/../lib/gcc/arm-none-eabi/4.9.3/../../../../arm-none-eabi/lib/armv7e-m/softfp\libnosys.a(_exit.o)
 .ARM.attributes
                0x0000138a       0x22 c:/siliconlabs/simplicitystudio/v4/developer/toolchains/gnu_arm/4.9_2015q3/bin/../lib/gcc/arm-none-eabi/4.9.3/armv7e-m/softfp\libgcc.a(_arm_cmpdf2.o)
 .ARM.attributes
                0x000013ac       0x22 c:/siliconlabs/simplicitystudio/v4/developer/toolchains/gnu_arm/4.9_2015q3/bin/../lib/gcc/arm-none-eabi/4.9.3/armv7e-m/softfp\libgcc.a(_arm_fixdfsi.o)
 .ARM.attributes
                0x000013ce       0x32 c:/siliconlabs/simplicitystudio/v4/developer/toolchains/gnu_arm/4.9_2015q3/bin/../lib/gcc/arm-none-eabi/4.9.3/armv7e-m/softfp/crtend.o
 .ARM.attributes
                0x00001400       0x22 c:/siliconlabs/simplicitystudio/v4/developer/toolchains/gnu_arm/4.9_2015q3/bin/../lib/gcc/arm-none-eabi/4.9.3/armv7e-m/softfp/crtn.o

.comment        0x00000000       0xde
 .comment       0x00000000       0x70 ./advertisement.o
                                 0x71 (size before relaxing)
 .comment       0x00000000       0x71 ./app.o
 .comment       0x00000000       0x71 ./app_ui.o
 .comment       0x00000000       0x71 ./beacon.o
 .comment       0x00000000       0x71 ./gatt_db.o
 .comment       0x00000000       0x71 ./graphics.o
 .comment       0x00000000       0x71 ./main.o
 .comment       0x00000000       0x71 ./bgapi/dmadrv.o
 .comment       0x00000000       0x71 ./bgapi/em_adc.o
 .comment       0x00000000       0x71 ./bgapi/em_ldma.o
 .comment       0x00000000       0x71 ./bgapi/em_leuart.o
 .comment       0x00000000       0x71 ./device/EFR32_B_1_1_P/gcc/startup_efr32bg1p.o
 .comment       0x00000000       0x71 ./emlib/em_cmu.o
 .comment       0x00000000       0x71 ./emlib/em_gpio.o
 .comment       0x00000000       0x71 ./emlib/em_i2c.o
 .comment       0x00000000       0x71 ./emlib/em_rtcc.o
 .comment       0x00000000       0x71 ./emlib/em_system.o
 .comment       0x00000000       0x71 ./emlib/em_usart.o
 .comment       0x00000000       0x71 ./glib/BRD4100A/dmd_display.o
 .comment       0x00000000       0x71 ./glib/BRD4100A/glib.o
 .comment       0x00000000       0x71 ./glib/BRD4100A/glib_rectangle.o
 .comment       0x00000000       0x71 ./glib/BRD4100A/glib_string.o
 .comment       0x00000000       0x71 ./kit/BRD4100A/bsp_stk_leds.o
 .comment       0x00000000       0x71 ./kit_flashpwr/BRD4100A/mx25flash_spi.o
 .comment       0x00000000       0x71 ./src/InitDevice.o
 .comment       0x00000070       0x6e C:/SiliconLabs/SimplicityStudio/v4/developer/sdks/gecko_sdk_suite/v1.0//protocol/bluetooth_2.3/lib/EFR32BG1P/GCC/bgapi.a(gecko_bgapi_hardware.c.obj)
                                 0x6f (size before relaxing)
 .comment       0x00000000       0x6f C:/SiliconLabs/SimplicityStudio/v4/developer/sdks/gecko_sdk_suite/v1.0//protocol/bluetooth_2.3/lib/EFR32BG1P/GCC/bgapi.a(gecko_bgapi_test.c.obj)
 .comment       0x00000000       0x6f C:/SiliconLabs/SimplicityStudio/v4/developer/sdks/gecko_sdk_suite/v1.0//protocol/bluetooth_2.3/lib/EFR32BG1P/GCC/bgapi.a(gecko_bgapi_util.c.obj)
 .comment       0x00000000       0x6f C:/SiliconLabs/SimplicityStudio/v4/developer/sdks/gecko_sdk_suite/v1.0//protocol/bluetooth_2.3/lib/EFR32BG1P/GCC/bgapi.a(gecko_bgapi_dfu.c.obj)
 .comment       0x00000000       0x6f C:/SiliconLabs/SimplicityStudio/v4/developer/sdks/gecko_sdk_suite/v1.0//protocol/bluetooth_2.3/lib/EFR32BG1P/GCC/bgapi.a(gecko_bgapi_gap.c.obj)
 .comment       0x00000000       0x6f C:/SiliconLabs/SimplicityStudio/v4/developer/sdks/gecko_sdk_suite/v1.0//protocol/bluetooth_2.3/lib/EFR32BG1P/GCC/bgapi.a(gecko_bgapi_gatt.c.obj)
 .comment       0x00000000       0x6f C:/SiliconLabs/SimplicityStudio/v4/developer/sdks/gecko_sdk_suite/v1.0//protocol/bluetooth_2.3/lib/EFR32BG1P/GCC/bgapi.a(gecko_bgapi_gatt_server.c.obj)
 .comment       0x00000000       0x6f C:/SiliconLabs/SimplicityStudio/v4/developer/sdks/gecko_sdk_suite/v1.0//protocol/bluetooth_2.3/lib/EFR32BG1P/GCC/bgapi.a(gecko_bgapi_flash.c.obj)
 .comment       0x00000000       0x6f C:/SiliconLabs/SimplicityStudio/v4/developer/sdks/gecko_sdk_suite/v1.0//protocol/bluetooth_2.3/lib/EFR32BG1P/GCC/bgapi.a(gecko_bgapi_sm.c.obj)
 .comment       0x00000000       0x6f C:/SiliconLabs/SimplicityStudio/v4/developer/sdks/gecko_sdk_suite/v1.0//protocol/bluetooth_2.3/lib/EFR32BG1P/GCC/bgapi.a(gecko_bgapi_system.c.obj)
 .comment       0x00000000       0x6f C:/SiliconLabs/SimplicityStudio/v4/developer/sdks/gecko_sdk_suite/v1.0//protocol/bluetooth_2.3/lib/EFR32BG1P/GCC/bgapi.a(gecko_bgapi_endpoint.c.obj)
 .comment       0x00000000       0x6f C:/SiliconLabs/SimplicityStudio/v4/developer/sdks/gecko_sdk_suite/v1.0//protocol/bluetooth_2.3/lib/EFR32BG1P/GCC/bgapi.a(gecko_bgapi_le_connection.c.obj)
 .comment       0x00000000       0x6f C:/SiliconLabs/SimplicityStudio/v4/developer/sdks/gecko_sdk_suite/v1.0//protocol/bluetooth_2.3/lib/EFR32BG1P/GCC/bgapi.a(bgapi_hardware_lib.c.obj)
 .comment       0x00000000       0x6f C:/SiliconLabs/SimplicityStudio/v4/developer/sdks/gecko_sdk_suite/v1.0//protocol/bluetooth_2.3/lib/EFR32BG1P/GCC/bgapi.a(bgapi_hardware.c.obj)
 .comment       0x00000000       0x6f C:/SiliconLabs/SimplicityStudio/v4/developer/sdks/gecko_sdk_suite/v1.0//protocol/bluetooth_2.3/lib/EFR32BG1P/GCC/bgapi.a(bgapi_test_lib.c.obj)
 .comment       0x00000000       0x6f C:/SiliconLabs/SimplicityStudio/v4/developer/sdks/gecko_sdk_suite/v1.0//protocol/bluetooth_2.3/lib/EFR32BG1P/GCC/bgapi.a(bgapi_util.c.obj)
 .comment       0x00000000       0x6f C:/SiliconLabs/SimplicityStudio/v4/developer/sdks/gecko_sdk_suite/v1.0//protocol/bluetooth_2.3/lib/EFR32BG1P/GCC/bgapi.a(bgapi_dfu.c.obj)
 .comment       0x00000000       0x6f C:/SiliconLabs/SimplicityStudio/v4/developer/sdks/gecko_sdk_suite/v1.0//protocol/bluetooth_2.3/lib/EFR32BG1P/GCC/bgapi.a(bgapi_gap.c.obj)
 .comment       0x00000000       0x6f C:/SiliconLabs/SimplicityStudio/v4/developer/sdks/gecko_sdk_suite/v1.0//protocol/bluetooth_2.3/lib/EFR32BG1P/GCC/bgapi.a(bgapi_gatt_lib.c.obj)
 .comment       0x00000000       0x6f C:/SiliconLabs/SimplicityStudio/v4/developer/sdks/gecko_sdk_suite/v1.0//protocol/bluetooth_2.3/lib/EFR32BG1P/GCC/bgapi.a(bgapi_ps.c.obj)
 .comment       0x00000000       0x6f C:/SiliconLabs/SimplicityStudio/v4/developer/sdks/gecko_sdk_suite/v1.0//protocol/bluetooth_2.3/lib/EFR32BG1P/GCC/bgapi.a(bgapi_sm.c.obj)
 .comment       0x00000000       0x6f C:/SiliconLabs/SimplicityStudio/v4/developer/sdks/gecko_sdk_suite/v1.0//protocol/bluetooth_2.3/lib/EFR32BG1P/GCC/bgapi.a(bgapi_system.c.obj)
 .comment       0x00000000       0x6f C:/SiliconLabs/SimplicityStudio/v4/developer/sdks/gecko_sdk_suite/v1.0//protocol/bluetooth_2.3/lib/EFR32BG1P/GCC/bgapi.a(bgapi_endpoint.c.obj)
 .comment       0x00000000       0x6f C:/SiliconLabs/SimplicityStudio/v4/developer/sdks/gecko_sdk_suite/v1.0//protocol/bluetooth_2.3/lib/EFR32BG1P/GCC/bgapi.a(bgapi_le_connection.c.obj)
 .comment       0x00000000       0x6f C:/SiliconLabs/SimplicityStudio/v4/developer/sdks/gecko_sdk_suite/v1.0//protocol/bluetooth_2.3/lib/EFR32BG1P/GCC/bgapi.a(uart_endpoint.c.obj)
 .comment       0x00000000       0x6f C:/SiliconLabs/SimplicityStudio/v4/developer/sdks/gecko_sdk_suite/v1.0//protocol/bluetooth_2.3/lib/EFR32BG1P/GCC/bgapi.a(bgapi_endpoint.c.obj)
 .comment       0x00000000       0x6f C:/SiliconLabs/SimplicityStudio/v4/developer/sdks/gecko_sdk_suite/v1.0//protocol/bluetooth_2.3/lib/EFR32BG1P/GCC/bgapi.a(adc.c.obj)
 .comment       0x00000000       0x6f C:/SiliconLabs/SimplicityStudio/v4/developer/sdks/gecko_sdk_suite/v1.0//protocol/bluetooth_2.3/lib/EFR32BG1P/GCC/bgapi.a(gpio.c.obj)
 .comment       0x00000000       0x6f C:/SiliconLabs/SimplicityStudio/v4/developer/sdks/gecko_sdk_suite/v1.0//protocol/bluetooth_2.3/lib/EFR32BG1P/GCC/bgapi.a(i2c.c.obj)
 .comment       0x00000000       0x6f C:/SiliconLabs/SimplicityStudio/v4/developer/sdks/gecko_sdk_suite/v1.0//protocol/bluetooth_2.3/lib/EFR32BG1P/GCC/bgapi.a(sleep_signal.c.obj)
 .comment       0x00000000       0x6f C:/SiliconLabs/SimplicityStudio/v4/developer/sdks/gecko_sdk_suite/v1.0//protocol/bluetooth_2.3/lib/EFR32BG1P/GCC/bgapi.a(uart.c.obj)

.debug_info     0x00000000    0x22f3d
 .debug_info    0x00000000     0x3a3c ./advertisement.o
 .debug_info    0x00003a3c     0x454b ./app.o
 .debug_info    0x00007f87     0x408d ./app_ui.o
 .debug_info    0x0000c014     0x3f1e ./beacon.o
 .debug_info    0x0000ff32      0x6a3 ./gatt_db.o
 .debug_info    0x000105d5      0x413 ./graphics.o
 .debug_info    0x000109e8     0x475c ./main.o
 .debug_info    0x00015144     0x13f4 ./bgapi/dmadrv.o
 .debug_info    0x00016538     0x1a47 ./bgapi/em_adc.o
 .debug_info    0x00017f7f     0x1104 ./bgapi/em_ldma.o
 .debug_info    0x00019083      0x800 ./bgapi/em_leuart.o
 .debug_info    0x00019883      0x1b0 ./device/EFR32_B_1_1_P/gcc/startup_efr32bg1p.o
 .debug_info    0x00019a33     0x1adb ./emlib/em_cmu.o
 .debug_info    0x0001b50e      0xa02 ./emlib/em_gpio.o
 .debug_info    0x0001bf10      0x8cd ./emlib/em_i2c.o
 .debug_info    0x0001c7dd      0x6b4 ./emlib/em_rtcc.o
 .debug_info    0x0001ce91      0x26c ./emlib/em_system.o
 .debug_info    0x0001d0fd     0x1021 ./emlib/em_usart.o
 .debug_info    0x0001e11e      0x8e1 ./glib/BRD4100A/dmd_display.o
 .debug_info    0x0001e9ff      0x7e6 ./glib/BRD4100A/glib.o
 .debug_info    0x0001f1e5      0x45b ./glib/BRD4100A/glib_rectangle.o
 .debug_info    0x0001f640      0x4ce ./glib/BRD4100A/glib_string.o
 .debug_info    0x0001fb0e      0x7fa ./kit/BRD4100A/bsp_stk_leds.o
 .debug_info    0x00020308     0x1575 ./kit_flashpwr/BRD4100A/mx25flash_spi.o
 .debug_info    0x0002187d     0x16c0 ./src/InitDevice.o

.debug_abbrev   0x00000000     0x2d3c
 .debug_abbrev  0x00000000      0x16d ./advertisement.o
 .debug_abbrev  0x0000016d      0x273 ./app.o
 .debug_abbrev  0x000003e0      0x27f ./app_ui.o
 .debug_abbrev  0x0000065f      0x16d ./beacon.o
 .debug_abbrev  0x000007cc       0xce ./gatt_db.o
 .debug_abbrev  0x0000089a      0x12a ./graphics.o
 .debug_abbrev  0x000009c4      0x210 ./main.o
 .debug_abbrev  0x00000bd4      0x25d ./bgapi/dmadrv.o
 .debug_abbrev  0x00000e31      0x221 ./bgapi/em_adc.o
 .debug_abbrev  0x00001052      0x262 ./bgapi/em_ldma.o
 .debug_abbrev  0x000012b4      0x1c6 ./bgapi/em_leuart.o
 .debug_abbrev  0x0000147a       0xd9 ./device/EFR32_B_1_1_P/gcc/startup_efr32bg1p.o
 .debug_abbrev  0x00001553      0x305 ./emlib/em_cmu.o
 .debug_abbrev  0x00001858      0x1e7 ./emlib/em_gpio.o
 .debug_abbrev  0x00001a3f      0x257 ./emlib/em_i2c.o
 .debug_abbrev  0x00001c96      0x175 ./emlib/em_rtcc.o
 .debug_abbrev  0x00001e0b       0xfa ./emlib/em_system.o
 .debug_abbrev  0x00001f05      0x207 ./emlib/em_usart.o
 .debug_abbrev  0x0000210c      0x1b1 ./glib/BRD4100A/dmd_display.o
 .debug_abbrev  0x000022bd      0x1fb ./glib/BRD4100A/glib.o
 .debug_abbrev  0x000024b8      0x157 ./glib/BRD4100A/glib_rectangle.o
 .debug_abbrev  0x0000260f      0x107 ./glib/BRD4100A/glib_string.o
 .debug_abbrev  0x00002716      0x1be ./kit/BRD4100A/bsp_stk_leds.o
 .debug_abbrev  0x000028d4      0x298 ./kit_flashpwr/BRD4100A/mx25flash_spi.o
 .debug_abbrev  0x00002b6c      0x1d0 ./src/InitDevice.o

.debug_loc      0x00000000     0x6787
 .debug_loc     0x00000000       0xec ./advertisement.o
 .debug_loc     0x000000ec      0x520 ./app.o
 .debug_loc     0x0000060c      0x40c ./app_ui.o
 .debug_loc     0x00000a18       0xf0 ./beacon.o
 .debug_loc     0x00000b08       0xf0 ./graphics.o
 .debug_loc     0x00000bf8       0xb4 ./main.o
 .debug_loc     0x00000cac      0x568 ./bgapi/dmadrv.o
 .debug_loc     0x00001214      0x560 ./bgapi/em_adc.o
 .debug_loc     0x00001774      0x434 ./bgapi/em_ldma.o
 .debug_loc     0x00001ba8      0x49c ./bgapi/em_leuart.o
 .debug_loc     0x00002044       0x64 ./device/EFR32_B_1_1_P/gcc/startup_efr32bg1p.o
 .debug_loc     0x000020a8      0xf1c ./emlib/em_cmu.o
 .debug_loc     0x00002fc4      0x4b4 ./emlib/em_gpio.o
 .debug_loc     0x00003478      0x3ac ./emlib/em_i2c.o
 .debug_loc     0x00003824      0x23c ./emlib/em_rtcc.o
 .debug_loc     0x00003a60       0xb8 ./emlib/em_system.o
 .debug_loc     0x00003b18      0x7da ./emlib/em_usart.o
 .debug_loc     0x000042f2      0x44c ./glib/BRD4100A/dmd_display.o
 .debug_loc     0x0000473e      0x48c ./glib/BRD4100A/glib.o
 .debug_loc     0x00004bca      0x159 ./glib/BRD4100A/glib_rectangle.o
 .debug_loc     0x00004d23       0xf0 ./glib/BRD4100A/glib_string.o
 .debug_loc     0x00004e13      0x434 ./kit/BRD4100A/bsp_stk_leds.o
 .debug_loc     0x00005247      0xe90 ./kit_flashpwr/BRD4100A/mx25flash_spi.o
 .debug_loc     0x000060d7      0x6b0 ./src/InitDevice.o

.debug_aranges  0x00000000      0xcd8
 .debug_aranges
                0x00000000       0x38 ./advertisement.o
 .debug_aranges
                0x00000038       0xa0 ./app.o
 .debug_aranges
                0x000000d8       0x88 ./app_ui.o
 .debug_aranges
                0x00000160       0x30 ./beacon.o
 .debug_aranges
                0x00000190       0x18 ./gatt_db.o
 .debug_aranges
                0x000001a8       0x30 ./graphics.o
 .debug_aranges
                0x000001d8       0x30 ./main.o
 .debug_aranges
                0x00000208       0xa0 ./bgapi/dmadrv.o
 .debug_aranges
                0x000002a8       0x98 ./bgapi/em_adc.o
 .debug_aranges
                0x00000340       0x80 ./bgapi/em_ldma.o
 .debug_aranges
                0x000003c0       0x88 ./bgapi/em_leuart.o
 .debug_aranges
                0x00000448       0x28 ./device/EFR32_B_1_1_P/gcc/startup_efr32bg1p.o
 .debug_aranges
                0x00000470      0x190 ./emlib/em_cmu.o
 .debug_aranges
                0x00000600       0x88 ./emlib/em_gpio.o
 .debug_aranges
                0x00000688       0x70 ./emlib/em_i2c.o
 .debug_aranges
                0x000006f8       0x50 ./emlib/em_rtcc.o
 .debug_aranges
                0x00000748       0x28 ./emlib/em_system.o
 .debug_aranges
                0x00000770       0xd0 ./emlib/em_usart.o
 .debug_aranges
                0x00000840       0x88 ./glib/BRD4100A/dmd_display.o
 .debug_aranges
                0x000008c8       0x90 ./glib/BRD4100A/glib.o
 .debug_aranges
                0x00000958       0x38 ./glib/BRD4100A/glib_rectangle.o
 .debug_aranges
                0x00000990       0x30 ./glib/BRD4100A/glib_string.o
 .debug_aranges
                0x000009c0       0x80 ./kit/BRD4100A/bsp_stk_leds.o
 .debug_aranges
                0x00000a40      0x1b8 ./kit_flashpwr/BRD4100A/mx25flash_spi.o
 .debug_aranges
                0x00000bf8       0xe0 ./src/InitDevice.o

.debug_ranges   0x00000000      0xb68
 .debug_ranges  0x00000000       0x28 ./advertisement.o
 .debug_ranges  0x00000028       0xb8 ./app.o
 .debug_ranges  0x000000e0       0x78 ./app_ui.o
 .debug_ranges  0x00000158       0x20 ./beacon.o
 .debug_ranges  0x00000178       0x20 ./graphics.o
 .debug_ranges  0x00000198       0x20 ./main.o
 .debug_ranges  0x000001b8       0x90 ./bgapi/dmadrv.o
 .debug_ranges  0x00000248       0x88 ./bgapi/em_adc.o
 .debug_ranges  0x000002d0       0x70 ./bgapi/em_ldma.o
 .debug_ranges  0x00000340       0x78 ./bgapi/em_leuart.o
 .debug_ranges  0x000003b8       0x18 ./device/EFR32_B_1_1_P/gcc/startup_efr32bg1p.o
 .debug_ranges  0x000003d0      0x180 ./emlib/em_cmu.o
 .debug_ranges  0x00000550       0x78 ./emlib/em_gpio.o
 .debug_ranges  0x000005c8       0x60 ./emlib/em_i2c.o
 .debug_ranges  0x00000628       0x40 ./emlib/em_rtcc.o
 .debug_ranges  0x00000668       0x18 ./emlib/em_system.o
 .debug_ranges  0x00000680       0xc0 ./emlib/em_usart.o
 .debug_ranges  0x00000740       0x78 ./glib/BRD4100A/dmd_display.o
 .debug_ranges  0x000007b8       0x80 ./glib/BRD4100A/glib.o
 .debug_ranges  0x00000838       0x28 ./glib/BRD4100A/glib_rectangle.o
 .debug_ranges  0x00000860       0x20 ./glib/BRD4100A/glib_string.o
 .debug_ranges  0x00000880       0x70 ./kit/BRD4100A/bsp_stk_leds.o
 .debug_ranges  0x000008f0      0x1a8 ./kit_flashpwr/BRD4100A/mx25flash_spi.o
 .debug_ranges  0x00000a98       0xd0 ./src/InitDevice.o

.debug_line     0x00000000     0x7557
 .debug_line    0x00000000      0x2a7 ./advertisement.o
 .debug_line    0x000002a7      0x4eb ./app.o
 .debug_line    0x00000792      0x561 ./app_ui.o
 .debug_line    0x00000cf3      0x279 ./beacon.o
 .debug_line    0x00000f6c      0x1a2 ./gatt_db.o
 .debug_line    0x0000110e      0x268 ./graphics.o
 .debug_line    0x00001376      0x4cd ./main.o
 .debug_line    0x00001843      0x611 ./bgapi/dmadrv.o
 .debug_line    0x00001e54      0x563 ./bgapi/em_adc.o
 .debug_line    0x000023b7      0x488 ./bgapi/em_ldma.o
 .debug_line    0x0000283f      0x450 ./bgapi/em_leuart.o
 .debug_line    0x00002c8f      0x1ca ./device/EFR32_B_1_1_P/gcc/startup_efr32bg1p.o
 .debug_line    0x00002e59      0xadc ./emlib/em_cmu.o
 .debug_line    0x00003935      0x527 ./emlib/em_gpio.o
 .debug_line    0x00003e5c      0x4c0 ./emlib/em_i2c.o
 .debug_line    0x0000431c      0x3e2 ./emlib/em_rtcc.o
 .debug_line    0x000046fe      0x314 ./emlib/em_system.o
 .debug_line    0x00004a12      0x650 ./emlib/em_usart.o
 .debug_line    0x00005062      0x4a7 ./glib/BRD4100A/dmd_display.o
 .debug_line    0x00005509      0x4cb ./glib/BRD4100A/glib.o
 .debug_line    0x000059d4      0x31c ./glib/BRD4100A/glib_rectangle.o
 .debug_line    0x00005cf0      0x36e ./glib/BRD4100A/glib_string.o
 .debug_line    0x0000605e      0x4fa ./kit/BRD4100A/bsp_stk_leds.o
 .debug_line    0x00006558      0xa54 ./kit_flashpwr/BRD4100A/mx25flash_spi.o
 .debug_line    0x00006fac      0x5ab ./src/InitDevice.o

.debug_str      0x00000000     0xe979
 .debug_str     0x00000000     0x48b4 ./advertisement.o
                               0x4c00 (size before relaxing)
 .debug_str     0x000048b4     0x1841 ./app.o
                               0x6346 (size before relaxing)
 .debug_str     0x000060f5      0x422 ./app_ui.o
                               0x4f21 (size before relaxing)
 .debug_str     0x00006517       0xc1 ./beacon.o
                               0x5eed (size before relaxing)
 .debug_str     0x000065d8      0x74e ./gatt_db.o
                                0x955 (size before relaxing)
 .debug_str     0x00006d26      0x20e ./graphics.o
                                0x49b (size before relaxing)
 .debug_str     0x00006f34      0x84e ./main.o
                               0x5500 (size before relaxing)
 .debug_str     0x00007782      0xe79 ./bgapi/dmadrv.o
                               0x10c6 (size before relaxing)
 .debug_str     0x000085fb     0x2638 ./bgapi/em_adc.o
                               0x2a57 (size before relaxing)
 .debug_str     0x0000ac33      0x384 ./bgapi/em_ldma.o
                                0xa7d (size before relaxing)
 .debug_str     0x0000afb7      0x2e9 ./bgapi/em_leuart.o
                                0x715 (size before relaxing)
 .debug_str     0x0000b2a0       0xec ./device/EFR32_B_1_1_P/gcc/startup_efr32bg1p.o
                                0x2a1 (size before relaxing)
 .debug_str     0x0000b38c      0xb5a ./emlib/em_cmu.o
                               0x1348 (size before relaxing)
 .debug_str     0x0000bee6      0x4ab ./emlib/em_gpio.o
                                0x82e (size before relaxing)
 .debug_str     0x0000c391      0x350 ./emlib/em_i2c.o
                                0x7d3 (size before relaxing)
 .debug_str     0x0000c6e1      0x5d2 ./emlib/em_rtcc.o
                                0x7f6 (size before relaxing)
 .debug_str     0x0000ccb3      0x127 ./emlib/em_system.o
                                0x2fb (size before relaxing)
 .debug_str     0x0000cdda      0x8f9 ./emlib/em_usart.o
                                0xe34 (size before relaxing)
 .debug_str     0x0000d6d3      0x45c ./glib/BRD4100A/dmd_display.o
                                0x688 (size before relaxing)
 .debug_str     0x0000db2f      0x1db ./glib/BRD4100A/glib.o
                                0x5aa (size before relaxing)
 .debug_str     0x0000dd0a       0xd4 ./glib/BRD4100A/glib_rectangle.o
                                0x4a5 (size before relaxing)
 .debug_str     0x0000ddde      0x10c ./glib/BRD4100A/glib_string.o
                                0x4c7 (size before relaxing)
 .debug_str     0x0000deea      0x103 ./kit/BRD4100A/bsp_stk_leds.o
                                0x75d (size before relaxing)
 .debug_str     0x0000dfed      0x422 ./kit_flashpwr/BRD4100A/mx25flash_spi.o
                                0xe64 (size before relaxing)
 .debug_str     0x0000e40f      0x56a ./src/InitDevice.o
                               0x162c (size before relaxing)

.debug_frame    0x00000000     0x3bd0
 .debug_frame   0x00000000       0x8c ./advertisement.o
 .debug_frame   0x0000008c      0x270 ./app.o
 .debug_frame   0x000002fc      0x1f4 ./app_ui.o
 .debug_frame   0x000004f0       0x7c ./beacon.o
 .debug_frame   0x0000056c       0x80 ./graphics.o
 .debug_frame   0x000005ec       0x70 ./main.o
 .debug_frame   0x0000065c      0x280 ./bgapi/dmadrv.o
 .debug_frame   0x000008dc      0x270 ./bgapi/em_adc.o
 .debug_frame   0x00000b4c      0x1f4 ./bgapi/em_ldma.o
 .debug_frame   0x00000d40      0x21c ./bgapi/em_leuart.o
 .debug_frame   0x00000f5c       0x48 ./device/EFR32_B_1_1_P/gcc/startup_efr32bg1p.o
 .debug_frame   0x00000fa4      0x6dc ./emlib/em_cmu.o
 .debug_frame   0x00001680      0x224 ./emlib/em_gpio.o
 .debug_frame   0x000018a4      0x1b0 ./emlib/em_i2c.o
 .debug_frame   0x00001a54      0x110 ./emlib/em_rtcc.o
 .debug_frame   0x00001b64       0x60 ./emlib/em_system.o
 .debug_frame   0x00001bc4      0x384 ./emlib/em_usart.o
 .debug_frame   0x00001f48      0x220 ./glib/BRD4100A/dmd_display.o
 .debug_frame   0x00002168      0x244 ./glib/BRD4100A/glib.o
 .debug_frame   0x000023ac       0xb4 ./glib/BRD4100A/glib_rectangle.o
 .debug_frame   0x00002460       0x80 ./glib/BRD4100A/glib_string.o
 .debug_frame   0x000024e0      0x1f0 ./kit/BRD4100A/bsp_stk_leds.o
 .debug_frame   0x000026d0      0x724 ./kit_flashpwr/BRD4100A/mx25flash_spi.o
 .debug_frame   0x00002df4      0x34c ./src/InitDevice.o
 .debug_frame   0x00003140       0x28 c:/siliconlabs/simplicitystudio/v4/developer/toolchains/gnu_arm/4.9_2015q3/bin/../lib/gcc/arm-none-eabi/4.9.3/armv7e-m/softfp\libgcc.a(_aeabi_uldivmod.o)
 .debug_frame   0x00003168       0x50 c:/siliconlabs/simplicitystudio/v4/developer/toolchains/gnu_arm/4.9_2015q3/bin/../lib/gcc/arm-none-eabi/4.9.3/armv7e-m/softfp\libgcc.a(bpabi.o)
 .debug_frame   0x000031b8       0x34 c:/siliconlabs/simplicitystudio/v4/developer/toolchains/gnu_arm/4.9_2015q3/bin/../lib/gcc/arm-none-eabi/4.9.3/armv7e-m/softfp\libgcc.a(_divdi3.o)
 .debug_frame   0x000031ec       0x30 c:/siliconlabs/simplicitystudio/v4/developer/toolchains/gnu_arm/4.9_2015q3/bin/../lib/gcc/arm-none-eabi/4.9.3/armv7e-m/softfp\libgcc.a(_udivdi3.o)
 .debug_frame   0x0000321c       0x28 c:/siliconlabs/simplicitystudio/v4/developer/toolchains/gnu_arm/4.9_2015q3/bin/../lib/gcc/arm-none-eabi/4.9.3/../../../../arm-none-eabi/lib/armv7e-m/softfp\libc.a(lib_a-exit.o)
 .debug_frame   0x00003244       0x2c c:/siliconlabs/simplicitystudio/v4/developer/toolchains/gnu_arm/4.9_2015q3/bin/../lib/gcc/arm-none-eabi/4.9.3/../../../../arm-none-eabi/lib/armv7e-m/softfp\libc.a(lib_a-init.o)
 .debug_frame   0x00003270       0x38 c:/siliconlabs/simplicitystudio/v4/developer/toolchains/gnu_arm/4.9_2015q3/bin/../lib/gcc/arm-none-eabi/4.9.3/../../../../arm-none-eabi/lib/armv7e-m/softfp\libc.a(lib_a-memcmp.o)
 .debug_frame   0x000032a8       0x34 c:/siliconlabs/simplicitystudio/v4/developer/toolchains/gnu_arm/4.9_2015q3/bin/../lib/gcc/arm-none-eabi/4.9.3/../../../../arm-none-eabi/lib/armv7e-m/softfp\libc.a(lib_a-memset.o)
 .debug_frame   0x000032dc       0xd0 c:/siliconlabs/simplicitystudio/v4/developer/toolchains/gnu_arm/4.9_2015q3/bin/../lib/gcc/arm-none-eabi/4.9.3/../../../../arm-none-eabi/lib/armv7e-m/softfp\libc.a(lib_a-snprintf.o)
 .debug_frame   0x000033ac       0x20 c:/siliconlabs/simplicitystudio/v4/developer/toolchains/gnu_arm/4.9_2015q3/bin/../lib/gcc/arm-none-eabi/4.9.3/../../../../arm-none-eabi/lib/armv7e-m/softfp\libc.a(lib_a-strlen.o)
 .debug_frame   0x000033cc       0x40 c:/siliconlabs/simplicitystudio/v4/developer/toolchains/gnu_arm/4.9_2015q3/bin/../lib/gcc/arm-none-eabi/4.9.3/../../../../arm-none-eabi/lib/armv7e-m/softfp\libc.a(lib_a-svfprintf.o)
 .debug_frame   0x0000340c       0x50 c:/siliconlabs/simplicitystudio/v4/developer/toolchains/gnu_arm/4.9_2015q3/bin/../lib/gcc/arm-none-eabi/4.9.3/../../../../arm-none-eabi/lib/armv7e-m/softfp\libc.a(lib_a-__call_atexit.o)
 .debug_frame   0x0000345c       0x20 c:/siliconlabs/simplicitystudio/v4/developer/toolchains/gnu_arm/4.9_2015q3/bin/../lib/gcc/arm-none-eabi/4.9.3/../../../../arm-none-eabi/lib/armv7e-m/softfp\libc.a(lib_a-atexit.o)
 .debug_frame   0x0000347c       0x88 c:/siliconlabs/simplicitystudio/v4/developer/toolchains/gnu_arm/4.9_2015q3/bin/../lib/gcc/arm-none-eabi/4.9.3/../../../../arm-none-eabi/lib/armv7e-m/softfp\libc.a(lib_a-dtoa.o)
 .debug_frame   0x00003504       0x34 c:/siliconlabs/simplicitystudio/v4/developer/toolchains/gnu_arm/4.9_2015q3/bin/../lib/gcc/arm-none-eabi/4.9.3/../../../../arm-none-eabi/lib/armv7e-m/softfp\libc.a(lib_a-fini.o)
 .debug_frame   0x00003538       0x9c c:/siliconlabs/simplicitystudio/v4/developer/toolchains/gnu_arm/4.9_2015q3/bin/../lib/gcc/arm-none-eabi/4.9.3/../../../../arm-none-eabi/lib/armv7e-m/softfp\libc.a(lib_a-locale.o)
 .debug_frame   0x000035d4       0x58 c:/siliconlabs/simplicitystudio/v4/developer/toolchains/gnu_arm/4.9_2015q3/bin/../lib/gcc/arm-none-eabi/4.9.3/../../../../arm-none-eabi/lib/armv7e-m/softfp\libc.a(lib_a-mallocr.o)
 .debug_frame   0x0000362c       0x3c c:/siliconlabs/simplicitystudio/v4/developer/toolchains/gnu_arm/4.9_2015q3/bin/../lib/gcc/arm-none-eabi/4.9.3/../../../../arm-none-eabi/lib/armv7e-m/softfp\libc.a(lib_a-memchr.o)
 .debug_frame   0x00003668       0x30 c:/siliconlabs/simplicitystudio/v4/developer/toolchains/gnu_arm/4.9_2015q3/bin/../lib/gcc/arm-none-eabi/4.9.3/../../../../arm-none-eabi/lib/armv7e-m/softfp\libc.a(lib_a-mlock.o)
 .debug_frame   0x00003698      0x268 c:/siliconlabs/simplicitystudio/v4/developer/toolchains/gnu_arm/4.9_2015q3/bin/../lib/gcc/arm-none-eabi/4.9.3/../../../../arm-none-eabi/lib/armv7e-m/softfp\libc.a(lib_a-mprec.o)
 .debug_frame   0x00003900       0x34 c:/siliconlabs/simplicitystudio/v4/developer/toolchains/gnu_arm/4.9_2015q3/bin/../lib/gcc/arm-none-eabi/4.9.3/../../../../arm-none-eabi/lib/armv7e-m/softfp\libc.a(lib_a-s_fpclassify.o)
 .debug_frame   0x00003934       0x2c c:/siliconlabs/simplicitystudio/v4/developer/toolchains/gnu_arm/4.9_2015q3/bin/../lib/gcc/arm-none-eabi/4.9.3/../../../../arm-none-eabi/lib/armv7e-m/softfp\libc.a(lib_a-sbrkr.o)
 .debug_frame   0x00003960       0x78 c:/siliconlabs/simplicitystudio/v4/developer/toolchains/gnu_arm/4.9_2015q3/bin/../lib/gcc/arm-none-eabi/4.9.3/../../../../arm-none-eabi/lib/armv7e-m/softfp\libc.a(lib_a-svfiprintf.o)
 .debug_frame   0x000039d8       0x34 c:/siliconlabs/simplicitystudio/v4/developer/toolchains/gnu_arm/4.9_2015q3/bin/../lib/gcc/arm-none-eabi/4.9.3/../../../../arm-none-eabi/lib/armv7e-m/softfp\libc.a(lib_a-__atexit.o)
 .debug_frame   0x00003a0c       0x28 c:/siliconlabs/simplicitystudio/v4/developer/toolchains/gnu_arm/4.9_2015q3/bin/../lib/gcc/arm-none-eabi/4.9.3/../../../../arm-none-eabi/lib/armv7e-m/softfp\libc.a(lib_a-callocr.o)
 .debug_frame   0x00003a34       0x74 c:/siliconlabs/simplicitystudio/v4/developer/toolchains/gnu_arm/4.9_2015q3/bin/../lib/gcc/arm-none-eabi/4.9.3/../../../../arm-none-eabi/lib/armv7e-m/softfp\libc.a(lib_a-freer.o)
 .debug_frame   0x00003aa8       0x30 c:/siliconlabs/simplicitystudio/v4/developer/toolchains/gnu_arm/4.9_2015q3/bin/../lib/gcc/arm-none-eabi/4.9.3/../../../../arm-none-eabi/lib/armv7e-m/softfp\libc.a(lib_a-memmove.o)
 .debug_frame   0x00003ad8       0x60 c:/siliconlabs/simplicitystudio/v4/developer/toolchains/gnu_arm/4.9_2015q3/bin/../lib/gcc/arm-none-eabi/4.9.3/../../../../arm-none-eabi/lib/armv7e-m/softfp\libc.a(lib_a-reallocr.o)
 .debug_frame   0x00003b38       0x58 c:/siliconlabs/simplicitystudio/v4/developer/toolchains/gnu_arm/4.9_2015q3/bin/../lib/gcc/arm-none-eabi/4.9.3/../../../../arm-none-eabi/lib/armv7e-m/softfp\libc.a(lib_a-reent.o)
 .debug_frame   0x00003b90       0x20 c:/siliconlabs/simplicitystudio/v4/developer/toolchains/gnu_arm/4.9_2015q3/bin/../lib/gcc/arm-none-eabi/4.9.3/../../../../arm-none-eabi/lib/armv7e-m/softfp\libnosys.a(sbrk.o)
 .debug_frame   0x00003bb0       0x20 c:/siliconlabs/simplicitystudio/v4/developer/toolchains/gnu_arm/4.9_2015q3/bin/../lib/gcc/arm-none-eabi/4.9.3/../../../../arm-none-eabi/lib/armv7e-m/softfp\libnosys.a(_exit.o)
